{
   <openfst>
   Memcheck:Leak
   match-leak-kinds: reachable
   fun:_Znwm
   fun:_ZNSt7__cxx1112basic_stringIcSt11char_traitsIcESaIcEE12_M_constructIPcEEvT_S7_St20forward_iterator_tag
   fun:_ZZN3fst16DefaultCompactorINS_17AcceptorCompactorINS_6ArcTplINS_17TropicalWeightTplIfEEEEEEjNS_19DefaultCompactStoreISt4pairIS8_IiS4_EiEjEEE4TypeB5cxx11EvENKUlvE_clEv
   fun:_ZN3fst16DefaultCompactorINS_17AcceptorCompactorINS_6ArcTplINS_17TropicalWeightTplIfEEEEEEjNS_19DefaultCompactStoreISt4pairIS8_IiS4_EiEjEEE4TypeB5cxx11Ev
   fun:_ZN3fst8internal14CompactFstImplINS_6ArcTplINS_17TropicalWeightTplIfEEEENS_16DefaultCompactorINS_17AcceptorCompactorIS5_EEjNS_19DefaultCompactStoreISt4pairISA_IiS4_EiEjEEEENS_17DefaultCacheStoreIS5_EEEC1Ev
   fun:_ZN9__gnu_cxx13new_allocatorIN3fst8internal14CompactFstImplINS1_6ArcTplINS1_17TropicalWeightTplIfEEEENS1_16DefaultCompactorINS1_17AcceptorCompactorIS7_EEjNS1_19DefaultCompactStoreISt4pairISC_IiS6_EiEjEEEENS1_17DefaultCacheStoreIS7_EEEEE9constructISJ_JEEEvPT_DpOT0_
   fun:_ZNSt16allocator_traitsISaIN3fst8internal14CompactFstImplINS0_6ArcTplINS0_17TropicalWeightTplIfEEEENS0_16DefaultCompactorINS0_17AcceptorCompactorIS6_EEjNS0_19DefaultCompactStoreISt4pairISB_IiS5_EiEjEEEENS0_17DefaultCacheStoreIS6_EEEEEE9constructISI_JEEEvRSJ_PT_DpOT0_
   fun:_ZNSt23_Sp_counted_ptr_inplaceIN3fst8internal14CompactFstImplINS0_6ArcTplINS0_17TropicalWeightTplIfEEEENS0_16DefaultCompactorINS0_17AcceptorCompactorIS6_EEjNS0_19DefaultCompactStoreISt4pairISB_IiS5_EiEjEEEENS0_17DefaultCacheStoreIS6_EEEESaISI_ELN9__gnu_cxx12_Lock_policyE2EEC1IJEEESJ_DpOT_
   fun:_ZNSt14__shared_countILN9__gnu_cxx12_Lock_policyE2EEC1IN3fst8internal14CompactFstImplINS4_6ArcTplINS4_17TropicalWeightTplIfEEEENS4_16DefaultCompactorINS4_17AcceptorCompactorISA_EEjNS4_19DefaultCompactStoreISt4pairISF_IiS9_EiEjEEEENS4_17DefaultCacheStoreISA_EEEESaISM_EJEEERPT_St20_Sp_alloc_shared_tagIT0_EDpOT1_
   fun:_ZNSt12__shared_ptrIN3fst8internal14CompactFstImplINS0_6ArcTplINS0_17TropicalWeightTplIfEEEENS0_16DefaultCompactorINS0_17AcceptorCompactorIS6_EEjNS0_19DefaultCompactStoreISt4pairISB_IiS5_EiEjEEEENS0_17DefaultCacheStoreIS6_EEEELN9__gnu_cxx12_Lock_policyE2EEC1ISaISI_EJEEESt20_Sp_alloc_shared_tagIT_EDpOT0_
   fun:_ZNSt10shared_ptrIN3fst8internal14CompactFstImplINS0_6ArcTplINS0_17TropicalWeightTplIfEEEENS0_16DefaultCompactorINS0_17AcceptorCompactorIS6_EEjNS0_19DefaultCompactStoreISt4pairISB_IiS5_EiEjEEEENS0_17DefaultCacheStoreIS6_EEEEEC1ISaISI_EJEEESt20_Sp_alloc_shared_tagIT_EDpOT0_
   fun:_ZSt15allocate_sharedIN3fst8internal14CompactFstImplINS0_6ArcTplINS0_17TropicalWeightTplIfEEEENS0_16DefaultCompactorINS0_17AcceptorCompactorIS6_EEjNS0_19DefaultCompactStoreISt4pairISB_IiS5_EiEjEEEENS0_17DefaultCacheStoreIS6_EEEESaISI_EJEESt10shared_ptrIT_ERKT0_DpOT1_
}
{
   <openfst>
   Memcheck:Leak
   match-leak-kinds: reachable
   fun:_Znwm
   fun:_ZNSt7__cxx1112basic_stringIcSt11char_traitsIcESaIcEE12_M_constructIPcEEvT_S7_St20forward_iterator_tag
   fun:_ZNSt4pairINSt7__cxx1112basic_stringIcSt11char_traitsIcESaIcEEEN3fst16FstRegisterEntryINS6_6ArcTplINS6_17TropicalWeightTplIfEEEEEEEC1IS5_SC_Lb1EEERKS5_RKSC_
   fun:_ZSt9make_pairIRKNSt7__cxx1112basic_stringIcSt11char_traitsIcESaIcEEERKN3fst16FstRegisterEntryINS8_6ArcTplINS8_17TropicalWeightTplIfEEEEEEESt4pairINSt17__decay_and_stripIT_E6__typeENSI_IT0_E6__typeEEOSJ_OSM_
   fun:_ZN3fst15GenericRegisterINSt7__cxx1112basic_stringIcSt11char_traitsIcESaIcEEENS_16FstRegisterEntryINS_6ArcTplINS_17TropicalWeightTplIfEEEEEENS_11FstRegisterISB_EEE8SetEntryERKS6_RKSC_
   fun:_ZN3fst17GenericRegistererINS_11FstRegisterINS_6ArcTplINS_17TropicalWeightTplIfEEEEEEEC1ENSt7__cxx1112basic_stringIcSt11char_traitsIcESaIcEEENS_16FstRegisterEntryIS5_EE
   fun:_ZN3fst13FstRegistererINS_10CompactFstINS_6ArcTplINS_17TropicalWeightTplIfEEEENS_17AcceptorCompactorIS5_EEjNS_19DefaultCompactStoreISt4pairIS9_IiS4_EiEjEENS_17DefaultCacheStoreIS5_EEEEEC1Ev
   fun:_Z41__static_initialization_and_destruction_0ii
}
{
   <openfst>
   Memcheck:Leak
   match-leak-kinds: reachable
   fun:_Znwm
   fun:_ZNSt7__cxx1112basic_stringIcSt11char_traitsIcESaIcEE12_M_constructIPcEEvT_S7_St20forward_iterator_tag
   fun:_ZZN3fst16DefaultCompactorINS_17AcceptorCompactorINS_6ArcTplINS_12LogWeightTplIfEEEEEEjNS_19DefaultCompactStoreISt4pairIS8_IiS4_EiEjEEE4TypeB5cxx11EvENKUlvE_clEv
   fun:_ZN3fst16DefaultCompactorINS_17AcceptorCompactorINS_6ArcTplINS_12LogWeightTplIfEEEEEEjNS_19DefaultCompactStoreISt4pairIS8_IiS4_EiEjEEE4TypeB5cxx11Ev
   fun:_ZN3fst8internal14CompactFstImplINS_6ArcTplINS_12LogWeightTplIfEEEENS_16DefaultCompactorINS_17AcceptorCompactorIS5_EEjNS_19DefaultCompactStoreISt4pairISA_IiS4_EiEjEEEENS_17DefaultCacheStoreIS5_EEEC1Ev
   fun:_ZN9__gnu_cxx13new_allocatorIN3fst8internal14CompactFstImplINS1_6ArcTplINS1_12LogWeightTplIfEEEENS1_16DefaultCompactorINS1_17AcceptorCompactorIS7_EEjNS1_19DefaultCompactStoreISt4pairISC_IiS6_EiEjEEEENS1_17DefaultCacheStoreIS7_EEEEE9constructISJ_JEEEvPT_DpOT0_
   fun:_ZNSt16allocator_traitsISaIN3fst8internal14CompactFstImplINS0_6ArcTplINS0_12LogWeightTplIfEEEENS0_16DefaultCompactorINS0_17AcceptorCompactorIS6_EEjNS0_19DefaultCompactStoreISt4pairISB_IiS5_EiEjEEEENS0_17DefaultCacheStoreIS6_EEEEEE9constructISI_JEEEvRSJ_PT_DpOT0_
   fun:_ZNSt23_Sp_counted_ptr_inplaceIN3fst8internal14CompactFstImplINS0_6ArcTplINS0_12LogWeightTplIfEEEENS0_16DefaultCompactorINS0_17AcceptorCompactorIS6_EEjNS0_19DefaultCompactStoreISt4pairISB_IiS5_EiEjEEEENS0_17DefaultCacheStoreIS6_EEEESaISI_ELN9__gnu_cxx12_Lock_policyE2EEC1IJEEESJ_DpOT_
   fun:_ZNSt14__shared_countILN9__gnu_cxx12_Lock_policyE2EEC1IN3fst8internal14CompactFstImplINS4_6ArcTplINS4_12LogWeightTplIfEEEENS4_16DefaultCompactorINS4_17AcceptorCompactorISA_EEjNS4_19DefaultCompactStoreISt4pairISF_IiS9_EiEjEEEENS4_17DefaultCacheStoreISA_EEEESaISM_EJEEERPT_St20_Sp_alloc_shared_tagIT0_EDpOT1_
   fun:_ZNSt12__shared_ptrIN3fst8internal14CompactFstImplINS0_6ArcTplINS0_12LogWeightTplIfEEEENS0_16DefaultCompactorINS0_17AcceptorCompactorIS6_EEjNS0_19DefaultCompactStoreISt4pairISB_IiS5_EiEjEEEENS0_17DefaultCacheStoreIS6_EEEELN9__gnu_cxx12_Lock_policyE2EEC1ISaISI_EJEEESt20_Sp_alloc_shared_tagIT_EDpOT0_
   fun:_ZNSt10shared_ptrIN3fst8internal14CompactFstImplINS0_6ArcTplINS0_12LogWeightTplIfEEEENS0_16DefaultCompactorINS0_17AcceptorCompactorIS6_EEjNS0_19DefaultCompactStoreISt4pairISB_IiS5_EiEjEEEENS0_17DefaultCacheStoreIS6_EEEEEC1ISaISI_EJEEESt20_Sp_alloc_shared_tagIT_EDpOT0_
   fun:_ZSt15allocate_sharedIN3fst8internal14CompactFstImplINS0_6ArcTplINS0_12LogWeightTplIfEEEENS0_16DefaultCompactorINS0_17AcceptorCompactorIS6_EEjNS0_19DefaultCompactStoreISt4pairISB_IiS5_EiEjEEEENS0_17DefaultCacheStoreIS6_EEEESaISI_EJEESt10shared_ptrIT_ERKT0_DpOT1_
}
{
   <openfst>
   Memcheck:Leak
   match-leak-kinds: reachable
   fun:_Znwm
   fun:_ZNSt7__cxx1112basic_stringIcSt11char_traitsIcESaIcEE12_M_constructIPcEEvT_S7_St20forward_iterator_tag
   fun:_ZNSt4pairINSt7__cxx1112basic_stringIcSt11char_traitsIcESaIcEEEN3fst16FstRegisterEntryINS6_6ArcTplINS6_12LogWeightTplIfEEEEEEEC1IS5_SC_Lb1EEERKS5_RKSC_
   fun:_ZSt9make_pairIRKNSt7__cxx1112basic_stringIcSt11char_traitsIcESaIcEEERKN3fst16FstRegisterEntryINS8_6ArcTplINS8_12LogWeightTplIfEEEEEEESt4pairINSt17__decay_and_stripIT_E6__typeENSI_IT0_E6__typeEEOSJ_OSM_
   fun:_ZN3fst15GenericRegisterINSt7__cxx1112basic_stringIcSt11char_traitsIcESaIcEEENS_16FstRegisterEntryINS_6ArcTplINS_12LogWeightTplIfEEEEEENS_11FstRegisterISB_EEE8SetEntryERKS6_RKSC_
   fun:_ZN3fst17GenericRegistererINS_11FstRegisterINS_6ArcTplINS_12LogWeightTplIfEEEEEEEC1ENSt7__cxx1112basic_stringIcSt11char_traitsIcESaIcEEENS_16FstRegisterEntryIS5_EE
   fun:_ZN3fst13FstRegistererINS_10CompactFstINS_6ArcTplINS_12LogWeightTplIfEEEENS_17AcceptorCompactorIS5_EEjNS_19DefaultCompactStoreISt4pairIS9_IiS4_EiEjEENS_17DefaultCacheStoreIS5_EEEEEC1Ev
   fun:_Z41__static_initialization_and_destruction_0ii
}
{
   <openfst>
   Memcheck:Leak
   match-leak-kinds: reachable
   fun:_Znwm
   fun:_ZNSt7__cxx1112basic_stringIcSt11char_traitsIcESaIcEE12_M_constructIPcEEvT_S7_St20forward_iterator_tag
   fun:_ZZN3fst16DefaultCompactorINS_19UnweightedCompactorINS_6ArcTplINS_17TropicalWeightTplIfEEEEEEjNS_19DefaultCompactStoreISt4pairIS8_IiiEiEjEEE4TypeB5cxx11EvENKUlvE_clEv
   fun:_ZN3fst16DefaultCompactorINS_19UnweightedCompactorINS_6ArcTplINS_17TropicalWeightTplIfEEEEEEjNS_19DefaultCompactStoreISt4pairIS8_IiiEiEjEEE4TypeB5cxx11Ev
   fun:_ZN3fst8internal14CompactFstImplINS_6ArcTplINS_17TropicalWeightTplIfEEEENS_16DefaultCompactorINS_19UnweightedCompactorIS5_EEjNS_19DefaultCompactStoreISt4pairISA_IiiEiEjEEEENS_17DefaultCacheStoreIS5_EEEC1Ev
   fun:_ZN9__gnu_cxx13new_allocatorIN3fst8internal14CompactFstImplINS1_6ArcTplINS1_17TropicalWeightTplIfEEEENS1_16DefaultCompactorINS1_19UnweightedCompactorIS7_EEjNS1_19DefaultCompactStoreISt4pairISC_IiiEiEjEEEENS1_17DefaultCacheStoreIS7_EEEEE9constructISJ_JEEEvPT_DpOT0_
   fun:_ZNSt16allocator_traitsISaIN3fst8internal14CompactFstImplINS0_6ArcTplINS0_17TropicalWeightTplIfEEEENS0_16DefaultCompactorINS0_19UnweightedCompactorIS6_EEjNS0_19DefaultCompactStoreISt4pairISB_IiiEiEjEEEENS0_17DefaultCacheStoreIS6_EEEEEE9constructISI_JEEEvRSJ_PT_DpOT0_
   fun:_ZNSt23_Sp_counted_ptr_inplaceIN3fst8internal14CompactFstImplINS0_6ArcTplINS0_17TropicalWeightTplIfEEEENS0_16DefaultCompactorINS0_19UnweightedCompactorIS6_EEjNS0_19DefaultCompactStoreISt4pairISB_IiiEiEjEEEENS0_17DefaultCacheStoreIS6_EEEESaISI_ELN9__gnu_cxx12_Lock_policyE2EEC1IJEEESJ_DpOT_
   fun:_ZNSt14__shared_countILN9__gnu_cxx12_Lock_policyE2EEC1IN3fst8internal14CompactFstImplINS4_6ArcTplINS4_17TropicalWeightTplIfEEEENS4_16DefaultCompactorINS4_19UnweightedCompactorISA_EEjNS4_19DefaultCompactStoreISt4pairISF_IiiEiEjEEEENS4_17DefaultCacheStoreISA_EEEESaISM_EJEEERPT_St20_Sp_alloc_shared_tagIT0_EDpOT1_
   fun:_ZNSt12__shared_ptrIN3fst8internal14CompactFstImplINS0_6ArcTplINS0_17TropicalWeightTplIfEEEENS0_16DefaultCompactorINS0_19UnweightedCompactorIS6_EEjNS0_19DefaultCompactStoreISt4pairISB_IiiEiEjEEEENS0_17DefaultCacheStoreIS6_EEEELN9__gnu_cxx12_Lock_policyE2EEC1ISaISI_EJEEESt20_Sp_alloc_shared_tagIT_EDpOT0_
   fun:_ZNSt10shared_ptrIN3fst8internal14CompactFstImplINS0_6ArcTplINS0_17TropicalWeightTplIfEEEENS0_16DefaultCompactorINS0_19UnweightedCompactorIS6_EEjNS0_19DefaultCompactStoreISt4pairISB_IiiEiEjEEEENS0_17DefaultCacheStoreIS6_EEEEEC1ISaISI_EJEEESt20_Sp_alloc_shared_tagIT_EDpOT0_
   fun:_ZSt15allocate_sharedIN3fst8internal14CompactFstImplINS0_6ArcTplINS0_17TropicalWeightTplIfEEEENS0_16DefaultCompactorINS0_19UnweightedCompactorIS6_EEjNS0_19DefaultCompactStoreISt4pairISB_IiiEiEjEEEENS0_17DefaultCacheStoreIS6_EEEESaISI_EJEESt10shared_ptrIT_ERKT0_DpOT1_
}
{
   <openfst>
   Memcheck:Leak
   match-leak-kinds: reachable
   fun:_Znwm
   fun:_ZNSt7__cxx1112basic_stringIcSt11char_traitsIcESaIcEE12_M_constructIPcEEvT_S7_St20forward_iterator_tag
   fun:_ZNSt4pairINSt7__cxx1112basic_stringIcSt11char_traitsIcESaIcEEEN3fst16FstRegisterEntryINS6_6ArcTplINS6_17TropicalWeightTplIfEEEEEEEC1IS5_SC_Lb1EEERKS5_RKSC_
   fun:_ZSt9make_pairIRKNSt7__cxx1112basic_stringIcSt11char_traitsIcESaIcEEERKN3fst16FstRegisterEntryINS8_6ArcTplINS8_17TropicalWeightTplIfEEEEEEESt4pairINSt17__decay_and_stripIT_E6__typeENSI_IT0_E6__typeEEOSJ_OSM_
   fun:_ZN3fst15GenericRegisterINSt7__cxx1112basic_stringIcSt11char_traitsIcESaIcEEENS_16FstRegisterEntryINS_6ArcTplINS_17TropicalWeightTplIfEEEEEENS_11FstRegisterISB_EEE8SetEntryERKS6_RKSC_
   fun:_ZN3fst17GenericRegistererINS_11FstRegisterINS_6ArcTplINS_17TropicalWeightTplIfEEEEEEEC1ENSt7__cxx1112basic_stringIcSt11char_traitsIcESaIcEEENS_16FstRegisterEntryIS5_EE
   fun:_ZN3fst13FstRegistererINS_10CompactFstINS_6ArcTplINS_17TropicalWeightTplIfEEEENS_19UnweightedCompactorIS5_EEjNS_19DefaultCompactStoreISt4pairIS9_IiiEiEjEENS_17DefaultCacheStoreIS5_EEEEEC1Ev
   fun:_Z41__static_initialization_and_destruction_0ii
}
{
   <openfst>
   Memcheck:Leak
   match-leak-kinds: reachable
   fun:_Znwm
   fun:_ZNSt7__cxx1112basic_stringIcSt11char_traitsIcESaIcEE12_M_constructIPcEEvT_S7_St20forward_iterator_tag
   fun:_ZZN3fst16DefaultCompactorINS_19UnweightedCompactorINS_6ArcTplINS_12LogWeightTplIfEEEEEEjNS_19DefaultCompactStoreISt4pairIS8_IiiEiEjEEE4TypeB5cxx11EvENKUlvE_clEv
   fun:_ZN3fst16DefaultCompactorINS_19UnweightedCompactorINS_6ArcTplINS_12LogWeightTplIfEEEEEEjNS_19DefaultCompactStoreISt4pairIS8_IiiEiEjEEE4TypeB5cxx11Ev
   fun:_ZN3fst8internal14CompactFstImplINS_6ArcTplINS_12LogWeightTplIfEEEENS_16DefaultCompactorINS_19UnweightedCompactorIS5_EEjNS_19DefaultCompactStoreISt4pairISA_IiiEiEjEEEENS_17DefaultCacheStoreIS5_EEEC1Ev
   fun:_ZN9__gnu_cxx13new_allocatorIN3fst8internal14CompactFstImplINS1_6ArcTplINS1_12LogWeightTplIfEEEENS1_16DefaultCompactorINS1_19UnweightedCompactorIS7_EEjNS1_19DefaultCompactStoreISt4pairISC_IiiEiEjEEEENS1_17DefaultCacheStoreIS7_EEEEE9constructISJ_JEEEvPT_DpOT0_
   fun:_ZNSt16allocator_traitsISaIN3fst8internal14CompactFstImplINS0_6ArcTplINS0_12LogWeightTplIfEEEENS0_16DefaultCompactorINS0_19UnweightedCompactorIS6_EEjNS0_19DefaultCompactStoreISt4pairISB_IiiEiEjEEEENS0_17DefaultCacheStoreIS6_EEEEEE9constructISI_JEEEvRSJ_PT_DpOT0_
   fun:_ZNSt23_Sp_counted_ptr_inplaceIN3fst8internal14CompactFstImplINS0_6ArcTplINS0_12LogWeightTplIfEEEENS0_16DefaultCompactorINS0_19UnweightedCompactorIS6_EEjNS0_19DefaultCompactStoreISt4pairISB_IiiEiEjEEEENS0_17DefaultCacheStoreIS6_EEEESaISI_ELN9__gnu_cxx12_Lock_policyE2EEC1IJEEESJ_DpOT_
   fun:_ZNSt14__shared_countILN9__gnu_cxx12_Lock_policyE2EEC1IN3fst8internal14CompactFstImplINS4_6ArcTplINS4_12LogWeightTplIfEEEENS4_16DefaultCompactorINS4_19UnweightedCompactorISA_EEjNS4_19DefaultCompactStoreISt4pairISF_IiiEiEjEEEENS4_17DefaultCacheStoreISA_EEEESaISM_EJEEERPT_St20_Sp_alloc_shared_tagIT0_EDpOT1_
   fun:_ZNSt12__shared_ptrIN3fst8internal14CompactFstImplINS0_6ArcTplINS0_12LogWeightTplIfEEEENS0_16DefaultCompactorINS0_19UnweightedCompactorIS6_EEjNS0_19DefaultCompactStoreISt4pairISB_IiiEiEjEEEENS0_17DefaultCacheStoreIS6_EEEELN9__gnu_cxx12_Lock_policyE2EEC1ISaISI_EJEEESt20_Sp_alloc_shared_tagIT_EDpOT0_
   fun:_ZNSt10shared_ptrIN3fst8internal14CompactFstImplINS0_6ArcTplINS0_12LogWeightTplIfEEEENS0_16DefaultCompactorINS0_19UnweightedCompactorIS6_EEjNS0_19DefaultCompactStoreISt4pairISB_IiiEiEjEEEENS0_17DefaultCacheStoreIS6_EEEEEC1ISaISI_EJEEESt20_Sp_alloc_shared_tagIT_EDpOT0_
   fun:_ZSt15allocate_sharedIN3fst8internal14CompactFstImplINS0_6ArcTplINS0_12LogWeightTplIfEEEENS0_16DefaultCompactorINS0_19UnweightedCompactorIS6_EEjNS0_19DefaultCompactStoreISt4pairISB_IiiEiEjEEEENS0_17DefaultCacheStoreIS6_EEEESaISI_EJEESt10shared_ptrIT_ERKT0_DpOT1_
}
{
   <openfst>
   Memcheck:Leak
   match-leak-kinds: reachable
   fun:_Znwm
   fun:_ZNSt7__cxx1112basic_stringIcSt11char_traitsIcESaIcEE12_M_constructIPcEEvT_S7_St20forward_iterator_tag
   fun:_ZNSt4pairINSt7__cxx1112basic_stringIcSt11char_traitsIcESaIcEEEN3fst16FstRegisterEntryINS6_6ArcTplINS6_12LogWeightTplIfEEEEEEEC1IS5_SC_Lb1EEERKS5_RKSC_
   fun:_ZSt9make_pairIRKNSt7__cxx1112basic_stringIcSt11char_traitsIcESaIcEEERKN3fst16FstRegisterEntryINS8_6ArcTplINS8_12LogWeightTplIfEEEEEEESt4pairINSt17__decay_and_stripIT_E6__typeENSI_IT0_E6__typeEEOSJ_OSM_
   fun:_ZN3fst15GenericRegisterINSt7__cxx1112basic_stringIcSt11char_traitsIcESaIcEEENS_16FstRegisterEntryINS_6ArcTplINS_12LogWeightTplIfEEEEEENS_11FstRegisterISB_EEE8SetEntryERKS6_RKSC_
   fun:_ZN3fst17GenericRegistererINS_11FstRegisterINS_6ArcTplINS_12LogWeightTplIfEEEEEEEC1ENSt7__cxx1112basic_stringIcSt11char_traitsIcESaIcEEENS_16FstRegisterEntryIS5_EE
   fun:_ZN3fst13FstRegistererINS_10CompactFstINS_6ArcTplINS_12LogWeightTplIfEEEENS_19UnweightedCompactorIS5_EEjNS_19DefaultCompactStoreISt4pairIS9_IiiEiEjEENS_17DefaultCacheStoreIS5_EEEEEC1Ev
   fun:_Z41__static_initialization_and_destruction_0ii
}
{
   <openfst>
   Memcheck:Leak
   match-leak-kinds: reachable
   fun:_Znwm
   fun:_ZNSt7__cxx1112basic_stringIcSt11char_traitsIcESaIcEE12_M_constructIPcEEvT_S7_St20forward_iterator_tag
   fun:_ZNSt4pairINSt7__cxx1112basic_stringIcSt11char_traitsIcESaIcEEE15FlagDescriptionIbEEC1IS5_S7_Lb1EEERKS5_RKS7_
   fun:_ZSt9make_pairIRKNSt7__cxx1112basic_stringIcSt11char_traitsIcESaIcEEERK15FlagDescriptionIbEESt4pairINSt17__decay_and_stripIT_E6__typeENSD_IT0_E6__typeEEOSE_OSH_
   fun:_ZN12FlagRegisterIbE14SetDescriptionERKNSt7__cxx1112basic_stringIcSt11char_traitsIcESaIcEEERK15FlagDescriptionIbE
   fun:_ZN14FlagRegistererIbEC1ERKNSt7__cxx1112basic_stringIcSt11char_traitsIcESaIcEEERK15FlagDescriptionIbE
   fun:_Z41__static_initialization_and_destruction_0ii
}
{
   <openfst>
   Memcheck:Leak
   match-leak-kinds: reachable
   fun:_Znwm
   fun:_ZNSt7__cxx1112basic_stringIcSt11char_traitsIcESaIcEE12_M_constructIPKcEEvT_S8_St20forward_iterator_tag
   fun:_ZN3fst27UnweightedAcceptorCompactorINS_6ArcTplINS_17TropicalWeightTplIfEEEEE4TypeB5cxx11Ev
   fun:_ZZN3fst16DefaultCompactorINS_27UnweightedAcceptorCompactorINS_6ArcTplINS_17TropicalWeightTplIfEEEEEEjNS_19DefaultCompactStoreISt4pairIiiEjEEE4TypeB5cxx11EvENKUlvE_clEv
   fun:_ZN3fst16DefaultCompactorINS_27UnweightedAcceptorCompactorINS_6ArcTplINS_17TropicalWeightTplIfEEEEEEjNS_19DefaultCompactStoreISt4pairIiiEjEEE4TypeB5cxx11Ev
   fun:_ZN3fst8internal14CompactFstImplINS_6ArcTplINS_17TropicalWeightTplIfEEEENS_16DefaultCompactorINS_27UnweightedAcceptorCompactorIS5_EEjNS_19DefaultCompactStoreISt4pairIiiEjEEEENS_17DefaultCacheStoreIS5_EEEC1Ev
   fun:_ZN9__gnu_cxx13new_allocatorIN3fst8internal14CompactFstImplINS1_6ArcTplINS1_17TropicalWeightTplIfEEEENS1_16DefaultCompactorINS1_27UnweightedAcceptorCompactorIS7_EEjNS1_19DefaultCompactStoreISt4pairIiiEjEEEENS1_17DefaultCacheStoreIS7_EEEEE9constructISI_JEEEvPT_DpOT0_
   fun:_ZNSt16allocator_traitsISaIN3fst8internal14CompactFstImplINS0_6ArcTplINS0_17TropicalWeightTplIfEEEENS0_16DefaultCompactorINS0_27UnweightedAcceptorCompactorIS6_EEjNS0_19DefaultCompactStoreISt4pairIiiEjEEEENS0_17DefaultCacheStoreIS6_EEEEEE9constructISH_JEEEvRSI_PT_DpOT0_
   fun:_ZNSt23_Sp_counted_ptr_inplaceIN3fst8internal14CompactFstImplINS0_6ArcTplINS0_17TropicalWeightTplIfEEEENS0_16DefaultCompactorINS0_27UnweightedAcceptorCompactorIS6_EEjNS0_19DefaultCompactStoreISt4pairIiiEjEEEENS0_17DefaultCacheStoreIS6_EEEESaISH_ELN9__gnu_cxx12_Lock_policyE2EEC1IJEEESI_DpOT_
   fun:_ZNSt14__shared_countILN9__gnu_cxx12_Lock_policyE2EEC1IN3fst8internal14CompactFstImplINS4_6ArcTplINS4_17TropicalWeightTplIfEEEENS4_16DefaultCompactorINS4_27UnweightedAcceptorCompactorISA_EEjNS4_19DefaultCompactStoreISt4pairIiiEjEEEENS4_17DefaultCacheStoreISA_EEEESaISL_EJEEERPT_St20_Sp_alloc_shared_tagIT0_EDpOT1_
   fun:_ZNSt12__shared_ptrIN3fst8internal14CompactFstImplINS0_6ArcTplINS0_17TropicalWeightTplIfEEEENS0_16DefaultCompactorINS0_27UnweightedAcceptorCompactorIS6_EEjNS0_19DefaultCompactStoreISt4pairIiiEjEEEENS0_17DefaultCacheStoreIS6_EEEELN9__gnu_cxx12_Lock_policyE2EEC1ISaISH_EJEEESt20_Sp_alloc_shared_tagIT_EDpOT0_
   fun:_ZNSt10shared_ptrIN3fst8internal14CompactFstImplINS0_6ArcTplINS0_17TropicalWeightTplIfEEEENS0_16DefaultCompactorINS0_27UnweightedAcceptorCompactorIS6_EEjNS0_19DefaultCompactStoreISt4pairIiiEjEEEENS0_17DefaultCacheStoreIS6_EEEEEC1ISaISH_EJEEESt20_Sp_alloc_shared_tagIT_EDpOT0_
}
{
   <openfst>
   Memcheck:Leak
   match-leak-kinds: reachable
   fun:_Znwm
   fun:_ZNSt7__cxx1112basic_stringIcSt11char_traitsIcESaIcEE12_M_constructIPKcEEvT_S8_St20forward_iterator_tag
   fun:_ZN3fst27UnweightedAcceptorCompactorINS_6ArcTplINS_12LogWeightTplIfEEEEE4TypeB5cxx11Ev
   fun:_ZZN3fst16DefaultCompactorINS_27UnweightedAcceptorCompactorINS_6ArcTplINS_12LogWeightTplIfEEEEEEjNS_19DefaultCompactStoreISt4pairIiiEjEEE4TypeB5cxx11EvENKUlvE_clEv
   fun:_ZN3fst16DefaultCompactorINS_27UnweightedAcceptorCompactorINS_6ArcTplINS_12LogWeightTplIfEEEEEEjNS_19DefaultCompactStoreISt4pairIiiEjEEE4TypeB5cxx11Ev
   fun:_ZN3fst8internal14CompactFstImplINS_6ArcTplINS_12LogWeightTplIfEEEENS_16DefaultCompactorINS_27UnweightedAcceptorCompactorIS5_EEjNS_19DefaultCompactStoreISt4pairIiiEjEEEENS_17DefaultCacheStoreIS5_EEEC1Ev
   fun:_ZN9__gnu_cxx13new_allocatorIN3fst8internal14CompactFstImplINS1_6ArcTplINS1_12LogWeightTplIfEEEENS1_16DefaultCompactorINS1_27UnweightedAcceptorCompactorIS7_EEjNS1_19DefaultCompactStoreISt4pairIiiEjEEEENS1_17DefaultCacheStoreIS7_EEEEE9constructISI_JEEEvPT_DpOT0_
   fun:_ZNSt16allocator_traitsISaIN3fst8internal14CompactFstImplINS0_6ArcTplINS0_12LogWeightTplIfEEEENS0_16DefaultCompactorINS0_27UnweightedAcceptorCompactorIS6_EEjNS0_19DefaultCompactStoreISt4pairIiiEjEEEENS0_17DefaultCacheStoreIS6_EEEEEE9constructISH_JEEEvRSI_PT_DpOT0_
   fun:_ZNSt23_Sp_counted_ptr_inplaceIN3fst8internal14CompactFstImplINS0_6ArcTplINS0_12LogWeightTplIfEEEENS0_16DefaultCompactorINS0_27UnweightedAcceptorCompactorIS6_EEjNS0_19DefaultCompactStoreISt4pairIiiEjEEEENS0_17DefaultCacheStoreIS6_EEEESaISH_ELN9__gnu_cxx12_Lock_policyE2EEC1IJEEESI_DpOT_
   fun:_ZNSt14__shared_countILN9__gnu_cxx12_Lock_policyE2EEC1IN3fst8internal14CompactFstImplINS4_6ArcTplINS4_12LogWeightTplIfEEEENS4_16DefaultCompactorINS4_27UnweightedAcceptorCompactorISA_EEjNS4_19DefaultCompactStoreISt4pairIiiEjEEEENS4_17DefaultCacheStoreISA_EEEESaISL_EJEEERPT_St20_Sp_alloc_shared_tagIT0_EDpOT1_
   fun:_ZNSt12__shared_ptrIN3fst8internal14CompactFstImplINS0_6ArcTplINS0_12LogWeightTplIfEEEENS0_16DefaultCompactorINS0_27UnweightedAcceptorCompactorIS6_EEjNS0_19DefaultCompactStoreISt4pairIiiEjEEEENS0_17DefaultCacheStoreIS6_EEEELN9__gnu_cxx12_Lock_policyE2EEC1ISaISH_EJEEESt20_Sp_alloc_shared_tagIT_EDpOT0_
   fun:_ZNSt10shared_ptrIN3fst8internal14CompactFstImplINS0_6ArcTplINS0_12LogWeightTplIfEEEENS0_16DefaultCompactorINS0_27UnweightedAcceptorCompactorIS6_EEjNS0_19DefaultCompactStoreISt4pairIiiEjEEEENS0_17DefaultCacheStoreIS6_EEEEEC1ISaISH_EJEEESt20_Sp_alloc_shared_tagIT_EDpOT0_
}
{
   <openfst>
   Memcheck:Leak
   match-leak-kinds: reachable
   fun:_Znwm
   fun:_ZNSt7__cxx1112basic_stringIcSt11char_traitsIcESaIcEE12_M_constructIPcEEvT_S7_St20forward_iterator_tag
   fun:_ZNSt4pairINSt7__cxx1112basic_stringIcSt11char_traitsIcESaIcEEE15FlagDescriptionIS5_EEC1IS5_S7_Lb1EEERKS5_RKS7_
   fun:_ZSt9make_pairIRKNSt7__cxx1112basic_stringIcSt11char_traitsIcESaIcEEERK15FlagDescriptionIS5_EESt4pairINSt17__decay_and_stripIT_E6__typeENSD_IT0_E6__typeEEOSE_OSH_
   fun:_ZN12FlagRegisterINSt7__cxx1112basic_stringIcSt11char_traitsIcESaIcEEEE14SetDescriptionERKS5_RK15FlagDescriptionIS5_E
   fun:_ZN14FlagRegistererINSt7__cxx1112basic_stringIcSt11char_traitsIcESaIcEEEEC1ERKS5_RK15FlagDescriptionIS5_E
   fun:_Z41__static_initialization_and_destruction_0ii
}
{
   <openfst>
   Memcheck:Leak
   match-leak-kinds: reachable
   fun:_Znwm
   fun:_ZNSt7__cxx1112basic_stringIcSt11char_traitsIcESaIcEE12_M_constructIPcEEvT_S7_St20forward_iterator_tag
   fun:_ZNSt4pairINSt7__cxx1112basic_stringIcSt11char_traitsIcESaIcEEE15FlagDescriptionIS5_EEC1IS5_S7_Lb1EEERKS5_RKS7_
   fun:_ZSt9make_pairIRKNSt7__cxx1112basic_stringIcSt11char_traitsIcESaIcEEERK15FlagDescriptionIS5_EESt4pairINSt17__decay_and_stripIT_E6__typeENSD_IT0_E6__typeEEOSE_OSH_
   fun:_ZN12FlagRegisterINSt7__cxx1112basic_stringIcSt11char_traitsIcESaIcEEEE14SetDescriptionERKS5_RK15FlagDescriptionIS5_E
   fun:_ZN14FlagRegistererINSt7__cxx1112basic_stringIcSt11char_traitsIcESaIcEEEEC1ERKS5_RK15FlagDescriptionIS5_E
   fun:_Z41__static_initialization_and_destruction_0ii
}
{
   <openfst>
   Memcheck:Leak
   match-leak-kinds: reachable
   fun:_Znwm
   fun:_ZNSt7__cxx1112basic_stringIcSt11char_traitsIcESaIcEE12_M_constructIPcEEvT_S7_St20forward_iterator_tag
   fun:_ZNSt4pairINSt7__cxx1112basic_stringIcSt11char_traitsIcESaIcEEE15FlagDescriptionIbEEC1IS5_S7_Lb1EEERKS5_RKS7_
   fun:_ZSt9make_pairIRKNSt7__cxx1112basic_stringIcSt11char_traitsIcESaIcEEERK15FlagDescriptionIbEESt4pairINSt17__decay_and_stripIT_E6__typeENSD_IT0_E6__typeEEOSE_OSH_
   fun:_ZN12FlagRegisterIbE14SetDescriptionERKNSt7__cxx1112basic_stringIcSt11char_traitsIcESaIcEEERK15FlagDescriptionIbE
   fun:_ZN14FlagRegistererIbEC1ERKNSt7__cxx1112basic_stringIcSt11char_traitsIcESaIcEEERK15FlagDescriptionIbE
   fun:_Z41__static_initialization_and_destruction_0ii
}
{
   <openfst>
   Memcheck:Leak
   match-leak-kinds: reachable
   fun:_Znwm
   fun:_ZNSt7__cxx1112basic_stringIcSt11char_traitsIcESaIcEE12_M_constructIPcEEvT_S7_St20forward_iterator_tag
   fun:_ZNSt4pairINSt7__cxx1112basic_stringIcSt11char_traitsIcESaIcEEE15FlagDescriptionIS5_EEC1IS5_S7_Lb1EEERKS5_RKS7_
   fun:_ZSt9make_pairIRKNSt7__cxx1112basic_stringIcSt11char_traitsIcESaIcEEERK15FlagDescriptionIS5_EESt4pairINSt17__decay_and_stripIT_E6__typeENSD_IT0_E6__typeEEOSE_OSH_
   fun:_ZN12FlagRegisterINSt7__cxx1112basic_stringIcSt11char_traitsIcESaIcEEEE14SetDescriptionERKS5_RK15FlagDescriptionIS5_E
   fun:_ZN14FlagRegistererINSt7__cxx1112basic_stringIcSt11char_traitsIcESaIcEEEEC1ERKS5_RK15FlagDescriptionIS5_E
   fun:_Z41__static_initialization_and_destruction_0ii
}
{
   <openfst>
   Memcheck:Leak
   match-leak-kinds: reachable
   fun:_Znwm
   fun:_ZNSt7__cxx1112basic_stringIcSt11char_traitsIcESaIcEE12_M_constructIPcEEvT_S7_St20forward_iterator_tag
   fun:_ZZN3fst16DefaultCompactorINS_23WeightedStringCompactorINS_6ArcTplINS_17TropicalWeightTplIfEEEEEEjNS_19DefaultCompactStoreISt4pairIiS4_EjEEE4TypeB5cxx11EvENKUlvE_clEv
   fun:_ZN3fst16DefaultCompactorINS_23WeightedStringCompactorINS_6ArcTplINS_17TropicalWeightTplIfEEEEEEjNS_19DefaultCompactStoreISt4pairIiS4_EjEEE4TypeB5cxx11Ev
   fun:_ZN3fst8internal14CompactFstImplINS_6ArcTplINS_17TropicalWeightTplIfEEEENS_16DefaultCompactorINS_23WeightedStringCompactorIS5_EEjNS_19DefaultCompactStoreISt4pairIiS4_EjEEEENS_17DefaultCacheStoreIS5_EEEC1Ev
   fun:_ZN9__gnu_cxx13new_allocatorIN3fst8internal14CompactFstImplINS1_6ArcTplINS1_17TropicalWeightTplIfEEEENS1_16DefaultCompactorINS1_23WeightedStringCompactorIS7_EEjNS1_19DefaultCompactStoreISt4pairIiS6_EjEEEENS1_17DefaultCacheStoreIS7_EEEEE9constructISI_JEEEvPT_DpOT0_
   fun:_ZNSt16allocator_traitsISaIN3fst8internal14CompactFstImplINS0_6ArcTplINS0_17TropicalWeightTplIfEEEENS0_16DefaultCompactorINS0_23WeightedStringCompactorIS6_EEjNS0_19DefaultCompactStoreISt4pairIiS5_EjEEEENS0_17DefaultCacheStoreIS6_EEEEEE9constructISH_JEEEvRSI_PT_DpOT0_
   fun:_ZNSt23_Sp_counted_ptr_inplaceIN3fst8internal14CompactFstImplINS0_6ArcTplINS0_17TropicalWeightTplIfEEEENS0_16DefaultCompactorINS0_23WeightedStringCompactorIS6_EEjNS0_19DefaultCompactStoreISt4pairIiS5_EjEEEENS0_17DefaultCacheStoreIS6_EEEESaISH_ELN9__gnu_cxx12_Lock_policyE2EEC1IJEEESI_DpOT_
   fun:_ZNSt14__shared_countILN9__gnu_cxx12_Lock_policyE2EEC1IN3fst8internal14CompactFstImplINS4_6ArcTplINS4_17TropicalWeightTplIfEEEENS4_16DefaultCompactorINS4_23WeightedStringCompactorISA_EEjNS4_19DefaultCompactStoreISt4pairIiS9_EjEEEENS4_17DefaultCacheStoreISA_EEEESaISL_EJEEERPT_St20_Sp_alloc_shared_tagIT0_EDpOT1_
   fun:_ZNSt12__shared_ptrIN3fst8internal14CompactFstImplINS0_6ArcTplINS0_17TropicalWeightTplIfEEEENS0_16DefaultCompactorINS0_23WeightedStringCompactorIS6_EEjNS0_19DefaultCompactStoreISt4pairIiS5_EjEEEENS0_17DefaultCacheStoreIS6_EEEELN9__gnu_cxx12_Lock_policyE2EEC1ISaISH_EJEEESt20_Sp_alloc_shared_tagIT_EDpOT0_
   fun:_ZNSt10shared_ptrIN3fst8internal14CompactFstImplINS0_6ArcTplINS0_17TropicalWeightTplIfEEEENS0_16DefaultCompactorINS0_23WeightedStringCompactorIS6_EEjNS0_19DefaultCompactStoreISt4pairIiS5_EjEEEENS0_17DefaultCacheStoreIS6_EEEEEC1ISaISH_EJEEESt20_Sp_alloc_shared_tagIT_EDpOT0_
   fun:_ZSt15allocate_sharedIN3fst8internal14CompactFstImplINS0_6ArcTplINS0_17TropicalWeightTplIfEEEENS0_16DefaultCompactorINS0_23WeightedStringCompactorIS6_EEjNS0_19DefaultCompactStoreISt4pairIiS5_EjEEEENS0_17DefaultCacheStoreIS6_EEEESaISH_EJEESt10shared_ptrIT_ERKT0_DpOT1_
}
{
   <openfst>
   Memcheck:Leak
   match-leak-kinds: reachable
   fun:_Znwm
   fun:_ZNSt7__cxx1112basic_stringIcSt11char_traitsIcESaIcEE12_M_constructIPcEEvT_S7_St20forward_iterator_tag
   fun:_ZNSt4pairINSt7__cxx1112basic_stringIcSt11char_traitsIcESaIcEEEN3fst16FstRegisterEntryINS6_6ArcTplINS6_17TropicalWeightTplIfEEEEEEEC1IS5_SC_Lb1EEERKS5_RKSC_
   fun:_ZSt9make_pairIRKNSt7__cxx1112basic_stringIcSt11char_traitsIcESaIcEEERKN3fst16FstRegisterEntryINS8_6ArcTplINS8_17TropicalWeightTplIfEEEEEEESt4pairINSt17__decay_and_stripIT_E6__typeENSI_IT0_E6__typeEEOSJ_OSM_
   fun:_ZN3fst15GenericRegisterINSt7__cxx1112basic_stringIcSt11char_traitsIcESaIcEEENS_16FstRegisterEntryINS_6ArcTplINS_17TropicalWeightTplIfEEEEEENS_11FstRegisterISB_EEE8SetEntryERKS6_RKSC_
   fun:_ZN3fst17GenericRegistererINS_11FstRegisterINS_6ArcTplINS_17TropicalWeightTplIfEEEEEEEC1ENSt7__cxx1112basic_stringIcSt11char_traitsIcESaIcEEENS_16FstRegisterEntryIS5_EE
   fun:_ZN3fst13FstRegistererINS_10CompactFstINS_6ArcTplINS_17TropicalWeightTplIfEEEENS_23WeightedStringCompactorIS5_EEjNS_19DefaultCompactStoreISt4pairIiS4_EjEENS_17DefaultCacheStoreIS5_EEEEEC1Ev
   fun:_Z41__static_initialization_and_destruction_0ii
}
{
   <openfst>
   Memcheck:Leak
   match-leak-kinds: reachable
   fun:_Znwm
   fun:_ZNSt7__cxx1112basic_stringIcSt11char_traitsIcESaIcEE12_M_constructIPcEEvT_S7_St20forward_iterator_tag
   fun:_ZZN3fst16DefaultCompactorINS_23WeightedStringCompactorINS_6ArcTplINS_12LogWeightTplIfEEEEEEjNS_19DefaultCompactStoreISt4pairIiS4_EjEEE4TypeB5cxx11EvENKUlvE_clEv
   fun:_ZN3fst16DefaultCompactorINS_23WeightedStringCompactorINS_6ArcTplINS_12LogWeightTplIfEEEEEEjNS_19DefaultCompactStoreISt4pairIiS4_EjEEE4TypeB5cxx11Ev
   fun:_ZN3fst8internal14CompactFstImplINS_6ArcTplINS_12LogWeightTplIfEEEENS_16DefaultCompactorINS_23WeightedStringCompactorIS5_EEjNS_19DefaultCompactStoreISt4pairIiS4_EjEEEENS_17DefaultCacheStoreIS5_EEEC1Ev
   fun:_ZN9__gnu_cxx13new_allocatorIN3fst8internal14CompactFstImplINS1_6ArcTplINS1_12LogWeightTplIfEEEENS1_16DefaultCompactorINS1_23WeightedStringCompactorIS7_EEjNS1_19DefaultCompactStoreISt4pairIiS6_EjEEEENS1_17DefaultCacheStoreIS7_EEEEE9constructISI_JEEEvPT_DpOT0_
   fun:_ZNSt16allocator_traitsISaIN3fst8internal14CompactFstImplINS0_6ArcTplINS0_12LogWeightTplIfEEEENS0_16DefaultCompactorINS0_23WeightedStringCompactorIS6_EEjNS0_19DefaultCompactStoreISt4pairIiS5_EjEEEENS0_17DefaultCacheStoreIS6_EEEEEE9constructISH_JEEEvRSI_PT_DpOT0_
   fun:_ZNSt23_Sp_counted_ptr_inplaceIN3fst8internal14CompactFstImplINS0_6ArcTplINS0_12LogWeightTplIfEEEENS0_16DefaultCompactorINS0_23WeightedStringCompactorIS6_EEjNS0_19DefaultCompactStoreISt4pairIiS5_EjEEEENS0_17DefaultCacheStoreIS6_EEEESaISH_ELN9__gnu_cxx12_Lock_policyE2EEC1IJEEESI_DpOT_
   fun:_ZNSt14__shared_countILN9__gnu_cxx12_Lock_policyE2EEC1IN3fst8internal14CompactFstImplINS4_6ArcTplINS4_12LogWeightTplIfEEEENS4_16DefaultCompactorINS4_23WeightedStringCompactorISA_EEjNS4_19DefaultCompactStoreISt4pairIiS9_EjEEEENS4_17DefaultCacheStoreISA_EEEESaISL_EJEEERPT_St20_Sp_alloc_shared_tagIT0_EDpOT1_
   fun:_ZNSt12__shared_ptrIN3fst8internal14CompactFstImplINS0_6ArcTplINS0_12LogWeightTplIfEEEENS0_16DefaultCompactorINS0_23WeightedStringCompactorIS6_EEjNS0_19DefaultCompactStoreISt4pairIiS5_EjEEEENS0_17DefaultCacheStoreIS6_EEEELN9__gnu_cxx12_Lock_policyE2EEC1ISaISH_EJEEESt20_Sp_alloc_shared_tagIT_EDpOT0_
   fun:_ZNSt10shared_ptrIN3fst8internal14CompactFstImplINS0_6ArcTplINS0_12LogWeightTplIfEEEENS0_16DefaultCompactorINS0_23WeightedStringCompactorIS6_EEjNS0_19DefaultCompactStoreISt4pairIiS5_EjEEEENS0_17DefaultCacheStoreIS6_EEEEEC1ISaISH_EJEEESt20_Sp_alloc_shared_tagIT_EDpOT0_
   fun:_ZSt15allocate_sharedIN3fst8internal14CompactFstImplINS0_6ArcTplINS0_12LogWeightTplIfEEEENS0_16DefaultCompactorINS0_23WeightedStringCompactorIS6_EEjNS0_19DefaultCompactStoreISt4pairIiS5_EjEEEENS0_17DefaultCacheStoreIS6_EEEESaISH_EJEESt10shared_ptrIT_ERKT0_DpOT1_
}
{
   <openfst>
   Memcheck:Leak
   match-leak-kinds: reachable
   fun:_Znwm
   fun:_ZNSt7__cxx1112basic_stringIcSt11char_traitsIcESaIcEE12_M_constructIPcEEvT_S7_St20forward_iterator_tag
   fun:_ZNSt4pairINSt7__cxx1112basic_stringIcSt11char_traitsIcESaIcEEEN3fst16FstRegisterEntryINS6_6ArcTplINS6_12LogWeightTplIfEEEEEEEC1IS5_SC_Lb1EEERKS5_RKSC_
   fun:_ZSt9make_pairIRKNSt7__cxx1112basic_stringIcSt11char_traitsIcESaIcEEERKN3fst16FstRegisterEntryINS8_6ArcTplINS8_12LogWeightTplIfEEEEEEESt4pairINSt17__decay_and_stripIT_E6__typeENSI_IT0_E6__typeEEOSJ_OSM_
   fun:_ZN3fst15GenericRegisterINSt7__cxx1112basic_stringIcSt11char_traitsIcESaIcEEENS_16FstRegisterEntryINS_6ArcTplINS_12LogWeightTplIfEEEEEENS_11FstRegisterISB_EEE8SetEntryERKS6_RKSC_
   fun:_ZN3fst17GenericRegistererINS_11FstRegisterINS_6ArcTplINS_12LogWeightTplIfEEEEEEEC1ENSt7__cxx1112basic_stringIcSt11char_traitsIcESaIcEEENS_16FstRegisterEntryIS5_EE
   fun:_ZN3fst13FstRegistererINS_10CompactFstINS_6ArcTplINS_12LogWeightTplIfEEEENS_23WeightedStringCompactorIS5_EEjNS_19DefaultCompactStoreISt4pairIiS4_EjEENS_17DefaultCacheStoreIS5_EEEEEC1Ev
   fun:_Z41__static_initialization_and_destruction_0ii
}
{
   <openfst>
   Memcheck:Leak
   match-leak-kinds: reachable
   fun:_Znwm
   fun:_ZNSt7__cxx1112basic_stringIcSt11char_traitsIcESaIcEE12_M_constructIPcEEvT_S7_St20forward_iterator_tag
   fun:_ZNSt4pairINSt7__cxx1112basic_stringIcSt11char_traitsIcESaIcEEE15FlagDescriptionIlEEC1IS5_S7_Lb1EEERKS5_RKS7_
   fun:_ZSt9make_pairIRKNSt7__cxx1112basic_stringIcSt11char_traitsIcESaIcEEERK15FlagDescriptionIlEESt4pairINSt17__decay_and_stripIT_E6__typeENSD_IT0_E6__typeEEOSE_OSH_
   fun:_ZN12FlagRegisterIlE14SetDescriptionERKNSt7__cxx1112basic_stringIcSt11char_traitsIcESaIcEEERK15FlagDescriptionIlE
   fun:_ZN14FlagRegistererIlEC1ERKNSt7__cxx1112basic_stringIcSt11char_traitsIcESaIcEEERK15FlagDescriptionIlE
   fun:_Z41__static_initialization_and_destruction_0ii
}
{
   <openfst>
   Memcheck:Leak
   match-leak-kinds: reachable
   fun:_Znwm
   fun:_ZNSt7__cxx1112basic_stringIcSt11char_traitsIcESaIcEE12_M_constructIPcEEvT_S7_St20forward_iterator_tag
   fun:_ZZN3fst16DefaultCompactorINS_27UnweightedAcceptorCompactorINS_6ArcTplINS_17TropicalWeightTplIfEEEEEEjNS_19DefaultCompactStoreISt4pairIiiEjEEE4TypeB5cxx11EvENKUlvE_clEv
   fun:_ZN3fst16DefaultCompactorINS_27UnweightedAcceptorCompactorINS_6ArcTplINS_17TropicalWeightTplIfEEEEEEjNS_19DefaultCompactStoreISt4pairIiiEjEEE4TypeB5cxx11Ev
   fun:_ZN3fst8internal14CompactFstImplINS_6ArcTplINS_17TropicalWeightTplIfEEEENS_16DefaultCompactorINS_27UnweightedAcceptorCompactorIS5_EEjNS_19DefaultCompactStoreISt4pairIiiEjEEEENS_17DefaultCacheStoreIS5_EEEC1Ev
   fun:_ZN9__gnu_cxx13new_allocatorIN3fst8internal14CompactFstImplINS1_6ArcTplINS1_17TropicalWeightTplIfEEEENS1_16DefaultCompactorINS1_27UnweightedAcceptorCompactorIS7_EEjNS1_19DefaultCompactStoreISt4pairIiiEjEEEENS1_17DefaultCacheStoreIS7_EEEEE9constructISI_JEEEvPT_DpOT0_
   fun:_ZNSt16allocator_traitsISaIN3fst8internal14CompactFstImplINS0_6ArcTplINS0_17TropicalWeightTplIfEEEENS0_16DefaultCompactorINS0_27UnweightedAcceptorCompactorIS6_EEjNS0_19DefaultCompactStoreISt4pairIiiEjEEEENS0_17DefaultCacheStoreIS6_EEEEEE9constructISH_JEEEvRSI_PT_DpOT0_
   fun:_ZNSt23_Sp_counted_ptr_inplaceIN3fst8internal14CompactFstImplINS0_6ArcTplINS0_17TropicalWeightTplIfEEEENS0_16DefaultCompactorINS0_27UnweightedAcceptorCompactorIS6_EEjNS0_19DefaultCompactStoreISt4pairIiiEjEEEENS0_17DefaultCacheStoreIS6_EEEESaISH_ELN9__gnu_cxx12_Lock_policyE2EEC1IJEEESI_DpOT_
   fun:_ZNSt14__shared_countILN9__gnu_cxx12_Lock_policyE2EEC1IN3fst8internal14CompactFstImplINS4_6ArcTplINS4_17TropicalWeightTplIfEEEENS4_16DefaultCompactorINS4_27UnweightedAcceptorCompactorISA_EEjNS4_19DefaultCompactStoreISt4pairIiiEjEEEENS4_17DefaultCacheStoreISA_EEEESaISL_EJEEERPT_St20_Sp_alloc_shared_tagIT0_EDpOT1_
   fun:_ZNSt12__shared_ptrIN3fst8internal14CompactFstImplINS0_6ArcTplINS0_17TropicalWeightTplIfEEEENS0_16DefaultCompactorINS0_27UnweightedAcceptorCompactorIS6_EEjNS0_19DefaultCompactStoreISt4pairIiiEjEEEENS0_17DefaultCacheStoreIS6_EEEELN9__gnu_cxx12_Lock_policyE2EEC1ISaISH_EJEEESt20_Sp_alloc_shared_tagIT_EDpOT0_
   fun:_ZNSt10shared_ptrIN3fst8internal14CompactFstImplINS0_6ArcTplINS0_17TropicalWeightTplIfEEEENS0_16DefaultCompactorINS0_27UnweightedAcceptorCompactorIS6_EEjNS0_19DefaultCompactStoreISt4pairIiiEjEEEENS0_17DefaultCacheStoreIS6_EEEEEC1ISaISH_EJEEESt20_Sp_alloc_shared_tagIT_EDpOT0_
   fun:_ZSt15allocate_sharedIN3fst8internal14CompactFstImplINS0_6ArcTplINS0_17TropicalWeightTplIfEEEENS0_16DefaultCompactorINS0_27UnweightedAcceptorCompactorIS6_EEjNS0_19DefaultCompactStoreISt4pairIiiEjEEEENS0_17DefaultCacheStoreIS6_EEEESaISH_EJEESt10shared_ptrIT_ERKT0_DpOT1_
}
{
   <openfst>
   Memcheck:Leak
   match-leak-kinds: reachable
   fun:_Znwm
   fun:_ZNSt7__cxx1112basic_stringIcSt11char_traitsIcESaIcEE12_M_constructIPcEEvT_S7_St20forward_iterator_tag
   fun:_ZNSt4pairINSt7__cxx1112basic_stringIcSt11char_traitsIcESaIcEEEN3fst16FstRegisterEntryINS6_6ArcTplINS6_17TropicalWeightTplIfEEEEEEEC1IS5_SC_Lb1EEERKS5_RKSC_
   fun:_ZSt9make_pairIRKNSt7__cxx1112basic_stringIcSt11char_traitsIcESaIcEEERKN3fst16FstRegisterEntryINS8_6ArcTplINS8_17TropicalWeightTplIfEEEEEEESt4pairINSt17__decay_and_stripIT_E6__typeENSI_IT0_E6__typeEEOSJ_OSM_
   fun:_ZN3fst15GenericRegisterINSt7__cxx1112basic_stringIcSt11char_traitsIcESaIcEEENS_16FstRegisterEntryINS_6ArcTplINS_17TropicalWeightTplIfEEEEEENS_11FstRegisterISB_EEE8SetEntryERKS6_RKSC_
   fun:_ZN3fst17GenericRegistererINS_11FstRegisterINS_6ArcTplINS_17TropicalWeightTplIfEEEEEEEC1ENSt7__cxx1112basic_stringIcSt11char_traitsIcESaIcEEENS_16FstRegisterEntryIS5_EE
   fun:_ZN3fst13FstRegistererINS_10CompactFstINS_6ArcTplINS_17TropicalWeightTplIfEEEENS_27UnweightedAcceptorCompactorIS5_EEjNS_19DefaultCompactStoreISt4pairIiiEjEENS_17DefaultCacheStoreIS5_EEEEEC1Ev
   fun:_Z41__static_initialization_and_destruction_0ii
}
{
   <openfst>
   Memcheck:Leak
   match-leak-kinds: reachable
   fun:_Znwm
   fun:_ZNSt7__cxx1112basic_stringIcSt11char_traitsIcESaIcEE12_M_constructIPcEEvT_S7_St20forward_iterator_tag
   fun:_ZZN3fst16DefaultCompactorINS_27UnweightedAcceptorCompactorINS_6ArcTplINS_12LogWeightTplIfEEEEEEjNS_19DefaultCompactStoreISt4pairIiiEjEEE4TypeB5cxx11EvENKUlvE_clEv
   fun:_ZN3fst16DefaultCompactorINS_27UnweightedAcceptorCompactorINS_6ArcTplINS_12LogWeightTplIfEEEEEEjNS_19DefaultCompactStoreISt4pairIiiEjEEE4TypeB5cxx11Ev
   fun:_ZN3fst8internal14CompactFstImplINS_6ArcTplINS_12LogWeightTplIfEEEENS_16DefaultCompactorINS_27UnweightedAcceptorCompactorIS5_EEjNS_19DefaultCompactStoreISt4pairIiiEjEEEENS_17DefaultCacheStoreIS5_EEEC1Ev
   fun:_ZN9__gnu_cxx13new_allocatorIN3fst8internal14CompactFstImplINS1_6ArcTplINS1_12LogWeightTplIfEEEENS1_16DefaultCompactorINS1_27UnweightedAcceptorCompactorIS7_EEjNS1_19DefaultCompactStoreISt4pairIiiEjEEEENS1_17DefaultCacheStoreIS7_EEEEE9constructISI_JEEEvPT_DpOT0_
   fun:_ZNSt16allocator_traitsISaIN3fst8internal14CompactFstImplINS0_6ArcTplINS0_12LogWeightTplIfEEEENS0_16DefaultCompactorINS0_27UnweightedAcceptorCompactorIS6_EEjNS0_19DefaultCompactStoreISt4pairIiiEjEEEENS0_17DefaultCacheStoreIS6_EEEEEE9constructISH_JEEEvRSI_PT_DpOT0_
   fun:_ZNSt23_Sp_counted_ptr_inplaceIN3fst8internal14CompactFstImplINS0_6ArcTplINS0_12LogWeightTplIfEEEENS0_16DefaultCompactorINS0_27UnweightedAcceptorCompactorIS6_EEjNS0_19DefaultCompactStoreISt4pairIiiEjEEEENS0_17DefaultCacheStoreIS6_EEEESaISH_ELN9__gnu_cxx12_Lock_policyE2EEC1IJEEESI_DpOT_
   fun:_ZNSt14__shared_countILN9__gnu_cxx12_Lock_policyE2EEC1IN3fst8internal14CompactFstImplINS4_6ArcTplINS4_12LogWeightTplIfEEEENS4_16DefaultCompactorINS4_27UnweightedAcceptorCompactorISA_EEjNS4_19DefaultCompactStoreISt4pairIiiEjEEEENS4_17DefaultCacheStoreISA_EEEESaISL_EJEEERPT_St20_Sp_alloc_shared_tagIT0_EDpOT1_
   fun:_ZNSt12__shared_ptrIN3fst8internal14CompactFstImplINS0_6ArcTplINS0_12LogWeightTplIfEEEENS0_16DefaultCompactorINS0_27UnweightedAcceptorCompactorIS6_EEjNS0_19DefaultCompactStoreISt4pairIiiEjEEEENS0_17DefaultCacheStoreIS6_EEEELN9__gnu_cxx12_Lock_policyE2EEC1ISaISH_EJEEESt20_Sp_alloc_shared_tagIT_EDpOT0_
   fun:_ZNSt10shared_ptrIN3fst8internal14CompactFstImplINS0_6ArcTplINS0_12LogWeightTplIfEEEENS0_16DefaultCompactorINS0_27UnweightedAcceptorCompactorIS6_EEjNS0_19DefaultCompactStoreISt4pairIiiEjEEEENS0_17DefaultCacheStoreIS6_EEEEEC1ISaISH_EJEEESt20_Sp_alloc_shared_tagIT_EDpOT0_
   fun:_ZSt15allocate_sharedIN3fst8internal14CompactFstImplINS0_6ArcTplINS0_12LogWeightTplIfEEEENS0_16DefaultCompactorINS0_27UnweightedAcceptorCompactorIS6_EEjNS0_19DefaultCompactStoreISt4pairIiiEjEEEENS0_17DefaultCacheStoreIS6_EEEESaISH_EJEESt10shared_ptrIT_ERKT0_DpOT1_
}
{
   <openfst>
   Memcheck:Leak
   match-leak-kinds: reachable
   fun:_Znwm
   fun:_ZNSt7__cxx1112basic_stringIcSt11char_traitsIcESaIcEE12_M_constructIPcEEvT_S7_St20forward_iterator_tag
   fun:_ZNSt4pairINSt7__cxx1112basic_stringIcSt11char_traitsIcESaIcEEEN3fst16FstRegisterEntryINS6_6ArcTplINS6_12LogWeightTplIfEEEEEEEC1IS5_SC_Lb1EEERKS5_RKSC_
   fun:_ZSt9make_pairIRKNSt7__cxx1112basic_stringIcSt11char_traitsIcESaIcEEERKN3fst16FstRegisterEntryINS8_6ArcTplINS8_12LogWeightTplIfEEEEEEESt4pairINSt17__decay_and_stripIT_E6__typeENSI_IT0_E6__typeEEOSJ_OSM_
   fun:_ZN3fst15GenericRegisterINSt7__cxx1112basic_stringIcSt11char_traitsIcESaIcEEENS_16FstRegisterEntryINS_6ArcTplINS_12LogWeightTplIfEEEEEENS_11FstRegisterISB_EEE8SetEntryERKS6_RKSC_
   fun:_ZN3fst17GenericRegistererINS_11FstRegisterINS_6ArcTplINS_12LogWeightTplIfEEEEEEEC1ENSt7__cxx1112basic_stringIcSt11char_traitsIcESaIcEEENS_16FstRegisterEntryIS5_EE
   fun:_ZN3fst13FstRegistererINS_10CompactFstINS_6ArcTplINS_12LogWeightTplIfEEEENS_27UnweightedAcceptorCompactorIS5_EEjNS_19DefaultCompactStoreISt4pairIiiEjEENS_17DefaultCacheStoreIS5_EEEEEC1Ev
   fun:_Z41__static_initialization_and_destruction_0ii
}
{
   <openfst>
   Memcheck:Leak
   match-leak-kinds: reachable
   fun:_Znwm
   fun:_ZN3fst15StringCompactorINS_6ArcTplINS_17TropicalWeightTplIfEEEEE4TypeB5cxx11Ev
   fun:_ZZN3fst16DefaultCompactorINS_15StringCompactorINS_6ArcTplINS_17TropicalWeightTplIfEEEEEEjNS_19DefaultCompactStoreIijEEE4TypeB5cxx11EvENKUlvE_clEv
   fun:_ZN3fst16DefaultCompactorINS_15StringCompactorINS_6ArcTplINS_17TropicalWeightTplIfEEEEEEjNS_19DefaultCompactStoreIijEEE4TypeB5cxx11Ev
   fun:_ZN3fst8internal14CompactFstImplINS_6ArcTplINS_17TropicalWeightTplIfEEEENS_16DefaultCompactorINS_15StringCompactorIS5_EEjNS_19DefaultCompactStoreIijEEEENS_17DefaultCacheStoreIS5_EEEC1Ev
   fun:_ZN9__gnu_cxx13new_allocatorIN3fst8internal14CompactFstImplINS1_6ArcTplINS1_17TropicalWeightTplIfEEEENS1_16DefaultCompactorINS1_15StringCompactorIS7_EEjNS1_19DefaultCompactStoreIijEEEENS1_17DefaultCacheStoreIS7_EEEEE9constructISG_JEEEvPT_DpOT0_
   fun:_ZNSt16allocator_traitsISaIN3fst8internal14CompactFstImplINS0_6ArcTplINS0_17TropicalWeightTplIfEEEENS0_16DefaultCompactorINS0_15StringCompactorIS6_EEjNS0_19DefaultCompactStoreIijEEEENS0_17DefaultCacheStoreIS6_EEEEEE9constructISF_JEEEvRSG_PT_DpOT0_
   fun:_ZNSt23_Sp_counted_ptr_inplaceIN3fst8internal14CompactFstImplINS0_6ArcTplINS0_17TropicalWeightTplIfEEEENS0_16DefaultCompactorINS0_15StringCompactorIS6_EEjNS0_19DefaultCompactStoreIijEEEENS0_17DefaultCacheStoreIS6_EEEESaISF_ELN9__gnu_cxx12_Lock_policyE2EEC1IJEEESG_DpOT_
   fun:_ZNSt14__shared_countILN9__gnu_cxx12_Lock_policyE2EEC1IN3fst8internal14CompactFstImplINS4_6ArcTplINS4_17TropicalWeightTplIfEEEENS4_16DefaultCompactorINS4_15StringCompactorISA_EEjNS4_19DefaultCompactStoreIijEEEENS4_17DefaultCacheStoreISA_EEEESaISJ_EJEEERPT_St20_Sp_alloc_shared_tagIT0_EDpOT1_
   fun:_ZNSt12__shared_ptrIN3fst8internal14CompactFstImplINS0_6ArcTplINS0_17TropicalWeightTplIfEEEENS0_16DefaultCompactorINS0_15StringCompactorIS6_EEjNS0_19DefaultCompactStoreIijEEEENS0_17DefaultCacheStoreIS6_EEEELN9__gnu_cxx12_Lock_policyE2EEC1ISaISF_EJEEESt20_Sp_alloc_shared_tagIT_EDpOT0_
   fun:_ZNSt10shared_ptrIN3fst8internal14CompactFstImplINS0_6ArcTplINS0_17TropicalWeightTplIfEEEENS0_16DefaultCompactorINS0_15StringCompactorIS6_EEjNS0_19DefaultCompactStoreIijEEEENS0_17DefaultCacheStoreIS6_EEEEEC1ISaISF_EJEEESt20_Sp_alloc_shared_tagIT_EDpOT0_
   fun:_ZSt15allocate_sharedIN3fst8internal14CompactFstImplINS0_6ArcTplINS0_17TropicalWeightTplIfEEEENS0_16DefaultCompactorINS0_15StringCompactorIS6_EEjNS0_19DefaultCompactStoreIijEEEENS0_17DefaultCacheStoreIS6_EEEESaISF_EJEESt10shared_ptrIT_ERKT0_DpOT1_
}
{
   <openfst>
   Memcheck:Leak
   match-leak-kinds: reachable
   fun:_Znwm
   fun:_ZN3fst19DefaultCompactStoreIijE4TypeB5cxx11Ev
   fun:_ZZN3fst16DefaultCompactorINS_15StringCompactorINS_6ArcTplINS_17TropicalWeightTplIfEEEEEEjNS_19DefaultCompactStoreIijEEE4TypeB5cxx11EvENKUlvE_clEv
   fun:_ZN3fst16DefaultCompactorINS_15StringCompactorINS_6ArcTplINS_17TropicalWeightTplIfEEEEEEjNS_19DefaultCompactStoreIijEEE4TypeB5cxx11Ev
   fun:_ZN3fst8internal14CompactFstImplINS_6ArcTplINS_17TropicalWeightTplIfEEEENS_16DefaultCompactorINS_15StringCompactorIS5_EEjNS_19DefaultCompactStoreIijEEEENS_17DefaultCacheStoreIS5_EEEC1Ev
   fun:_ZN9__gnu_cxx13new_allocatorIN3fst8internal14CompactFstImplINS1_6ArcTplINS1_17TropicalWeightTplIfEEEENS1_16DefaultCompactorINS1_15StringCompactorIS7_EEjNS1_19DefaultCompactStoreIijEEEENS1_17DefaultCacheStoreIS7_EEEEE9constructISG_JEEEvPT_DpOT0_
   fun:_ZNSt16allocator_traitsISaIN3fst8internal14CompactFstImplINS0_6ArcTplINS0_17TropicalWeightTplIfEEEENS0_16DefaultCompactorINS0_15StringCompactorIS6_EEjNS0_19DefaultCompactStoreIijEEEENS0_17DefaultCacheStoreIS6_EEEEEE9constructISF_JEEEvRSG_PT_DpOT0_
   fun:_ZNSt23_Sp_counted_ptr_inplaceIN3fst8internal14CompactFstImplINS0_6ArcTplINS0_17TropicalWeightTplIfEEEENS0_16DefaultCompactorINS0_15StringCompactorIS6_EEjNS0_19DefaultCompactStoreIijEEEENS0_17DefaultCacheStoreIS6_EEEESaISF_ELN9__gnu_cxx12_Lock_policyE2EEC1IJEEESG_DpOT_
   fun:_ZNSt14__shared_countILN9__gnu_cxx12_Lock_policyE2EEC1IN3fst8internal14CompactFstImplINS4_6ArcTplINS4_17TropicalWeightTplIfEEEENS4_16DefaultCompactorINS4_15StringCompactorISA_EEjNS4_19DefaultCompactStoreIijEEEENS4_17DefaultCacheStoreISA_EEEESaISJ_EJEEERPT_St20_Sp_alloc_shared_tagIT0_EDpOT1_
   fun:_ZNSt12__shared_ptrIN3fst8internal14CompactFstImplINS0_6ArcTplINS0_17TropicalWeightTplIfEEEENS0_16DefaultCompactorINS0_15StringCompactorIS6_EEjNS0_19DefaultCompactStoreIijEEEENS0_17DefaultCacheStoreIS6_EEEELN9__gnu_cxx12_Lock_policyE2EEC1ISaISF_EJEEESt20_Sp_alloc_shared_tagIT_EDpOT0_
   fun:_ZNSt10shared_ptrIN3fst8internal14CompactFstImplINS0_6ArcTplINS0_17TropicalWeightTplIfEEEENS0_16DefaultCompactorINS0_15StringCompactorIS6_EEjNS0_19DefaultCompactStoreIijEEEENS0_17DefaultCacheStoreIS6_EEEEEC1ISaISF_EJEEESt20_Sp_alloc_shared_tagIT_EDpOT0_
   fun:_ZSt15allocate_sharedIN3fst8internal14CompactFstImplINS0_6ArcTplINS0_17TropicalWeightTplIfEEEENS0_16DefaultCompactorINS0_15StringCompactorIS6_EEjNS0_19DefaultCompactStoreIijEEEENS0_17DefaultCacheStoreIS6_EEEESaISF_EJEESt10shared_ptrIT_ERKT0_DpOT1_
}
{
   <openfst>
   Memcheck:Leak
   match-leak-kinds: reachable
   fun:_Znwm
   fun:_ZZN3fst16DefaultCompactorINS_15StringCompactorINS_6ArcTplINS_17TropicalWeightTplIfEEEEEEjNS_19DefaultCompactStoreIijEEE4TypeB5cxx11EvENKUlvE_clEv
   fun:_ZN3fst16DefaultCompactorINS_15StringCompactorINS_6ArcTplINS_17TropicalWeightTplIfEEEEEEjNS_19DefaultCompactStoreIijEEE4TypeB5cxx11Ev
   fun:_ZN3fst8internal14CompactFstImplINS_6ArcTplINS_17TropicalWeightTplIfEEEENS_16DefaultCompactorINS_15StringCompactorIS5_EEjNS_19DefaultCompactStoreIijEEEENS_17DefaultCacheStoreIS5_EEEC1Ev
   fun:_ZN9__gnu_cxx13new_allocatorIN3fst8internal14CompactFstImplINS1_6ArcTplINS1_17TropicalWeightTplIfEEEENS1_16DefaultCompactorINS1_15StringCompactorIS7_EEjNS1_19DefaultCompactStoreIijEEEENS1_17DefaultCacheStoreIS7_EEEEE9constructISG_JEEEvPT_DpOT0_
   fun:_ZNSt16allocator_traitsISaIN3fst8internal14CompactFstImplINS0_6ArcTplINS0_17TropicalWeightTplIfEEEENS0_16DefaultCompactorINS0_15StringCompactorIS6_EEjNS0_19DefaultCompactStoreIijEEEENS0_17DefaultCacheStoreIS6_EEEEEE9constructISF_JEEEvRSG_PT_DpOT0_
   fun:_ZNSt23_Sp_counted_ptr_inplaceIN3fst8internal14CompactFstImplINS0_6ArcTplINS0_17TropicalWeightTplIfEEEENS0_16DefaultCompactorINS0_15StringCompactorIS6_EEjNS0_19DefaultCompactStoreIijEEEENS0_17DefaultCacheStoreIS6_EEEESaISF_ELN9__gnu_cxx12_Lock_policyE2EEC1IJEEESG_DpOT_
   fun:_ZNSt14__shared_countILN9__gnu_cxx12_Lock_policyE2EEC1IN3fst8internal14CompactFstImplINS4_6ArcTplINS4_17TropicalWeightTplIfEEEENS4_16DefaultCompactorINS4_15StringCompactorISA_EEjNS4_19DefaultCompactStoreIijEEEENS4_17DefaultCacheStoreISA_EEEESaISJ_EJEEERPT_St20_Sp_alloc_shared_tagIT0_EDpOT1_
   fun:_ZNSt12__shared_ptrIN3fst8internal14CompactFstImplINS0_6ArcTplINS0_17TropicalWeightTplIfEEEENS0_16DefaultCompactorINS0_15StringCompactorIS6_EEjNS0_19DefaultCompactStoreIijEEEENS0_17DefaultCacheStoreIS6_EEEELN9__gnu_cxx12_Lock_policyE2EEC1ISaISF_EJEEESt20_Sp_alloc_shared_tagIT_EDpOT0_
   fun:_ZNSt10shared_ptrIN3fst8internal14CompactFstImplINS0_6ArcTplINS0_17TropicalWeightTplIfEEEENS0_16DefaultCompactorINS0_15StringCompactorIS6_EEjNS0_19DefaultCompactStoreIijEEEENS0_17DefaultCacheStoreIS6_EEEEEC1ISaISF_EJEEESt20_Sp_alloc_shared_tagIT_EDpOT0_
   fun:_ZSt15allocate_sharedIN3fst8internal14CompactFstImplINS0_6ArcTplINS0_17TropicalWeightTplIfEEEENS0_16DefaultCompactorINS0_15StringCompactorIS6_EEjNS0_19DefaultCompactStoreIijEEEENS0_17DefaultCacheStoreIS6_EEEESaISF_EJEESt10shared_ptrIT_ERKT0_DpOT1_
   fun:_ZSt11make_sharedIN3fst8internal14CompactFstImplINS0_6ArcTplINS0_17TropicalWeightTplIfEEEENS0_16DefaultCompactorINS0_15StringCompactorIS6_EEjNS0_19DefaultCompactStoreIijEEEENS0_17DefaultCacheStoreIS6_EEEEJEESt10shared_ptrIT_EDpOT0_
}
{
   <openfst>
   Memcheck:Leak
   match-leak-kinds: reachable
   fun:_Znwm
   fun:_ZN3fst15StringCompactorINS_6ArcTplINS_12LogWeightTplIfEEEEE4TypeB5cxx11Ev
   fun:_ZZN3fst16DefaultCompactorINS_15StringCompactorINS_6ArcTplINS_12LogWeightTplIfEEEEEEjNS_19DefaultCompactStoreIijEEE4TypeB5cxx11EvENKUlvE_clEv
   fun:_ZN3fst16DefaultCompactorINS_15StringCompactorINS_6ArcTplINS_12LogWeightTplIfEEEEEEjNS_19DefaultCompactStoreIijEEE4TypeB5cxx11Ev
   fun:_ZN3fst8internal14CompactFstImplINS_6ArcTplINS_12LogWeightTplIfEEEENS_16DefaultCompactorINS_15StringCompactorIS5_EEjNS_19DefaultCompactStoreIijEEEENS_17DefaultCacheStoreIS5_EEEC1Ev
   fun:_ZN9__gnu_cxx13new_allocatorIN3fst8internal14CompactFstImplINS1_6ArcTplINS1_12LogWeightTplIfEEEENS1_16DefaultCompactorINS1_15StringCompactorIS7_EEjNS1_19DefaultCompactStoreIijEEEENS1_17DefaultCacheStoreIS7_EEEEE9constructISG_JEEEvPT_DpOT0_
   fun:_ZNSt16allocator_traitsISaIN3fst8internal14CompactFstImplINS0_6ArcTplINS0_12LogWeightTplIfEEEENS0_16DefaultCompactorINS0_15StringCompactorIS6_EEjNS0_19DefaultCompactStoreIijEEEENS0_17DefaultCacheStoreIS6_EEEEEE9constructISF_JEEEvRSG_PT_DpOT0_
   fun:_ZNSt23_Sp_counted_ptr_inplaceIN3fst8internal14CompactFstImplINS0_6ArcTplINS0_12LogWeightTplIfEEEENS0_16DefaultCompactorINS0_15StringCompactorIS6_EEjNS0_19DefaultCompactStoreIijEEEENS0_17DefaultCacheStoreIS6_EEEESaISF_ELN9__gnu_cxx12_Lock_policyE2EEC1IJEEESG_DpOT_
   fun:_ZNSt14__shared_countILN9__gnu_cxx12_Lock_policyE2EEC1IN3fst8internal14CompactFstImplINS4_6ArcTplINS4_12LogWeightTplIfEEEENS4_16DefaultCompactorINS4_15StringCompactorISA_EEjNS4_19DefaultCompactStoreIijEEEENS4_17DefaultCacheStoreISA_EEEESaISJ_EJEEERPT_St20_Sp_alloc_shared_tagIT0_EDpOT1_
   fun:_ZNSt12__shared_ptrIN3fst8internal14CompactFstImplINS0_6ArcTplINS0_12LogWeightTplIfEEEENS0_16DefaultCompactorINS0_15StringCompactorIS6_EEjNS0_19DefaultCompactStoreIijEEEENS0_17DefaultCacheStoreIS6_EEEELN9__gnu_cxx12_Lock_policyE2EEC1ISaISF_EJEEESt20_Sp_alloc_shared_tagIT_EDpOT0_
   fun:_ZNSt10shared_ptrIN3fst8internal14CompactFstImplINS0_6ArcTplINS0_12LogWeightTplIfEEEENS0_16DefaultCompactorINS0_15StringCompactorIS6_EEjNS0_19DefaultCompactStoreIijEEEENS0_17DefaultCacheStoreIS6_EEEEEC1ISaISF_EJEEESt20_Sp_alloc_shared_tagIT_EDpOT0_
   fun:_ZSt15allocate_sharedIN3fst8internal14CompactFstImplINS0_6ArcTplINS0_12LogWeightTplIfEEEENS0_16DefaultCompactorINS0_15StringCompactorIS6_EEjNS0_19DefaultCompactStoreIijEEEENS0_17DefaultCacheStoreIS6_EEEESaISF_EJEESt10shared_ptrIT_ERKT0_DpOT1_
}
{
   <openfst>
   Memcheck:Leak
   match-leak-kinds: reachable
   fun:_Znwm
   fun:_ZZN3fst16DefaultCompactorINS_15StringCompactorINS_6ArcTplINS_12LogWeightTplIfEEEEEEjNS_19DefaultCompactStoreIijEEE4TypeB5cxx11EvENKUlvE_clEv
   fun:_ZN3fst16DefaultCompactorINS_15StringCompactorINS_6ArcTplINS_12LogWeightTplIfEEEEEEjNS_19DefaultCompactStoreIijEEE4TypeB5cxx11Ev
   fun:_ZN3fst8internal14CompactFstImplINS_6ArcTplINS_12LogWeightTplIfEEEENS_16DefaultCompactorINS_15StringCompactorIS5_EEjNS_19DefaultCompactStoreIijEEEENS_17DefaultCacheStoreIS5_EEEC1Ev
   fun:_ZN9__gnu_cxx13new_allocatorIN3fst8internal14CompactFstImplINS1_6ArcTplINS1_12LogWeightTplIfEEEENS1_16DefaultCompactorINS1_15StringCompactorIS7_EEjNS1_19DefaultCompactStoreIijEEEENS1_17DefaultCacheStoreIS7_EEEEE9constructISG_JEEEvPT_DpOT0_
   fun:_ZNSt16allocator_traitsISaIN3fst8internal14CompactFstImplINS0_6ArcTplINS0_12LogWeightTplIfEEEENS0_16DefaultCompactorINS0_15StringCompactorIS6_EEjNS0_19DefaultCompactStoreIijEEEENS0_17DefaultCacheStoreIS6_EEEEEE9constructISF_JEEEvRSG_PT_DpOT0_
   fun:_ZNSt23_Sp_counted_ptr_inplaceIN3fst8internal14CompactFstImplINS0_6ArcTplINS0_12LogWeightTplIfEEEENS0_16DefaultCompactorINS0_15StringCompactorIS6_EEjNS0_19DefaultCompactStoreIijEEEENS0_17DefaultCacheStoreIS6_EEEESaISF_ELN9__gnu_cxx12_Lock_policyE2EEC1IJEEESG_DpOT_
   fun:_ZNSt14__shared_countILN9__gnu_cxx12_Lock_policyE2EEC1IN3fst8internal14CompactFstImplINS4_6ArcTplINS4_12LogWeightTplIfEEEENS4_16DefaultCompactorINS4_15StringCompactorISA_EEjNS4_19DefaultCompactStoreIijEEEENS4_17DefaultCacheStoreISA_EEEESaISJ_EJEEERPT_St20_Sp_alloc_shared_tagIT0_EDpOT1_
   fun:_ZNSt12__shared_ptrIN3fst8internal14CompactFstImplINS0_6ArcTplINS0_12LogWeightTplIfEEEENS0_16DefaultCompactorINS0_15StringCompactorIS6_EEjNS0_19DefaultCompactStoreIijEEEENS0_17DefaultCacheStoreIS6_EEEELN9__gnu_cxx12_Lock_policyE2EEC1ISaISF_EJEEESt20_Sp_alloc_shared_tagIT_EDpOT0_
   fun:_ZNSt10shared_ptrIN3fst8internal14CompactFstImplINS0_6ArcTplINS0_12LogWeightTplIfEEEENS0_16DefaultCompactorINS0_15StringCompactorIS6_EEjNS0_19DefaultCompactStoreIijEEEENS0_17DefaultCacheStoreIS6_EEEEEC1ISaISF_EJEEESt20_Sp_alloc_shared_tagIT_EDpOT0_
   fun:_ZSt15allocate_sharedIN3fst8internal14CompactFstImplINS0_6ArcTplINS0_12LogWeightTplIfEEEENS0_16DefaultCompactorINS0_15StringCompactorIS6_EEjNS0_19DefaultCompactStoreIijEEEENS0_17DefaultCacheStoreIS6_EEEESaISF_EJEESt10shared_ptrIT_ERKT0_DpOT1_
   fun:_ZSt11make_sharedIN3fst8internal14CompactFstImplINS0_6ArcTplINS0_12LogWeightTplIfEEEENS0_16DefaultCompactorINS0_15StringCompactorIS6_EEjNS0_19DefaultCompactStoreIijEEEENS0_17DefaultCacheStoreIS6_EEEEJEESt10shared_ptrIT_EDpOT0_
}
{
   <openfst>
   Memcheck:Leak
   match-leak-kinds: reachable
   fun:_Znwm
   fun:_ZN3fst23WeightedStringCompactorINS_6ArcTplINS_17TropicalWeightTplIfEEEEE4TypeB5cxx11Ev
   fun:_ZZN3fst16DefaultCompactorINS_23WeightedStringCompactorINS_6ArcTplINS_17TropicalWeightTplIfEEEEEEjNS_19DefaultCompactStoreISt4pairIiS4_EjEEE4TypeB5cxx11EvENKUlvE_clEv
   fun:_ZN3fst16DefaultCompactorINS_23WeightedStringCompactorINS_6ArcTplINS_17TropicalWeightTplIfEEEEEEjNS_19DefaultCompactStoreISt4pairIiS4_EjEEE4TypeB5cxx11Ev
   fun:_ZN3fst8internal14CompactFstImplINS_6ArcTplINS_17TropicalWeightTplIfEEEENS_16DefaultCompactorINS_23WeightedStringCompactorIS5_EEjNS_19DefaultCompactStoreISt4pairIiS4_EjEEEENS_17DefaultCacheStoreIS5_EEEC1Ev
   fun:_ZN9__gnu_cxx13new_allocatorIN3fst8internal14CompactFstImplINS1_6ArcTplINS1_17TropicalWeightTplIfEEEENS1_16DefaultCompactorINS1_23WeightedStringCompactorIS7_EEjNS1_19DefaultCompactStoreISt4pairIiS6_EjEEEENS1_17DefaultCacheStoreIS7_EEEEE9constructISI_JEEEvPT_DpOT0_
   fun:_ZNSt16allocator_traitsISaIN3fst8internal14CompactFstImplINS0_6ArcTplINS0_17TropicalWeightTplIfEEEENS0_16DefaultCompactorINS0_23WeightedStringCompactorIS6_EEjNS0_19DefaultCompactStoreISt4pairIiS5_EjEEEENS0_17DefaultCacheStoreIS6_EEEEEE9constructISH_JEEEvRSI_PT_DpOT0_
   fun:_ZNSt23_Sp_counted_ptr_inplaceIN3fst8internal14CompactFstImplINS0_6ArcTplINS0_17TropicalWeightTplIfEEEENS0_16DefaultCompactorINS0_23WeightedStringCompactorIS6_EEjNS0_19DefaultCompactStoreISt4pairIiS5_EjEEEENS0_17DefaultCacheStoreIS6_EEEESaISH_ELN9__gnu_cxx12_Lock_policyE2EEC1IJEEESI_DpOT_
   fun:_ZNSt14__shared_countILN9__gnu_cxx12_Lock_policyE2EEC1IN3fst8internal14CompactFstImplINS4_6ArcTplINS4_17TropicalWeightTplIfEEEENS4_16DefaultCompactorINS4_23WeightedStringCompactorISA_EEjNS4_19DefaultCompactStoreISt4pairIiS9_EjEEEENS4_17DefaultCacheStoreISA_EEEESaISL_EJEEERPT_St20_Sp_alloc_shared_tagIT0_EDpOT1_
   fun:_ZNSt12__shared_ptrIN3fst8internal14CompactFstImplINS0_6ArcTplINS0_17TropicalWeightTplIfEEEENS0_16DefaultCompactorINS0_23WeightedStringCompactorIS6_EEjNS0_19DefaultCompactStoreISt4pairIiS5_EjEEEENS0_17DefaultCacheStoreIS6_EEEELN9__gnu_cxx12_Lock_policyE2EEC1ISaISH_EJEEESt20_Sp_alloc_shared_tagIT_EDpOT0_
   fun:_ZNSt10shared_ptrIN3fst8internal14CompactFstImplINS0_6ArcTplINS0_17TropicalWeightTplIfEEEENS0_16DefaultCompactorINS0_23WeightedStringCompactorIS6_EEjNS0_19DefaultCompactStoreISt4pairIiS5_EjEEEENS0_17DefaultCacheStoreIS6_EEEEEC1ISaISH_EJEEESt20_Sp_alloc_shared_tagIT_EDpOT0_
   fun:_ZSt15allocate_sharedIN3fst8internal14CompactFstImplINS0_6ArcTplINS0_17TropicalWeightTplIfEEEENS0_16DefaultCompactorINS0_23WeightedStringCompactorIS6_EEjNS0_19DefaultCompactStoreISt4pairIiS5_EjEEEENS0_17DefaultCacheStoreIS6_EEEESaISH_EJEESt10shared_ptrIT_ERKT0_DpOT1_
}
{
   <openfst>
   Memcheck:Leak
   match-leak-kinds: reachable
   fun:_Znwm
   fun:_ZN3fst19DefaultCompactStoreISt4pairIiNS_17TropicalWeightTplIfEEEjE4TypeB5cxx11Ev
   fun:_ZZN3fst16DefaultCompactorINS_23WeightedStringCompactorINS_6ArcTplINS_17TropicalWeightTplIfEEEEEEjNS_19DefaultCompactStoreISt4pairIiS4_EjEEE4TypeB5cxx11EvENKUlvE_clEv
   fun:_ZN3fst16DefaultCompactorINS_23WeightedStringCompactorINS_6ArcTplINS_17TropicalWeightTplIfEEEEEEjNS_19DefaultCompactStoreISt4pairIiS4_EjEEE4TypeB5cxx11Ev
   fun:_ZN3fst8internal14CompactFstImplINS_6ArcTplINS_17TropicalWeightTplIfEEEENS_16DefaultCompactorINS_23WeightedStringCompactorIS5_EEjNS_19DefaultCompactStoreISt4pairIiS4_EjEEEENS_17DefaultCacheStoreIS5_EEEC1Ev
   fun:_ZN9__gnu_cxx13new_allocatorIN3fst8internal14CompactFstImplINS1_6ArcTplINS1_17TropicalWeightTplIfEEEENS1_16DefaultCompactorINS1_23WeightedStringCompactorIS7_EEjNS1_19DefaultCompactStoreISt4pairIiS6_EjEEEENS1_17DefaultCacheStoreIS7_EEEEE9constructISI_JEEEvPT_DpOT0_
   fun:_ZNSt16allocator_traitsISaIN3fst8internal14CompactFstImplINS0_6ArcTplINS0_17TropicalWeightTplIfEEEENS0_16DefaultCompactorINS0_23WeightedStringCompactorIS6_EEjNS0_19DefaultCompactStoreISt4pairIiS5_EjEEEENS0_17DefaultCacheStoreIS6_EEEEEE9constructISH_JEEEvRSI_PT_DpOT0_
   fun:_ZNSt23_Sp_counted_ptr_inplaceIN3fst8internal14CompactFstImplINS0_6ArcTplINS0_17TropicalWeightTplIfEEEENS0_16DefaultCompactorINS0_23WeightedStringCompactorIS6_EEjNS0_19DefaultCompactStoreISt4pairIiS5_EjEEEENS0_17DefaultCacheStoreIS6_EEEESaISH_ELN9__gnu_cxx12_Lock_policyE2EEC1IJEEESI_DpOT_
   fun:_ZNSt14__shared_countILN9__gnu_cxx12_Lock_policyE2EEC1IN3fst8internal14CompactFstImplINS4_6ArcTplINS4_17TropicalWeightTplIfEEEENS4_16DefaultCompactorINS4_23WeightedStringCompactorISA_EEjNS4_19DefaultCompactStoreISt4pairIiS9_EjEEEENS4_17DefaultCacheStoreISA_EEEESaISL_EJEEERPT_St20_Sp_alloc_shared_tagIT0_EDpOT1_
   fun:_ZNSt12__shared_ptrIN3fst8internal14CompactFstImplINS0_6ArcTplINS0_17TropicalWeightTplIfEEEENS0_16DefaultCompactorINS0_23WeightedStringCompactorIS6_EEjNS0_19DefaultCompactStoreISt4pairIiS5_EjEEEENS0_17DefaultCacheStoreIS6_EEEELN9__gnu_cxx12_Lock_policyE2EEC1ISaISH_EJEEESt20_Sp_alloc_shared_tagIT_EDpOT0_
   fun:_ZNSt10shared_ptrIN3fst8internal14CompactFstImplINS0_6ArcTplINS0_17TropicalWeightTplIfEEEENS0_16DefaultCompactorINS0_23WeightedStringCompactorIS6_EEjNS0_19DefaultCompactStoreISt4pairIiS5_EjEEEENS0_17DefaultCacheStoreIS6_EEEEEC1ISaISH_EJEEESt20_Sp_alloc_shared_tagIT_EDpOT0_
   fun:_ZSt15allocate_sharedIN3fst8internal14CompactFstImplINS0_6ArcTplINS0_17TropicalWeightTplIfEEEENS0_16DefaultCompactorINS0_23WeightedStringCompactorIS6_EEjNS0_19DefaultCompactStoreISt4pairIiS5_EjEEEENS0_17DefaultCacheStoreIS6_EEEESaISH_EJEESt10shared_ptrIT_ERKT0_DpOT1_
}
{
   <openfst>
   Memcheck:Leak
   match-leak-kinds: reachable
   fun:_Znwm
   fun:_ZZN3fst16DefaultCompactorINS_23WeightedStringCompactorINS_6ArcTplINS_17TropicalWeightTplIfEEEEEEjNS_19DefaultCompactStoreISt4pairIiS4_EjEEE4TypeB5cxx11EvENKUlvE_clEv
   fun:_ZN3fst16DefaultCompactorINS_23WeightedStringCompactorINS_6ArcTplINS_17TropicalWeightTplIfEEEEEEjNS_19DefaultCompactStoreISt4pairIiS4_EjEEE4TypeB5cxx11Ev
   fun:_ZN3fst8internal14CompactFstImplINS_6ArcTplINS_17TropicalWeightTplIfEEEENS_16DefaultCompactorINS_23WeightedStringCompactorIS5_EEjNS_19DefaultCompactStoreISt4pairIiS4_EjEEEENS_17DefaultCacheStoreIS5_EEEC1Ev
   fun:_ZN9__gnu_cxx13new_allocatorIN3fst8internal14CompactFstImplINS1_6ArcTplINS1_17TropicalWeightTplIfEEEENS1_16DefaultCompactorINS1_23WeightedStringCompactorIS7_EEjNS1_19DefaultCompactStoreISt4pairIiS6_EjEEEENS1_17DefaultCacheStoreIS7_EEEEE9constructISI_JEEEvPT_DpOT0_
   fun:_ZNSt16allocator_traitsISaIN3fst8internal14CompactFstImplINS0_6ArcTplINS0_17TropicalWeightTplIfEEEENS0_16DefaultCompactorINS0_23WeightedStringCompactorIS6_EEjNS0_19DefaultCompactStoreISt4pairIiS5_EjEEEENS0_17DefaultCacheStoreIS6_EEEEEE9constructISH_JEEEvRSI_PT_DpOT0_
   fun:_ZNSt23_Sp_counted_ptr_inplaceIN3fst8internal14CompactFstImplINS0_6ArcTplINS0_17TropicalWeightTplIfEEEENS0_16DefaultCompactorINS0_23WeightedStringCompactorIS6_EEjNS0_19DefaultCompactStoreISt4pairIiS5_EjEEEENS0_17DefaultCacheStoreIS6_EEEESaISH_ELN9__gnu_cxx12_Lock_policyE2EEC1IJEEESI_DpOT_
   fun:_ZNSt14__shared_countILN9__gnu_cxx12_Lock_policyE2EEC1IN3fst8internal14CompactFstImplINS4_6ArcTplINS4_17TropicalWeightTplIfEEEENS4_16DefaultCompactorINS4_23WeightedStringCompactorISA_EEjNS4_19DefaultCompactStoreISt4pairIiS9_EjEEEENS4_17DefaultCacheStoreISA_EEEESaISL_EJEEERPT_St20_Sp_alloc_shared_tagIT0_EDpOT1_
   fun:_ZNSt12__shared_ptrIN3fst8internal14CompactFstImplINS0_6ArcTplINS0_17TropicalWeightTplIfEEEENS0_16DefaultCompactorINS0_23WeightedStringCompactorIS6_EEjNS0_19DefaultCompactStoreISt4pairIiS5_EjEEEENS0_17DefaultCacheStoreIS6_EEEELN9__gnu_cxx12_Lock_policyE2EEC1ISaISH_EJEEESt20_Sp_alloc_shared_tagIT_EDpOT0_
   fun:_ZNSt10shared_ptrIN3fst8internal14CompactFstImplINS0_6ArcTplINS0_17TropicalWeightTplIfEEEENS0_16DefaultCompactorINS0_23WeightedStringCompactorIS6_EEjNS0_19DefaultCompactStoreISt4pairIiS5_EjEEEENS0_17DefaultCacheStoreIS6_EEEEEC1ISaISH_EJEEESt20_Sp_alloc_shared_tagIT_EDpOT0_
   fun:_ZSt15allocate_sharedIN3fst8internal14CompactFstImplINS0_6ArcTplINS0_17TropicalWeightTplIfEEEENS0_16DefaultCompactorINS0_23WeightedStringCompactorIS6_EEjNS0_19DefaultCompactStoreISt4pairIiS5_EjEEEENS0_17DefaultCacheStoreIS6_EEEESaISH_EJEESt10shared_ptrIT_ERKT0_DpOT1_
   fun:_ZSt11make_sharedIN3fst8internal14CompactFstImplINS0_6ArcTplINS0_17TropicalWeightTplIfEEEENS0_16DefaultCompactorINS0_23WeightedStringCompactorIS6_EEjNS0_19DefaultCompactStoreISt4pairIiS5_EjEEEENS0_17DefaultCacheStoreIS6_EEEEJEESt10shared_ptrIT_EDpOT0_
}
{
   <openfst>
   Memcheck:Leak
   match-leak-kinds: reachable
   fun:_Znwm
   fun:_ZN3fst23WeightedStringCompactorINS_6ArcTplINS_12LogWeightTplIfEEEEE4TypeB5cxx11Ev
   fun:_ZZN3fst16DefaultCompactorINS_23WeightedStringCompactorINS_6ArcTplINS_12LogWeightTplIfEEEEEEjNS_19DefaultCompactStoreISt4pairIiS4_EjEEE4TypeB5cxx11EvENKUlvE_clEv
   fun:_ZN3fst16DefaultCompactorINS_23WeightedStringCompactorINS_6ArcTplINS_12LogWeightTplIfEEEEEEjNS_19DefaultCompactStoreISt4pairIiS4_EjEEE4TypeB5cxx11Ev
   fun:_ZN3fst8internal14CompactFstImplINS_6ArcTplINS_12LogWeightTplIfEEEENS_16DefaultCompactorINS_23WeightedStringCompactorIS5_EEjNS_19DefaultCompactStoreISt4pairIiS4_EjEEEENS_17DefaultCacheStoreIS5_EEEC1Ev
   fun:_ZN9__gnu_cxx13new_allocatorIN3fst8internal14CompactFstImplINS1_6ArcTplINS1_12LogWeightTplIfEEEENS1_16DefaultCompactorINS1_23WeightedStringCompactorIS7_EEjNS1_19DefaultCompactStoreISt4pairIiS6_EjEEEENS1_17DefaultCacheStoreIS7_EEEEE9constructISI_JEEEvPT_DpOT0_
   fun:_ZNSt16allocator_traitsISaIN3fst8internal14CompactFstImplINS0_6ArcTplINS0_12LogWeightTplIfEEEENS0_16DefaultCompactorINS0_23WeightedStringCompactorIS6_EEjNS0_19DefaultCompactStoreISt4pairIiS5_EjEEEENS0_17DefaultCacheStoreIS6_EEEEEE9constructISH_JEEEvRSI_PT_DpOT0_
   fun:_ZNSt23_Sp_counted_ptr_inplaceIN3fst8internal14CompactFstImplINS0_6ArcTplINS0_12LogWeightTplIfEEEENS0_16DefaultCompactorINS0_23WeightedStringCompactorIS6_EEjNS0_19DefaultCompactStoreISt4pairIiS5_EjEEEENS0_17DefaultCacheStoreIS6_EEEESaISH_ELN9__gnu_cxx12_Lock_policyE2EEC1IJEEESI_DpOT_
   fun:_ZNSt14__shared_countILN9__gnu_cxx12_Lock_policyE2EEC1IN3fst8internal14CompactFstImplINS4_6ArcTplINS4_12LogWeightTplIfEEEENS4_16DefaultCompactorINS4_23WeightedStringCompactorISA_EEjNS4_19DefaultCompactStoreISt4pairIiS9_EjEEEENS4_17DefaultCacheStoreISA_EEEESaISL_EJEEERPT_St20_Sp_alloc_shared_tagIT0_EDpOT1_
   fun:_ZNSt12__shared_ptrIN3fst8internal14CompactFstImplINS0_6ArcTplINS0_12LogWeightTplIfEEEENS0_16DefaultCompactorINS0_23WeightedStringCompactorIS6_EEjNS0_19DefaultCompactStoreISt4pairIiS5_EjEEEENS0_17DefaultCacheStoreIS6_EEEELN9__gnu_cxx12_Lock_policyE2EEC1ISaISH_EJEEESt20_Sp_alloc_shared_tagIT_EDpOT0_
   fun:_ZNSt10shared_ptrIN3fst8internal14CompactFstImplINS0_6ArcTplINS0_12LogWeightTplIfEEEENS0_16DefaultCompactorINS0_23WeightedStringCompactorIS6_EEjNS0_19DefaultCompactStoreISt4pairIiS5_EjEEEENS0_17DefaultCacheStoreIS6_EEEEEC1ISaISH_EJEEESt20_Sp_alloc_shared_tagIT_EDpOT0_
   fun:_ZSt15allocate_sharedIN3fst8internal14CompactFstImplINS0_6ArcTplINS0_12LogWeightTplIfEEEENS0_16DefaultCompactorINS0_23WeightedStringCompactorIS6_EEjNS0_19DefaultCompactStoreISt4pairIiS5_EjEEEENS0_17DefaultCacheStoreIS6_EEEESaISH_EJEESt10shared_ptrIT_ERKT0_DpOT1_
}
{
   <openfst>
   Memcheck:Leak
   match-leak-kinds: reachable
   fun:_Znwm
   fun:_ZN3fst19DefaultCompactStoreISt4pairIiNS_12LogWeightTplIfEEEjE4TypeB5cxx11Ev
   fun:_ZZN3fst16DefaultCompactorINS_23WeightedStringCompactorINS_6ArcTplINS_12LogWeightTplIfEEEEEEjNS_19DefaultCompactStoreISt4pairIiS4_EjEEE4TypeB5cxx11EvENKUlvE_clEv
   fun:_ZN3fst16DefaultCompactorINS_23WeightedStringCompactorINS_6ArcTplINS_12LogWeightTplIfEEEEEEjNS_19DefaultCompactStoreISt4pairIiS4_EjEEE4TypeB5cxx11Ev
   fun:_ZN3fst8internal14CompactFstImplINS_6ArcTplINS_12LogWeightTplIfEEEENS_16DefaultCompactorINS_23WeightedStringCompactorIS5_EEjNS_19DefaultCompactStoreISt4pairIiS4_EjEEEENS_17DefaultCacheStoreIS5_EEEC1Ev
   fun:_ZN9__gnu_cxx13new_allocatorIN3fst8internal14CompactFstImplINS1_6ArcTplINS1_12LogWeightTplIfEEEENS1_16DefaultCompactorINS1_23WeightedStringCompactorIS7_EEjNS1_19DefaultCompactStoreISt4pairIiS6_EjEEEENS1_17DefaultCacheStoreIS7_EEEEE9constructISI_JEEEvPT_DpOT0_
   fun:_ZNSt16allocator_traitsISaIN3fst8internal14CompactFstImplINS0_6ArcTplINS0_12LogWeightTplIfEEEENS0_16DefaultCompactorINS0_23WeightedStringCompactorIS6_EEjNS0_19DefaultCompactStoreISt4pairIiS5_EjEEEENS0_17DefaultCacheStoreIS6_EEEEEE9constructISH_JEEEvRSI_PT_DpOT0_
   fun:_ZNSt23_Sp_counted_ptr_inplaceIN3fst8internal14CompactFstImplINS0_6ArcTplINS0_12LogWeightTplIfEEEENS0_16DefaultCompactorINS0_23WeightedStringCompactorIS6_EEjNS0_19DefaultCompactStoreISt4pairIiS5_EjEEEENS0_17DefaultCacheStoreIS6_EEEESaISH_ELN9__gnu_cxx12_Lock_policyE2EEC1IJEEESI_DpOT_
   fun:_ZNSt14__shared_countILN9__gnu_cxx12_Lock_policyE2EEC1IN3fst8internal14CompactFstImplINS4_6ArcTplINS4_12LogWeightTplIfEEEENS4_16DefaultCompactorINS4_23WeightedStringCompactorISA_EEjNS4_19DefaultCompactStoreISt4pairIiS9_EjEEEENS4_17DefaultCacheStoreISA_EEEESaISL_EJEEERPT_St20_Sp_alloc_shared_tagIT0_EDpOT1_
   fun:_ZNSt12__shared_ptrIN3fst8internal14CompactFstImplINS0_6ArcTplINS0_12LogWeightTplIfEEEENS0_16DefaultCompactorINS0_23WeightedStringCompactorIS6_EEjNS0_19DefaultCompactStoreISt4pairIiS5_EjEEEENS0_17DefaultCacheStoreIS6_EEEELN9__gnu_cxx12_Lock_policyE2EEC1ISaISH_EJEEESt20_Sp_alloc_shared_tagIT_EDpOT0_
   fun:_ZNSt10shared_ptrIN3fst8internal14CompactFstImplINS0_6ArcTplINS0_12LogWeightTplIfEEEENS0_16DefaultCompactorINS0_23WeightedStringCompactorIS6_EEjNS0_19DefaultCompactStoreISt4pairIiS5_EjEEEENS0_17DefaultCacheStoreIS6_EEEEEC1ISaISH_EJEEESt20_Sp_alloc_shared_tagIT_EDpOT0_
   fun:_ZSt15allocate_sharedIN3fst8internal14CompactFstImplINS0_6ArcTplINS0_12LogWeightTplIfEEEENS0_16DefaultCompactorINS0_23WeightedStringCompactorIS6_EEjNS0_19DefaultCompactStoreISt4pairIiS5_EjEEEENS0_17DefaultCacheStoreIS6_EEEESaISH_EJEESt10shared_ptrIT_ERKT0_DpOT1_
}
{
   <openfst>
   Memcheck:Leak
   match-leak-kinds: reachable
   fun:_Znwm
   fun:_ZZN3fst16DefaultCompactorINS_23WeightedStringCompactorINS_6ArcTplINS_12LogWeightTplIfEEEEEEjNS_19DefaultCompactStoreISt4pairIiS4_EjEEE4TypeB5cxx11EvENKUlvE_clEv
   fun:_ZN3fst16DefaultCompactorINS_23WeightedStringCompactorINS_6ArcTplINS_12LogWeightTplIfEEEEEEjNS_19DefaultCompactStoreISt4pairIiS4_EjEEE4TypeB5cxx11Ev
   fun:_ZN3fst8internal14CompactFstImplINS_6ArcTplINS_12LogWeightTplIfEEEENS_16DefaultCompactorINS_23WeightedStringCompactorIS5_EEjNS_19DefaultCompactStoreISt4pairIiS4_EjEEEENS_17DefaultCacheStoreIS5_EEEC1Ev
   fun:_ZN9__gnu_cxx13new_allocatorIN3fst8internal14CompactFstImplINS1_6ArcTplINS1_12LogWeightTplIfEEEENS1_16DefaultCompactorINS1_23WeightedStringCompactorIS7_EEjNS1_19DefaultCompactStoreISt4pairIiS6_EjEEEENS1_17DefaultCacheStoreIS7_EEEEE9constructISI_JEEEvPT_DpOT0_
   fun:_ZNSt16allocator_traitsISaIN3fst8internal14CompactFstImplINS0_6ArcTplINS0_12LogWeightTplIfEEEENS0_16DefaultCompactorINS0_23WeightedStringCompactorIS6_EEjNS0_19DefaultCompactStoreISt4pairIiS5_EjEEEENS0_17DefaultCacheStoreIS6_EEEEEE9constructISH_JEEEvRSI_PT_DpOT0_
   fun:_ZNSt23_Sp_counted_ptr_inplaceIN3fst8internal14CompactFstImplINS0_6ArcTplINS0_12LogWeightTplIfEEEENS0_16DefaultCompactorINS0_23WeightedStringCompactorIS6_EEjNS0_19DefaultCompactStoreISt4pairIiS5_EjEEEENS0_17DefaultCacheStoreIS6_EEEESaISH_ELN9__gnu_cxx12_Lock_policyE2EEC1IJEEESI_DpOT_
   fun:_ZNSt14__shared_countILN9__gnu_cxx12_Lock_policyE2EEC1IN3fst8internal14CompactFstImplINS4_6ArcTplINS4_12LogWeightTplIfEEEENS4_16DefaultCompactorINS4_23WeightedStringCompactorISA_EEjNS4_19DefaultCompactStoreISt4pairIiS9_EjEEEENS4_17DefaultCacheStoreISA_EEEESaISL_EJEEERPT_St20_Sp_alloc_shared_tagIT0_EDpOT1_
   fun:_ZNSt12__shared_ptrIN3fst8internal14CompactFstImplINS0_6ArcTplINS0_12LogWeightTplIfEEEENS0_16DefaultCompactorINS0_23WeightedStringCompactorIS6_EEjNS0_19DefaultCompactStoreISt4pairIiS5_EjEEEENS0_17DefaultCacheStoreIS6_EEEELN9__gnu_cxx12_Lock_policyE2EEC1ISaISH_EJEEESt20_Sp_alloc_shared_tagIT_EDpOT0_
   fun:_ZNSt10shared_ptrIN3fst8internal14CompactFstImplINS0_6ArcTplINS0_12LogWeightTplIfEEEENS0_16DefaultCompactorINS0_23WeightedStringCompactorIS6_EEjNS0_19DefaultCompactStoreISt4pairIiS5_EjEEEENS0_17DefaultCacheStoreIS6_EEEEEC1ISaISH_EJEEESt20_Sp_alloc_shared_tagIT_EDpOT0_
   fun:_ZSt15allocate_sharedIN3fst8internal14CompactFstImplINS0_6ArcTplINS0_12LogWeightTplIfEEEENS0_16DefaultCompactorINS0_23WeightedStringCompactorIS6_EEjNS0_19DefaultCompactStoreISt4pairIiS5_EjEEEENS0_17DefaultCacheStoreIS6_EEEESaISH_EJEESt10shared_ptrIT_ERKT0_DpOT1_
   fun:_ZSt11make_sharedIN3fst8internal14CompactFstImplINS0_6ArcTplINS0_12LogWeightTplIfEEEENS0_16DefaultCompactorINS0_23WeightedStringCompactorIS6_EEjNS0_19DefaultCompactStoreISt4pairIiS5_EjEEEENS0_17DefaultCacheStoreIS6_EEEEJEESt10shared_ptrIT_EDpOT0_
}
{
   <openfst>
   Memcheck:Leak
   match-leak-kinds: reachable
   fun:_Znwm
   fun:_ZN3fst17AcceptorCompactorINS_6ArcTplINS_17TropicalWeightTplIfEEEEE4TypeB5cxx11Ev
   fun:_ZZN3fst16DefaultCompactorINS_17AcceptorCompactorINS_6ArcTplINS_17TropicalWeightTplIfEEEEEEjNS_19DefaultCompactStoreISt4pairIS8_IiS4_EiEjEEE4TypeB5cxx11EvENKUlvE_clEv
   fun:_ZN3fst16DefaultCompactorINS_17AcceptorCompactorINS_6ArcTplINS_17TropicalWeightTplIfEEEEEEjNS_19DefaultCompactStoreISt4pairIS8_IiS4_EiEjEEE4TypeB5cxx11Ev
   fun:_ZN3fst8internal14CompactFstImplINS_6ArcTplINS_17TropicalWeightTplIfEEEENS_16DefaultCompactorINS_17AcceptorCompactorIS5_EEjNS_19DefaultCompactStoreISt4pairISA_IiS4_EiEjEEEENS_17DefaultCacheStoreIS5_EEEC1Ev
   fun:_ZN9__gnu_cxx13new_allocatorIN3fst8internal14CompactFstImplINS1_6ArcTplINS1_17TropicalWeightTplIfEEEENS1_16DefaultCompactorINS1_17AcceptorCompactorIS7_EEjNS1_19DefaultCompactStoreISt4pairISC_IiS6_EiEjEEEENS1_17DefaultCacheStoreIS7_EEEEE9constructISJ_JEEEvPT_DpOT0_
   fun:_ZNSt16allocator_traitsISaIN3fst8internal14CompactFstImplINS0_6ArcTplINS0_17TropicalWeightTplIfEEEENS0_16DefaultCompactorINS0_17AcceptorCompactorIS6_EEjNS0_19DefaultCompactStoreISt4pairISB_IiS5_EiEjEEEENS0_17DefaultCacheStoreIS6_EEEEEE9constructISI_JEEEvRSJ_PT_DpOT0_
   fun:_ZNSt23_Sp_counted_ptr_inplaceIN3fst8internal14CompactFstImplINS0_6ArcTplINS0_17TropicalWeightTplIfEEEENS0_16DefaultCompactorINS0_17AcceptorCompactorIS6_EEjNS0_19DefaultCompactStoreISt4pairISB_IiS5_EiEjEEEENS0_17DefaultCacheStoreIS6_EEEESaISI_ELN9__gnu_cxx12_Lock_policyE2EEC1IJEEESJ_DpOT_
   fun:_ZNSt14__shared_countILN9__gnu_cxx12_Lock_policyE2EEC1IN3fst8internal14CompactFstImplINS4_6ArcTplINS4_17TropicalWeightTplIfEEEENS4_16DefaultCompactorINS4_17AcceptorCompactorISA_EEjNS4_19DefaultCompactStoreISt4pairISF_IiS9_EiEjEEEENS4_17DefaultCacheStoreISA_EEEESaISM_EJEEERPT_St20_Sp_alloc_shared_tagIT0_EDpOT1_
   fun:_ZNSt12__shared_ptrIN3fst8internal14CompactFstImplINS0_6ArcTplINS0_17TropicalWeightTplIfEEEENS0_16DefaultCompactorINS0_17AcceptorCompactorIS6_EEjNS0_19DefaultCompactStoreISt4pairISB_IiS5_EiEjEEEENS0_17DefaultCacheStoreIS6_EEEELN9__gnu_cxx12_Lock_policyE2EEC1ISaISI_EJEEESt20_Sp_alloc_shared_tagIT_EDpOT0_
   fun:_ZNSt10shared_ptrIN3fst8internal14CompactFstImplINS0_6ArcTplINS0_17TropicalWeightTplIfEEEENS0_16DefaultCompactorINS0_17AcceptorCompactorIS6_EEjNS0_19DefaultCompactStoreISt4pairISB_IiS5_EiEjEEEENS0_17DefaultCacheStoreIS6_EEEEEC1ISaISI_EJEEESt20_Sp_alloc_shared_tagIT_EDpOT0_
   fun:_ZSt15allocate_sharedIN3fst8internal14CompactFstImplINS0_6ArcTplINS0_17TropicalWeightTplIfEEEENS0_16DefaultCompactorINS0_17AcceptorCompactorIS6_EEjNS0_19DefaultCompactStoreISt4pairISB_IiS5_EiEjEEEENS0_17DefaultCacheStoreIS6_EEEESaISI_EJEESt10shared_ptrIT_ERKT0_DpOT1_
}
{
   <openfst>
   Memcheck:Leak
   match-leak-kinds: reachable
   fun:_Znwm
   fun:_ZN3fst19DefaultCompactStoreISt4pairIS1_IiNS_17TropicalWeightTplIfEEEiEjE4TypeB5cxx11Ev
   fun:_ZZN3fst16DefaultCompactorINS_17AcceptorCompactorINS_6ArcTplINS_17TropicalWeightTplIfEEEEEEjNS_19DefaultCompactStoreISt4pairIS8_IiS4_EiEjEEE4TypeB5cxx11EvENKUlvE_clEv
   fun:_ZN3fst16DefaultCompactorINS_17AcceptorCompactorINS_6ArcTplINS_17TropicalWeightTplIfEEEEEEjNS_19DefaultCompactStoreISt4pairIS8_IiS4_EiEjEEE4TypeB5cxx11Ev
   fun:_ZN3fst8internal14CompactFstImplINS_6ArcTplINS_17TropicalWeightTplIfEEEENS_16DefaultCompactorINS_17AcceptorCompactorIS5_EEjNS_19DefaultCompactStoreISt4pairISA_IiS4_EiEjEEEENS_17DefaultCacheStoreIS5_EEEC1Ev
   fun:_ZN9__gnu_cxx13new_allocatorIN3fst8internal14CompactFstImplINS1_6ArcTplINS1_17TropicalWeightTplIfEEEENS1_16DefaultCompactorINS1_17AcceptorCompactorIS7_EEjNS1_19DefaultCompactStoreISt4pairISC_IiS6_EiEjEEEENS1_17DefaultCacheStoreIS7_EEEEE9constructISJ_JEEEvPT_DpOT0_
   fun:_ZNSt16allocator_traitsISaIN3fst8internal14CompactFstImplINS0_6ArcTplINS0_17TropicalWeightTplIfEEEENS0_16DefaultCompactorINS0_17AcceptorCompactorIS6_EEjNS0_19DefaultCompactStoreISt4pairISB_IiS5_EiEjEEEENS0_17DefaultCacheStoreIS6_EEEEEE9constructISI_JEEEvRSJ_PT_DpOT0_
   fun:_ZNSt23_Sp_counted_ptr_inplaceIN3fst8internal14CompactFstImplINS0_6ArcTplINS0_17TropicalWeightTplIfEEEENS0_16DefaultCompactorINS0_17AcceptorCompactorIS6_EEjNS0_19DefaultCompactStoreISt4pairISB_IiS5_EiEjEEEENS0_17DefaultCacheStoreIS6_EEEESaISI_ELN9__gnu_cxx12_Lock_policyE2EEC1IJEEESJ_DpOT_
   fun:_ZNSt14__shared_countILN9__gnu_cxx12_Lock_policyE2EEC1IN3fst8internal14CompactFstImplINS4_6ArcTplINS4_17TropicalWeightTplIfEEEENS4_16DefaultCompactorINS4_17AcceptorCompactorISA_EEjNS4_19DefaultCompactStoreISt4pairISF_IiS9_EiEjEEEENS4_17DefaultCacheStoreISA_EEEESaISM_EJEEERPT_St20_Sp_alloc_shared_tagIT0_EDpOT1_
   fun:_ZNSt12__shared_ptrIN3fst8internal14CompactFstImplINS0_6ArcTplINS0_17TropicalWeightTplIfEEEENS0_16DefaultCompactorINS0_17AcceptorCompactorIS6_EEjNS0_19DefaultCompactStoreISt4pairISB_IiS5_EiEjEEEENS0_17DefaultCacheStoreIS6_EEEELN9__gnu_cxx12_Lock_policyE2EEC1ISaISI_EJEEESt20_Sp_alloc_shared_tagIT_EDpOT0_
   fun:_ZNSt10shared_ptrIN3fst8internal14CompactFstImplINS0_6ArcTplINS0_17TropicalWeightTplIfEEEENS0_16DefaultCompactorINS0_17AcceptorCompactorIS6_EEjNS0_19DefaultCompactStoreISt4pairISB_IiS5_EiEjEEEENS0_17DefaultCacheStoreIS6_EEEEEC1ISaISI_EJEEESt20_Sp_alloc_shared_tagIT_EDpOT0_
   fun:_ZSt15allocate_sharedIN3fst8internal14CompactFstImplINS0_6ArcTplINS0_17TropicalWeightTplIfEEEENS0_16DefaultCompactorINS0_17AcceptorCompactorIS6_EEjNS0_19DefaultCompactStoreISt4pairISB_IiS5_EiEjEEEENS0_17DefaultCacheStoreIS6_EEEESaISI_EJEESt10shared_ptrIT_ERKT0_DpOT1_
}
{
   <openfst>
   Memcheck:Leak
   match-leak-kinds: reachable
   fun:_Znwm
   fun:_ZZN3fst16DefaultCompactorINS_17AcceptorCompactorINS_6ArcTplINS_17TropicalWeightTplIfEEEEEEjNS_19DefaultCompactStoreISt4pairIS8_IiS4_EiEjEEE4TypeB5cxx11EvENKUlvE_clEv
   fun:_ZN3fst16DefaultCompactorINS_17AcceptorCompactorINS_6ArcTplINS_17TropicalWeightTplIfEEEEEEjNS_19DefaultCompactStoreISt4pairIS8_IiS4_EiEjEEE4TypeB5cxx11Ev
   fun:_ZN3fst8internal14CompactFstImplINS_6ArcTplINS_17TropicalWeightTplIfEEEENS_16DefaultCompactorINS_17AcceptorCompactorIS5_EEjNS_19DefaultCompactStoreISt4pairISA_IiS4_EiEjEEEENS_17DefaultCacheStoreIS5_EEEC1Ev
   fun:_ZN9__gnu_cxx13new_allocatorIN3fst8internal14CompactFstImplINS1_6ArcTplINS1_17TropicalWeightTplIfEEEENS1_16DefaultCompactorINS1_17AcceptorCompactorIS7_EEjNS1_19DefaultCompactStoreISt4pairISC_IiS6_EiEjEEEENS1_17DefaultCacheStoreIS7_EEEEE9constructISJ_JEEEvPT_DpOT0_
   fun:_ZNSt16allocator_traitsISaIN3fst8internal14CompactFstImplINS0_6ArcTplINS0_17TropicalWeightTplIfEEEENS0_16DefaultCompactorINS0_17AcceptorCompactorIS6_EEjNS0_19DefaultCompactStoreISt4pairISB_IiS5_EiEjEEEENS0_17DefaultCacheStoreIS6_EEEEEE9constructISI_JEEEvRSJ_PT_DpOT0_
   fun:_ZNSt23_Sp_counted_ptr_inplaceIN3fst8internal14CompactFstImplINS0_6ArcTplINS0_17TropicalWeightTplIfEEEENS0_16DefaultCompactorINS0_17AcceptorCompactorIS6_EEjNS0_19DefaultCompactStoreISt4pairISB_IiS5_EiEjEEEENS0_17DefaultCacheStoreIS6_EEEESaISI_ELN9__gnu_cxx12_Lock_policyE2EEC1IJEEESJ_DpOT_
   fun:_ZNSt14__shared_countILN9__gnu_cxx12_Lock_policyE2EEC1IN3fst8internal14CompactFstImplINS4_6ArcTplINS4_17TropicalWeightTplIfEEEENS4_16DefaultCompactorINS4_17AcceptorCompactorISA_EEjNS4_19DefaultCompactStoreISt4pairISF_IiS9_EiEjEEEENS4_17DefaultCacheStoreISA_EEEESaISM_EJEEERPT_St20_Sp_alloc_shared_tagIT0_EDpOT1_
   fun:_ZNSt12__shared_ptrIN3fst8internal14CompactFstImplINS0_6ArcTplINS0_17TropicalWeightTplIfEEEENS0_16DefaultCompactorINS0_17AcceptorCompactorIS6_EEjNS0_19DefaultCompactStoreISt4pairISB_IiS5_EiEjEEEENS0_17DefaultCacheStoreIS6_EEEELN9__gnu_cxx12_Lock_policyE2EEC1ISaISI_EJEEESt20_Sp_alloc_shared_tagIT_EDpOT0_
   fun:_ZNSt10shared_ptrIN3fst8internal14CompactFstImplINS0_6ArcTplINS0_17TropicalWeightTplIfEEEENS0_16DefaultCompactorINS0_17AcceptorCompactorIS6_EEjNS0_19DefaultCompactStoreISt4pairISB_IiS5_EiEjEEEENS0_17DefaultCacheStoreIS6_EEEEEC1ISaISI_EJEEESt20_Sp_alloc_shared_tagIT_EDpOT0_
   fun:_ZSt15allocate_sharedIN3fst8internal14CompactFstImplINS0_6ArcTplINS0_17TropicalWeightTplIfEEEENS0_16DefaultCompactorINS0_17AcceptorCompactorIS6_EEjNS0_19DefaultCompactStoreISt4pairISB_IiS5_EiEjEEEENS0_17DefaultCacheStoreIS6_EEEESaISI_EJEESt10shared_ptrIT_ERKT0_DpOT1_
   fun:_ZSt11make_sharedIN3fst8internal14CompactFstImplINS0_6ArcTplINS0_17TropicalWeightTplIfEEEENS0_16DefaultCompactorINS0_17AcceptorCompactorIS6_EEjNS0_19DefaultCompactStoreISt4pairISB_IiS5_EiEjEEEENS0_17DefaultCacheStoreIS6_EEEEJEESt10shared_ptrIT_EDpOT0_
}
{
   <openfst>
   Memcheck:Leak
   match-leak-kinds: reachable
   fun:_Znwm
   fun:_ZN3fst17AcceptorCompactorINS_6ArcTplINS_12LogWeightTplIfEEEEE4TypeB5cxx11Ev
   fun:_ZZN3fst16DefaultCompactorINS_17AcceptorCompactorINS_6ArcTplINS_12LogWeightTplIfEEEEEEjNS_19DefaultCompactStoreISt4pairIS8_IiS4_EiEjEEE4TypeB5cxx11EvENKUlvE_clEv
   fun:_ZN3fst16DefaultCompactorINS_17AcceptorCompactorINS_6ArcTplINS_12LogWeightTplIfEEEEEEjNS_19DefaultCompactStoreISt4pairIS8_IiS4_EiEjEEE4TypeB5cxx11Ev
   fun:_ZN3fst8internal14CompactFstImplINS_6ArcTplINS_12LogWeightTplIfEEEENS_16DefaultCompactorINS_17AcceptorCompactorIS5_EEjNS_19DefaultCompactStoreISt4pairISA_IiS4_EiEjEEEENS_17DefaultCacheStoreIS5_EEEC1Ev
   fun:_ZN9__gnu_cxx13new_allocatorIN3fst8internal14CompactFstImplINS1_6ArcTplINS1_12LogWeightTplIfEEEENS1_16DefaultCompactorINS1_17AcceptorCompactorIS7_EEjNS1_19DefaultCompactStoreISt4pairISC_IiS6_EiEjEEEENS1_17DefaultCacheStoreIS7_EEEEE9constructISJ_JEEEvPT_DpOT0_
   fun:_ZNSt16allocator_traitsISaIN3fst8internal14CompactFstImplINS0_6ArcTplINS0_12LogWeightTplIfEEEENS0_16DefaultCompactorINS0_17AcceptorCompactorIS6_EEjNS0_19DefaultCompactStoreISt4pairISB_IiS5_EiEjEEEENS0_17DefaultCacheStoreIS6_EEEEEE9constructISI_JEEEvRSJ_PT_DpOT0_
   fun:_ZNSt23_Sp_counted_ptr_inplaceIN3fst8internal14CompactFstImplINS0_6ArcTplINS0_12LogWeightTplIfEEEENS0_16DefaultCompactorINS0_17AcceptorCompactorIS6_EEjNS0_19DefaultCompactStoreISt4pairISB_IiS5_EiEjEEEENS0_17DefaultCacheStoreIS6_EEEESaISI_ELN9__gnu_cxx12_Lock_policyE2EEC1IJEEESJ_DpOT_
   fun:_ZNSt14__shared_countILN9__gnu_cxx12_Lock_policyE2EEC1IN3fst8internal14CompactFstImplINS4_6ArcTplINS4_12LogWeightTplIfEEEENS4_16DefaultCompactorINS4_17AcceptorCompactorISA_EEjNS4_19DefaultCompactStoreISt4pairISF_IiS9_EiEjEEEENS4_17DefaultCacheStoreISA_EEEESaISM_EJEEERPT_St20_Sp_alloc_shared_tagIT0_EDpOT1_
   fun:_ZNSt12__shared_ptrIN3fst8internal14CompactFstImplINS0_6ArcTplINS0_12LogWeightTplIfEEEENS0_16DefaultCompactorINS0_17AcceptorCompactorIS6_EEjNS0_19DefaultCompactStoreISt4pairISB_IiS5_EiEjEEEENS0_17DefaultCacheStoreIS6_EEEELN9__gnu_cxx12_Lock_policyE2EEC1ISaISI_EJEEESt20_Sp_alloc_shared_tagIT_EDpOT0_
   fun:_ZNSt10shared_ptrIN3fst8internal14CompactFstImplINS0_6ArcTplINS0_12LogWeightTplIfEEEENS0_16DefaultCompactorINS0_17AcceptorCompactorIS6_EEjNS0_19DefaultCompactStoreISt4pairISB_IiS5_EiEjEEEENS0_17DefaultCacheStoreIS6_EEEEEC1ISaISI_EJEEESt20_Sp_alloc_shared_tagIT_EDpOT0_
   fun:_ZSt15allocate_sharedIN3fst8internal14CompactFstImplINS0_6ArcTplINS0_12LogWeightTplIfEEEENS0_16DefaultCompactorINS0_17AcceptorCompactorIS6_EEjNS0_19DefaultCompactStoreISt4pairISB_IiS5_EiEjEEEENS0_17DefaultCacheStoreIS6_EEEESaISI_EJEESt10shared_ptrIT_ERKT0_DpOT1_
}
{
   <openfst>
   Memcheck:Leak
   match-leak-kinds: reachable
   fun:_Znwm
   fun:_ZN3fst19DefaultCompactStoreISt4pairIS1_IiNS_12LogWeightTplIfEEEiEjE4TypeB5cxx11Ev
   fun:_ZZN3fst16DefaultCompactorINS_17AcceptorCompactorINS_6ArcTplINS_12LogWeightTplIfEEEEEEjNS_19DefaultCompactStoreISt4pairIS8_IiS4_EiEjEEE4TypeB5cxx11EvENKUlvE_clEv
   fun:_ZN3fst16DefaultCompactorINS_17AcceptorCompactorINS_6ArcTplINS_12LogWeightTplIfEEEEEEjNS_19DefaultCompactStoreISt4pairIS8_IiS4_EiEjEEE4TypeB5cxx11Ev
   fun:_ZN3fst8internal14CompactFstImplINS_6ArcTplINS_12LogWeightTplIfEEEENS_16DefaultCompactorINS_17AcceptorCompactorIS5_EEjNS_19DefaultCompactStoreISt4pairISA_IiS4_EiEjEEEENS_17DefaultCacheStoreIS5_EEEC1Ev
   fun:_ZN9__gnu_cxx13new_allocatorIN3fst8internal14CompactFstImplINS1_6ArcTplINS1_12LogWeightTplIfEEEENS1_16DefaultCompactorINS1_17AcceptorCompactorIS7_EEjNS1_19DefaultCompactStoreISt4pairISC_IiS6_EiEjEEEENS1_17DefaultCacheStoreIS7_EEEEE9constructISJ_JEEEvPT_DpOT0_
   fun:_ZNSt16allocator_traitsISaIN3fst8internal14CompactFstImplINS0_6ArcTplINS0_12LogWeightTplIfEEEENS0_16DefaultCompactorINS0_17AcceptorCompactorIS6_EEjNS0_19DefaultCompactStoreISt4pairISB_IiS5_EiEjEEEENS0_17DefaultCacheStoreIS6_EEEEEE9constructISI_JEEEvRSJ_PT_DpOT0_
   fun:_ZNSt23_Sp_counted_ptr_inplaceIN3fst8internal14CompactFstImplINS0_6ArcTplINS0_12LogWeightTplIfEEEENS0_16DefaultCompactorINS0_17AcceptorCompactorIS6_EEjNS0_19DefaultCompactStoreISt4pairISB_IiS5_EiEjEEEENS0_17DefaultCacheStoreIS6_EEEESaISI_ELN9__gnu_cxx12_Lock_policyE2EEC1IJEEESJ_DpOT_
   fun:_ZNSt14__shared_countILN9__gnu_cxx12_Lock_policyE2EEC1IN3fst8internal14CompactFstImplINS4_6ArcTplINS4_12LogWeightTplIfEEEENS4_16DefaultCompactorINS4_17AcceptorCompactorISA_EEjNS4_19DefaultCompactStoreISt4pairISF_IiS9_EiEjEEEENS4_17DefaultCacheStoreISA_EEEESaISM_EJEEERPT_St20_Sp_alloc_shared_tagIT0_EDpOT1_
   fun:_ZNSt12__shared_ptrIN3fst8internal14CompactFstImplINS0_6ArcTplINS0_12LogWeightTplIfEEEENS0_16DefaultCompactorINS0_17AcceptorCompactorIS6_EEjNS0_19DefaultCompactStoreISt4pairISB_IiS5_EiEjEEEENS0_17DefaultCacheStoreIS6_EEEELN9__gnu_cxx12_Lock_policyE2EEC1ISaISI_EJEEESt20_Sp_alloc_shared_tagIT_EDpOT0_
   fun:_ZNSt10shared_ptrIN3fst8internal14CompactFstImplINS0_6ArcTplINS0_12LogWeightTplIfEEEENS0_16DefaultCompactorINS0_17AcceptorCompactorIS6_EEjNS0_19DefaultCompactStoreISt4pairISB_IiS5_EiEjEEEENS0_17DefaultCacheStoreIS6_EEEEEC1ISaISI_EJEEESt20_Sp_alloc_shared_tagIT_EDpOT0_
   fun:_ZSt15allocate_sharedIN3fst8internal14CompactFstImplINS0_6ArcTplINS0_12LogWeightTplIfEEEENS0_16DefaultCompactorINS0_17AcceptorCompactorIS6_EEjNS0_19DefaultCompactStoreISt4pairISB_IiS5_EiEjEEEENS0_17DefaultCacheStoreIS6_EEEESaISI_EJEESt10shared_ptrIT_ERKT0_DpOT1_
}
{
   <openfst>
   Memcheck:Leak
   match-leak-kinds: reachable
   fun:_Znwm
   fun:_ZZN3fst16DefaultCompactorINS_17AcceptorCompactorINS_6ArcTplINS_12LogWeightTplIfEEEEEEjNS_19DefaultCompactStoreISt4pairIS8_IiS4_EiEjEEE4TypeB5cxx11EvENKUlvE_clEv
   fun:_ZN3fst16DefaultCompactorINS_17AcceptorCompactorINS_6ArcTplINS_12LogWeightTplIfEEEEEEjNS_19DefaultCompactStoreISt4pairIS8_IiS4_EiEjEEE4TypeB5cxx11Ev
   fun:_ZN3fst8internal14CompactFstImplINS_6ArcTplINS_12LogWeightTplIfEEEENS_16DefaultCompactorINS_17AcceptorCompactorIS5_EEjNS_19DefaultCompactStoreISt4pairISA_IiS4_EiEjEEEENS_17DefaultCacheStoreIS5_EEEC1Ev
   fun:_ZN9__gnu_cxx13new_allocatorIN3fst8internal14CompactFstImplINS1_6ArcTplINS1_12LogWeightTplIfEEEENS1_16DefaultCompactorINS1_17AcceptorCompactorIS7_EEjNS1_19DefaultCompactStoreISt4pairISC_IiS6_EiEjEEEENS1_17DefaultCacheStoreIS7_EEEEE9constructISJ_JEEEvPT_DpOT0_
   fun:_ZNSt16allocator_traitsISaIN3fst8internal14CompactFstImplINS0_6ArcTplINS0_12LogWeightTplIfEEEENS0_16DefaultCompactorINS0_17AcceptorCompactorIS6_EEjNS0_19DefaultCompactStoreISt4pairISB_IiS5_EiEjEEEENS0_17DefaultCacheStoreIS6_EEEEEE9constructISI_JEEEvRSJ_PT_DpOT0_
   fun:_ZNSt23_Sp_counted_ptr_inplaceIN3fst8internal14CompactFstImplINS0_6ArcTplINS0_12LogWeightTplIfEEEENS0_16DefaultCompactorINS0_17AcceptorCompactorIS6_EEjNS0_19DefaultCompactStoreISt4pairISB_IiS5_EiEjEEEENS0_17DefaultCacheStoreIS6_EEEESaISI_ELN9__gnu_cxx12_Lock_policyE2EEC1IJEEESJ_DpOT_
   fun:_ZNSt14__shared_countILN9__gnu_cxx12_Lock_policyE2EEC1IN3fst8internal14CompactFstImplINS4_6ArcTplINS4_12LogWeightTplIfEEEENS4_16DefaultCompactorINS4_17AcceptorCompactorISA_EEjNS4_19DefaultCompactStoreISt4pairISF_IiS9_EiEjEEEENS4_17DefaultCacheStoreISA_EEEESaISM_EJEEERPT_St20_Sp_alloc_shared_tagIT0_EDpOT1_
   fun:_ZNSt12__shared_ptrIN3fst8internal14CompactFstImplINS0_6ArcTplINS0_12LogWeightTplIfEEEENS0_16DefaultCompactorINS0_17AcceptorCompactorIS6_EEjNS0_19DefaultCompactStoreISt4pairISB_IiS5_EiEjEEEENS0_17DefaultCacheStoreIS6_EEEELN9__gnu_cxx12_Lock_policyE2EEC1ISaISI_EJEEESt20_Sp_alloc_shared_tagIT_EDpOT0_
   fun:_ZNSt10shared_ptrIN3fst8internal14CompactFstImplINS0_6ArcTplINS0_12LogWeightTplIfEEEENS0_16DefaultCompactorINS0_17AcceptorCompactorIS6_EEjNS0_19DefaultCompactStoreISt4pairISB_IiS5_EiEjEEEENS0_17DefaultCacheStoreIS6_EEEEEC1ISaISI_EJEEESt20_Sp_alloc_shared_tagIT_EDpOT0_
   fun:_ZSt15allocate_sharedIN3fst8internal14CompactFstImplINS0_6ArcTplINS0_12LogWeightTplIfEEEENS0_16DefaultCompactorINS0_17AcceptorCompactorIS6_EEjNS0_19DefaultCompactStoreISt4pairISB_IiS5_EiEjEEEENS0_17DefaultCacheStoreIS6_EEEESaISI_EJEESt10shared_ptrIT_ERKT0_DpOT1_
   fun:_ZSt11make_sharedIN3fst8internal14CompactFstImplINS0_6ArcTplINS0_12LogWeightTplIfEEEENS0_16DefaultCompactorINS0_17AcceptorCompactorIS6_EEjNS0_19DefaultCompactStoreISt4pairISB_IiS5_EiEjEEEENS0_17DefaultCacheStoreIS6_EEEEJEESt10shared_ptrIT_EDpOT0_
}
{
   <openfst>
   Memcheck:Leak
   match-leak-kinds: reachable
   fun:_Znwm
   fun:_ZN3fst19UnweightedCompactorINS_6ArcTplINS_17TropicalWeightTplIfEEEEE4TypeB5cxx11Ev
   fun:_ZZN3fst16DefaultCompactorINS_19UnweightedCompactorINS_6ArcTplINS_17TropicalWeightTplIfEEEEEEjNS_19DefaultCompactStoreISt4pairIS8_IiiEiEjEEE4TypeB5cxx11EvENKUlvE_clEv
   fun:_ZN3fst16DefaultCompactorINS_19UnweightedCompactorINS_6ArcTplINS_17TropicalWeightTplIfEEEEEEjNS_19DefaultCompactStoreISt4pairIS8_IiiEiEjEEE4TypeB5cxx11Ev
   fun:_ZN3fst8internal14CompactFstImplINS_6ArcTplINS_17TropicalWeightTplIfEEEENS_16DefaultCompactorINS_19UnweightedCompactorIS5_EEjNS_19DefaultCompactStoreISt4pairISA_IiiEiEjEEEENS_17DefaultCacheStoreIS5_EEEC1Ev
   fun:_ZN9__gnu_cxx13new_allocatorIN3fst8internal14CompactFstImplINS1_6ArcTplINS1_17TropicalWeightTplIfEEEENS1_16DefaultCompactorINS1_19UnweightedCompactorIS7_EEjNS1_19DefaultCompactStoreISt4pairISC_IiiEiEjEEEENS1_17DefaultCacheStoreIS7_EEEEE9constructISJ_JEEEvPT_DpOT0_
   fun:_ZNSt16allocator_traitsISaIN3fst8internal14CompactFstImplINS0_6ArcTplINS0_17TropicalWeightTplIfEEEENS0_16DefaultCompactorINS0_19UnweightedCompactorIS6_EEjNS0_19DefaultCompactStoreISt4pairISB_IiiEiEjEEEENS0_17DefaultCacheStoreIS6_EEEEEE9constructISI_JEEEvRSJ_PT_DpOT0_
   fun:_ZNSt23_Sp_counted_ptr_inplaceIN3fst8internal14CompactFstImplINS0_6ArcTplINS0_17TropicalWeightTplIfEEEENS0_16DefaultCompactorINS0_19UnweightedCompactorIS6_EEjNS0_19DefaultCompactStoreISt4pairISB_IiiEiEjEEEENS0_17DefaultCacheStoreIS6_EEEESaISI_ELN9__gnu_cxx12_Lock_policyE2EEC1IJEEESJ_DpOT_
   fun:_ZNSt14__shared_countILN9__gnu_cxx12_Lock_policyE2EEC1IN3fst8internal14CompactFstImplINS4_6ArcTplINS4_17TropicalWeightTplIfEEEENS4_16DefaultCompactorINS4_19UnweightedCompactorISA_EEjNS4_19DefaultCompactStoreISt4pairISF_IiiEiEjEEEENS4_17DefaultCacheStoreISA_EEEESaISM_EJEEERPT_St20_Sp_alloc_shared_tagIT0_EDpOT1_
   fun:_ZNSt12__shared_ptrIN3fst8internal14CompactFstImplINS0_6ArcTplINS0_17TropicalWeightTplIfEEEENS0_16DefaultCompactorINS0_19UnweightedCompactorIS6_EEjNS0_19DefaultCompactStoreISt4pairISB_IiiEiEjEEEENS0_17DefaultCacheStoreIS6_EEEELN9__gnu_cxx12_Lock_policyE2EEC1ISaISI_EJEEESt20_Sp_alloc_shared_tagIT_EDpOT0_
   fun:_ZNSt10shared_ptrIN3fst8internal14CompactFstImplINS0_6ArcTplINS0_17TropicalWeightTplIfEEEENS0_16DefaultCompactorINS0_19UnweightedCompactorIS6_EEjNS0_19DefaultCompactStoreISt4pairISB_IiiEiEjEEEENS0_17DefaultCacheStoreIS6_EEEEEC1ISaISI_EJEEESt20_Sp_alloc_shared_tagIT_EDpOT0_
   fun:_ZSt15allocate_sharedIN3fst8internal14CompactFstImplINS0_6ArcTplINS0_17TropicalWeightTplIfEEEENS0_16DefaultCompactorINS0_19UnweightedCompactorIS6_EEjNS0_19DefaultCompactStoreISt4pairISB_IiiEiEjEEEENS0_17DefaultCacheStoreIS6_EEEESaISI_EJEESt10shared_ptrIT_ERKT0_DpOT1_
}
{
   <openfst>
   Memcheck:Leak
   match-leak-kinds: reachable
   fun:_Znwm
   fun:_ZN3fst19DefaultCompactStoreISt4pairIS1_IiiEiEjE4TypeB5cxx11Ev
   fun:_ZZN3fst16DefaultCompactorINS_19UnweightedCompactorINS_6ArcTplINS_17TropicalWeightTplIfEEEEEEjNS_19DefaultCompactStoreISt4pairIS8_IiiEiEjEEE4TypeB5cxx11EvENKUlvE_clEv
   fun:_ZN3fst16DefaultCompactorINS_19UnweightedCompactorINS_6ArcTplINS_17TropicalWeightTplIfEEEEEEjNS_19DefaultCompactStoreISt4pairIS8_IiiEiEjEEE4TypeB5cxx11Ev
   fun:_ZN3fst8internal14CompactFstImplINS_6ArcTplINS_17TropicalWeightTplIfEEEENS_16DefaultCompactorINS_19UnweightedCompactorIS5_EEjNS_19DefaultCompactStoreISt4pairISA_IiiEiEjEEEENS_17DefaultCacheStoreIS5_EEEC1Ev
   fun:_ZN9__gnu_cxx13new_allocatorIN3fst8internal14CompactFstImplINS1_6ArcTplINS1_17TropicalWeightTplIfEEEENS1_16DefaultCompactorINS1_19UnweightedCompactorIS7_EEjNS1_19DefaultCompactStoreISt4pairISC_IiiEiEjEEEENS1_17DefaultCacheStoreIS7_EEEEE9constructISJ_JEEEvPT_DpOT0_
   fun:_ZNSt16allocator_traitsISaIN3fst8internal14CompactFstImplINS0_6ArcTplINS0_17TropicalWeightTplIfEEEENS0_16DefaultCompactorINS0_19UnweightedCompactorIS6_EEjNS0_19DefaultCompactStoreISt4pairISB_IiiEiEjEEEENS0_17DefaultCacheStoreIS6_EEEEEE9constructISI_JEEEvRSJ_PT_DpOT0_
   fun:_ZNSt23_Sp_counted_ptr_inplaceIN3fst8internal14CompactFstImplINS0_6ArcTplINS0_17TropicalWeightTplIfEEEENS0_16DefaultCompactorINS0_19UnweightedCompactorIS6_EEjNS0_19DefaultCompactStoreISt4pairISB_IiiEiEjEEEENS0_17DefaultCacheStoreIS6_EEEESaISI_ELN9__gnu_cxx12_Lock_policyE2EEC1IJEEESJ_DpOT_
   fun:_ZNSt14__shared_countILN9__gnu_cxx12_Lock_policyE2EEC1IN3fst8internal14CompactFstImplINS4_6ArcTplINS4_17TropicalWeightTplIfEEEENS4_16DefaultCompactorINS4_19UnweightedCompactorISA_EEjNS4_19DefaultCompactStoreISt4pairISF_IiiEiEjEEEENS4_17DefaultCacheStoreISA_EEEESaISM_EJEEERPT_St20_Sp_alloc_shared_tagIT0_EDpOT1_
   fun:_ZNSt12__shared_ptrIN3fst8internal14CompactFstImplINS0_6ArcTplINS0_17TropicalWeightTplIfEEEENS0_16DefaultCompactorINS0_19UnweightedCompactorIS6_EEjNS0_19DefaultCompactStoreISt4pairISB_IiiEiEjEEEENS0_17DefaultCacheStoreIS6_EEEELN9__gnu_cxx12_Lock_policyE2EEC1ISaISI_EJEEESt20_Sp_alloc_shared_tagIT_EDpOT0_
   fun:_ZNSt10shared_ptrIN3fst8internal14CompactFstImplINS0_6ArcTplINS0_17TropicalWeightTplIfEEEENS0_16DefaultCompactorINS0_19UnweightedCompactorIS6_EEjNS0_19DefaultCompactStoreISt4pairISB_IiiEiEjEEEENS0_17DefaultCacheStoreIS6_EEEEEC1ISaISI_EJEEESt20_Sp_alloc_shared_tagIT_EDpOT0_
   fun:_ZSt15allocate_sharedIN3fst8internal14CompactFstImplINS0_6ArcTplINS0_17TropicalWeightTplIfEEEENS0_16DefaultCompactorINS0_19UnweightedCompactorIS6_EEjNS0_19DefaultCompactStoreISt4pairISB_IiiEiEjEEEENS0_17DefaultCacheStoreIS6_EEEESaISI_EJEESt10shared_ptrIT_ERKT0_DpOT1_
}
{
   <openfst>
   Memcheck:Leak
   match-leak-kinds: reachable
   fun:_Znwm
   fun:_ZZN3fst16DefaultCompactorINS_19UnweightedCompactorINS_6ArcTplINS_17TropicalWeightTplIfEEEEEEjNS_19DefaultCompactStoreISt4pairIS8_IiiEiEjEEE4TypeB5cxx11EvENKUlvE_clEv
   fun:_ZN3fst16DefaultCompactorINS_19UnweightedCompactorINS_6ArcTplINS_17TropicalWeightTplIfEEEEEEjNS_19DefaultCompactStoreISt4pairIS8_IiiEiEjEEE4TypeB5cxx11Ev
   fun:_ZN3fst8internal14CompactFstImplINS_6ArcTplINS_17TropicalWeightTplIfEEEENS_16DefaultCompactorINS_19UnweightedCompactorIS5_EEjNS_19DefaultCompactStoreISt4pairISA_IiiEiEjEEEENS_17DefaultCacheStoreIS5_EEEC1Ev
   fun:_ZN9__gnu_cxx13new_allocatorIN3fst8internal14CompactFstImplINS1_6ArcTplINS1_17TropicalWeightTplIfEEEENS1_16DefaultCompactorINS1_19UnweightedCompactorIS7_EEjNS1_19DefaultCompactStoreISt4pairISC_IiiEiEjEEEENS1_17DefaultCacheStoreIS7_EEEEE9constructISJ_JEEEvPT_DpOT0_
   fun:_ZNSt16allocator_traitsISaIN3fst8internal14CompactFstImplINS0_6ArcTplINS0_17TropicalWeightTplIfEEEENS0_16DefaultCompactorINS0_19UnweightedCompactorIS6_EEjNS0_19DefaultCompactStoreISt4pairISB_IiiEiEjEEEENS0_17DefaultCacheStoreIS6_EEEEEE9constructISI_JEEEvRSJ_PT_DpOT0_
   fun:_ZNSt23_Sp_counted_ptr_inplaceIN3fst8internal14CompactFstImplINS0_6ArcTplINS0_17TropicalWeightTplIfEEEENS0_16DefaultCompactorINS0_19UnweightedCompactorIS6_EEjNS0_19DefaultCompactStoreISt4pairISB_IiiEiEjEEEENS0_17DefaultCacheStoreIS6_EEEESaISI_ELN9__gnu_cxx12_Lock_policyE2EEC1IJEEESJ_DpOT_
   fun:_ZNSt14__shared_countILN9__gnu_cxx12_Lock_policyE2EEC1IN3fst8internal14CompactFstImplINS4_6ArcTplINS4_17TropicalWeightTplIfEEEENS4_16DefaultCompactorINS4_19UnweightedCompactorISA_EEjNS4_19DefaultCompactStoreISt4pairISF_IiiEiEjEEEENS4_17DefaultCacheStoreISA_EEEESaISM_EJEEERPT_St20_Sp_alloc_shared_tagIT0_EDpOT1_
   fun:_ZNSt12__shared_ptrIN3fst8internal14CompactFstImplINS0_6ArcTplINS0_17TropicalWeightTplIfEEEENS0_16DefaultCompactorINS0_19UnweightedCompactorIS6_EEjNS0_19DefaultCompactStoreISt4pairISB_IiiEiEjEEEENS0_17DefaultCacheStoreIS6_EEEELN9__gnu_cxx12_Lock_policyE2EEC1ISaISI_EJEEESt20_Sp_alloc_shared_tagIT_EDpOT0_
   fun:_ZNSt10shared_ptrIN3fst8internal14CompactFstImplINS0_6ArcTplINS0_17TropicalWeightTplIfEEEENS0_16DefaultCompactorINS0_19UnweightedCompactorIS6_EEjNS0_19DefaultCompactStoreISt4pairISB_IiiEiEjEEEENS0_17DefaultCacheStoreIS6_EEEEEC1ISaISI_EJEEESt20_Sp_alloc_shared_tagIT_EDpOT0_
   fun:_ZSt15allocate_sharedIN3fst8internal14CompactFstImplINS0_6ArcTplINS0_17TropicalWeightTplIfEEEENS0_16DefaultCompactorINS0_19UnweightedCompactorIS6_EEjNS0_19DefaultCompactStoreISt4pairISB_IiiEiEjEEEENS0_17DefaultCacheStoreIS6_EEEESaISI_EJEESt10shared_ptrIT_ERKT0_DpOT1_
   fun:_ZSt11make_sharedIN3fst8internal14CompactFstImplINS0_6ArcTplINS0_17TropicalWeightTplIfEEEENS0_16DefaultCompactorINS0_19UnweightedCompactorIS6_EEjNS0_19DefaultCompactStoreISt4pairISB_IiiEiEjEEEENS0_17DefaultCacheStoreIS6_EEEEJEESt10shared_ptrIT_EDpOT0_
}
{
   <openfst>
   Memcheck:Leak
   match-leak-kinds: reachable
   fun:_Znwm
   fun:_ZN3fst19UnweightedCompactorINS_6ArcTplINS_12LogWeightTplIfEEEEE4TypeB5cxx11Ev
   fun:_ZZN3fst16DefaultCompactorINS_19UnweightedCompactorINS_6ArcTplINS_12LogWeightTplIfEEEEEEjNS_19DefaultCompactStoreISt4pairIS8_IiiEiEjEEE4TypeB5cxx11EvENKUlvE_clEv
   fun:_ZN3fst16DefaultCompactorINS_19UnweightedCompactorINS_6ArcTplINS_12LogWeightTplIfEEEEEEjNS_19DefaultCompactStoreISt4pairIS8_IiiEiEjEEE4TypeB5cxx11Ev
   fun:_ZN3fst8internal14CompactFstImplINS_6ArcTplINS_12LogWeightTplIfEEEENS_16DefaultCompactorINS_19UnweightedCompactorIS5_EEjNS_19DefaultCompactStoreISt4pairISA_IiiEiEjEEEENS_17DefaultCacheStoreIS5_EEEC1Ev
   fun:_ZN9__gnu_cxx13new_allocatorIN3fst8internal14CompactFstImplINS1_6ArcTplINS1_12LogWeightTplIfEEEENS1_16DefaultCompactorINS1_19UnweightedCompactorIS7_EEjNS1_19DefaultCompactStoreISt4pairISC_IiiEiEjEEEENS1_17DefaultCacheStoreIS7_EEEEE9constructISJ_JEEEvPT_DpOT0_
   fun:_ZNSt16allocator_traitsISaIN3fst8internal14CompactFstImplINS0_6ArcTplINS0_12LogWeightTplIfEEEENS0_16DefaultCompactorINS0_19UnweightedCompactorIS6_EEjNS0_19DefaultCompactStoreISt4pairISB_IiiEiEjEEEENS0_17DefaultCacheStoreIS6_EEEEEE9constructISI_JEEEvRSJ_PT_DpOT0_
   fun:_ZNSt23_Sp_counted_ptr_inplaceIN3fst8internal14CompactFstImplINS0_6ArcTplINS0_12LogWeightTplIfEEEENS0_16DefaultCompactorINS0_19UnweightedCompactorIS6_EEjNS0_19DefaultCompactStoreISt4pairISB_IiiEiEjEEEENS0_17DefaultCacheStoreIS6_EEEESaISI_ELN9__gnu_cxx12_Lock_policyE2EEC1IJEEESJ_DpOT_
   fun:_ZNSt14__shared_countILN9__gnu_cxx12_Lock_policyE2EEC1IN3fst8internal14CompactFstImplINS4_6ArcTplINS4_12LogWeightTplIfEEEENS4_16DefaultCompactorINS4_19UnweightedCompactorISA_EEjNS4_19DefaultCompactStoreISt4pairISF_IiiEiEjEEEENS4_17DefaultCacheStoreISA_EEEESaISM_EJEEERPT_St20_Sp_alloc_shared_tagIT0_EDpOT1_
   fun:_ZNSt12__shared_ptrIN3fst8internal14CompactFstImplINS0_6ArcTplINS0_12LogWeightTplIfEEEENS0_16DefaultCompactorINS0_19UnweightedCompactorIS6_EEjNS0_19DefaultCompactStoreISt4pairISB_IiiEiEjEEEENS0_17DefaultCacheStoreIS6_EEEELN9__gnu_cxx12_Lock_policyE2EEC1ISaISI_EJEEESt20_Sp_alloc_shared_tagIT_EDpOT0_
   fun:_ZNSt10shared_ptrIN3fst8internal14CompactFstImplINS0_6ArcTplINS0_12LogWeightTplIfEEEENS0_16DefaultCompactorINS0_19UnweightedCompactorIS6_EEjNS0_19DefaultCompactStoreISt4pairISB_IiiEiEjEEEENS0_17DefaultCacheStoreIS6_EEEEEC1ISaISI_EJEEESt20_Sp_alloc_shared_tagIT_EDpOT0_
   fun:_ZSt15allocate_sharedIN3fst8internal14CompactFstImplINS0_6ArcTplINS0_12LogWeightTplIfEEEENS0_16DefaultCompactorINS0_19UnweightedCompactorIS6_EEjNS0_19DefaultCompactStoreISt4pairISB_IiiEiEjEEEENS0_17DefaultCacheStoreIS6_EEEESaISI_EJEESt10shared_ptrIT_ERKT0_DpOT1_
}
{
   <openfst>
   Memcheck:Leak
   match-leak-kinds: reachable
   fun:_Znwm
   fun:_ZZN3fst16DefaultCompactorINS_19UnweightedCompactorINS_6ArcTplINS_12LogWeightTplIfEEEEEEjNS_19DefaultCompactStoreISt4pairIS8_IiiEiEjEEE4TypeB5cxx11EvENKUlvE_clEv
   fun:_ZN3fst16DefaultCompactorINS_19UnweightedCompactorINS_6ArcTplINS_12LogWeightTplIfEEEEEEjNS_19DefaultCompactStoreISt4pairIS8_IiiEiEjEEE4TypeB5cxx11Ev
   fun:_ZN3fst8internal14CompactFstImplINS_6ArcTplINS_12LogWeightTplIfEEEENS_16DefaultCompactorINS_19UnweightedCompactorIS5_EEjNS_19DefaultCompactStoreISt4pairISA_IiiEiEjEEEENS_17DefaultCacheStoreIS5_EEEC1Ev
   fun:_ZN9__gnu_cxx13new_allocatorIN3fst8internal14CompactFstImplINS1_6ArcTplINS1_12LogWeightTplIfEEEENS1_16DefaultCompactorINS1_19UnweightedCompactorIS7_EEjNS1_19DefaultCompactStoreISt4pairISC_IiiEiEjEEEENS1_17DefaultCacheStoreIS7_EEEEE9constructISJ_JEEEvPT_DpOT0_
   fun:_ZNSt16allocator_traitsISaIN3fst8internal14CompactFstImplINS0_6ArcTplINS0_12LogWeightTplIfEEEENS0_16DefaultCompactorINS0_19UnweightedCompactorIS6_EEjNS0_19DefaultCompactStoreISt4pairISB_IiiEiEjEEEENS0_17DefaultCacheStoreIS6_EEEEEE9constructISI_JEEEvRSJ_PT_DpOT0_
   fun:_ZNSt23_Sp_counted_ptr_inplaceIN3fst8internal14CompactFstImplINS0_6ArcTplINS0_12LogWeightTplIfEEEENS0_16DefaultCompactorINS0_19UnweightedCompactorIS6_EEjNS0_19DefaultCompactStoreISt4pairISB_IiiEiEjEEEENS0_17DefaultCacheStoreIS6_EEEESaISI_ELN9__gnu_cxx12_Lock_policyE2EEC1IJEEESJ_DpOT_
   fun:_ZNSt14__shared_countILN9__gnu_cxx12_Lock_policyE2EEC1IN3fst8internal14CompactFstImplINS4_6ArcTplINS4_12LogWeightTplIfEEEENS4_16DefaultCompactorINS4_19UnweightedCompactorISA_EEjNS4_19DefaultCompactStoreISt4pairISF_IiiEiEjEEEENS4_17DefaultCacheStoreISA_EEEESaISM_EJEEERPT_St20_Sp_alloc_shared_tagIT0_EDpOT1_
   fun:_ZNSt12__shared_ptrIN3fst8internal14CompactFstImplINS0_6ArcTplINS0_12LogWeightTplIfEEEENS0_16DefaultCompactorINS0_19UnweightedCompactorIS6_EEjNS0_19DefaultCompactStoreISt4pairISB_IiiEiEjEEEENS0_17DefaultCacheStoreIS6_EEEELN9__gnu_cxx12_Lock_policyE2EEC1ISaISI_EJEEESt20_Sp_alloc_shared_tagIT_EDpOT0_
   fun:_ZNSt10shared_ptrIN3fst8internal14CompactFstImplINS0_6ArcTplINS0_12LogWeightTplIfEEEENS0_16DefaultCompactorINS0_19UnweightedCompactorIS6_EEjNS0_19DefaultCompactStoreISt4pairISB_IiiEiEjEEEENS0_17DefaultCacheStoreIS6_EEEEEC1ISaISI_EJEEESt20_Sp_alloc_shared_tagIT_EDpOT0_
   fun:_ZSt15allocate_sharedIN3fst8internal14CompactFstImplINS0_6ArcTplINS0_12LogWeightTplIfEEEENS0_16DefaultCompactorINS0_19UnweightedCompactorIS6_EEjNS0_19DefaultCompactStoreISt4pairISB_IiiEiEjEEEENS0_17DefaultCacheStoreIS6_EEEESaISI_EJEESt10shared_ptrIT_ERKT0_DpOT1_
   fun:_ZSt11make_sharedIN3fst8internal14CompactFstImplINS0_6ArcTplINS0_12LogWeightTplIfEEEENS0_16DefaultCompactorINS0_19UnweightedCompactorIS6_EEjNS0_19DefaultCompactStoreISt4pairISB_IiiEiEjEEEENS0_17DefaultCacheStoreIS6_EEEEJEESt10shared_ptrIT_EDpOT0_
}
{
   <openfst>
   Memcheck:Leak
   match-leak-kinds: reachable
   fun:_Znwm
   fun:_ZN3fst27UnweightedAcceptorCompactorINS_6ArcTplINS_17TropicalWeightTplIfEEEEE4TypeB5cxx11Ev
   fun:_ZZN3fst16DefaultCompactorINS_27UnweightedAcceptorCompactorINS_6ArcTplINS_17TropicalWeightTplIfEEEEEEjNS_19DefaultCompactStoreISt4pairIiiEjEEE4TypeB5cxx11EvENKUlvE_clEv
   fun:_ZN3fst16DefaultCompactorINS_27UnweightedAcceptorCompactorINS_6ArcTplINS_17TropicalWeightTplIfEEEEEEjNS_19DefaultCompactStoreISt4pairIiiEjEEE4TypeB5cxx11Ev
   fun:_ZN3fst8internal14CompactFstImplINS_6ArcTplINS_17TropicalWeightTplIfEEEENS_16DefaultCompactorINS_27UnweightedAcceptorCompactorIS5_EEjNS_19DefaultCompactStoreISt4pairIiiEjEEEENS_17DefaultCacheStoreIS5_EEEC1Ev
   fun:_ZN9__gnu_cxx13new_allocatorIN3fst8internal14CompactFstImplINS1_6ArcTplINS1_17TropicalWeightTplIfEEEENS1_16DefaultCompactorINS1_27UnweightedAcceptorCompactorIS7_EEjNS1_19DefaultCompactStoreISt4pairIiiEjEEEENS1_17DefaultCacheStoreIS7_EEEEE9constructISI_JEEEvPT_DpOT0_
   fun:_ZNSt16allocator_traitsISaIN3fst8internal14CompactFstImplINS0_6ArcTplINS0_17TropicalWeightTplIfEEEENS0_16DefaultCompactorINS0_27UnweightedAcceptorCompactorIS6_EEjNS0_19DefaultCompactStoreISt4pairIiiEjEEEENS0_17DefaultCacheStoreIS6_EEEEEE9constructISH_JEEEvRSI_PT_DpOT0_
   fun:_ZNSt23_Sp_counted_ptr_inplaceIN3fst8internal14CompactFstImplINS0_6ArcTplINS0_17TropicalWeightTplIfEEEENS0_16DefaultCompactorINS0_27UnweightedAcceptorCompactorIS6_EEjNS0_19DefaultCompactStoreISt4pairIiiEjEEEENS0_17DefaultCacheStoreIS6_EEEESaISH_ELN9__gnu_cxx12_Lock_policyE2EEC1IJEEESI_DpOT_
   fun:_ZNSt14__shared_countILN9__gnu_cxx12_Lock_policyE2EEC1IN3fst8internal14CompactFstImplINS4_6ArcTplINS4_17TropicalWeightTplIfEEEENS4_16DefaultCompactorINS4_27UnweightedAcceptorCompactorISA_EEjNS4_19DefaultCompactStoreISt4pairIiiEjEEEENS4_17DefaultCacheStoreISA_EEEESaISL_EJEEERPT_St20_Sp_alloc_shared_tagIT0_EDpOT1_
   fun:_ZNSt12__shared_ptrIN3fst8internal14CompactFstImplINS0_6ArcTplINS0_17TropicalWeightTplIfEEEENS0_16DefaultCompactorINS0_27UnweightedAcceptorCompactorIS6_EEjNS0_19DefaultCompactStoreISt4pairIiiEjEEEENS0_17DefaultCacheStoreIS6_EEEELN9__gnu_cxx12_Lock_policyE2EEC1ISaISH_EJEEESt20_Sp_alloc_shared_tagIT_EDpOT0_
   fun:_ZNSt10shared_ptrIN3fst8internal14CompactFstImplINS0_6ArcTplINS0_17TropicalWeightTplIfEEEENS0_16DefaultCompactorINS0_27UnweightedAcceptorCompactorIS6_EEjNS0_19DefaultCompactStoreISt4pairIiiEjEEEENS0_17DefaultCacheStoreIS6_EEEEEC1ISaISH_EJEEESt20_Sp_alloc_shared_tagIT_EDpOT0_
   fun:_ZSt15allocate_sharedIN3fst8internal14CompactFstImplINS0_6ArcTplINS0_17TropicalWeightTplIfEEEENS0_16DefaultCompactorINS0_27UnweightedAcceptorCompactorIS6_EEjNS0_19DefaultCompactStoreISt4pairIiiEjEEEENS0_17DefaultCacheStoreIS6_EEEESaISH_EJEESt10shared_ptrIT_ERKT0_DpOT1_
}
{
   <openfst>
   Memcheck:Leak
   match-leak-kinds: reachable
   fun:_Znwm
   fun:_ZN3fst19DefaultCompactStoreISt4pairIiiEjE4TypeB5cxx11Ev
   fun:_ZZN3fst16DefaultCompactorINS_27UnweightedAcceptorCompactorINS_6ArcTplINS_17TropicalWeightTplIfEEEEEEjNS_19DefaultCompactStoreISt4pairIiiEjEEE4TypeB5cxx11EvENKUlvE_clEv
   fun:_ZN3fst16DefaultCompactorINS_27UnweightedAcceptorCompactorINS_6ArcTplINS_17TropicalWeightTplIfEEEEEEjNS_19DefaultCompactStoreISt4pairIiiEjEEE4TypeB5cxx11Ev
   fun:_ZN3fst8internal14CompactFstImplINS_6ArcTplINS_17TropicalWeightTplIfEEEENS_16DefaultCompactorINS_27UnweightedAcceptorCompactorIS5_EEjNS_19DefaultCompactStoreISt4pairIiiEjEEEENS_17DefaultCacheStoreIS5_EEEC1Ev
   fun:_ZN9__gnu_cxx13new_allocatorIN3fst8internal14CompactFstImplINS1_6ArcTplINS1_17TropicalWeightTplIfEEEENS1_16DefaultCompactorINS1_27UnweightedAcceptorCompactorIS7_EEjNS1_19DefaultCompactStoreISt4pairIiiEjEEEENS1_17DefaultCacheStoreIS7_EEEEE9constructISI_JEEEvPT_DpOT0_
   fun:_ZNSt16allocator_traitsISaIN3fst8internal14CompactFstImplINS0_6ArcTplINS0_17TropicalWeightTplIfEEEENS0_16DefaultCompactorINS0_27UnweightedAcceptorCompactorIS6_EEjNS0_19DefaultCompactStoreISt4pairIiiEjEEEENS0_17DefaultCacheStoreIS6_EEEEEE9constructISH_JEEEvRSI_PT_DpOT0_
   fun:_ZNSt23_Sp_counted_ptr_inplaceIN3fst8internal14CompactFstImplINS0_6ArcTplINS0_17TropicalWeightTplIfEEEENS0_16DefaultCompactorINS0_27UnweightedAcceptorCompactorIS6_EEjNS0_19DefaultCompactStoreISt4pairIiiEjEEEENS0_17DefaultCacheStoreIS6_EEEESaISH_ELN9__gnu_cxx12_Lock_policyE2EEC1IJEEESI_DpOT_
   fun:_ZNSt14__shared_countILN9__gnu_cxx12_Lock_policyE2EEC1IN3fst8internal14CompactFstImplINS4_6ArcTplINS4_17TropicalWeightTplIfEEEENS4_16DefaultCompactorINS4_27UnweightedAcceptorCompactorISA_EEjNS4_19DefaultCompactStoreISt4pairIiiEjEEEENS4_17DefaultCacheStoreISA_EEEESaISL_EJEEERPT_St20_Sp_alloc_shared_tagIT0_EDpOT1_
   fun:_ZNSt12__shared_ptrIN3fst8internal14CompactFstImplINS0_6ArcTplINS0_17TropicalWeightTplIfEEEENS0_16DefaultCompactorINS0_27UnweightedAcceptorCompactorIS6_EEjNS0_19DefaultCompactStoreISt4pairIiiEjEEEENS0_17DefaultCacheStoreIS6_EEEELN9__gnu_cxx12_Lock_policyE2EEC1ISaISH_EJEEESt20_Sp_alloc_shared_tagIT_EDpOT0_
   fun:_ZNSt10shared_ptrIN3fst8internal14CompactFstImplINS0_6ArcTplINS0_17TropicalWeightTplIfEEEENS0_16DefaultCompactorINS0_27UnweightedAcceptorCompactorIS6_EEjNS0_19DefaultCompactStoreISt4pairIiiEjEEEENS0_17DefaultCacheStoreIS6_EEEEEC1ISaISH_EJEEESt20_Sp_alloc_shared_tagIT_EDpOT0_
   fun:_ZSt15allocate_sharedIN3fst8internal14CompactFstImplINS0_6ArcTplINS0_17TropicalWeightTplIfEEEENS0_16DefaultCompactorINS0_27UnweightedAcceptorCompactorIS6_EEjNS0_19DefaultCompactStoreISt4pairIiiEjEEEENS0_17DefaultCacheStoreIS6_EEEESaISH_EJEESt10shared_ptrIT_ERKT0_DpOT1_
}
{
   <openfst>
   Memcheck:Leak
   match-leak-kinds: reachable
   fun:_Znwm
   fun:_ZZN3fst16DefaultCompactorINS_27UnweightedAcceptorCompactorINS_6ArcTplINS_17TropicalWeightTplIfEEEEEEjNS_19DefaultCompactStoreISt4pairIiiEjEEE4TypeB5cxx11EvENKUlvE_clEv
   fun:_ZN3fst16DefaultCompactorINS_27UnweightedAcceptorCompactorINS_6ArcTplINS_17TropicalWeightTplIfEEEEEEjNS_19DefaultCompactStoreISt4pairIiiEjEEE4TypeB5cxx11Ev
   fun:_ZN3fst8internal14CompactFstImplINS_6ArcTplINS_17TropicalWeightTplIfEEEENS_16DefaultCompactorINS_27UnweightedAcceptorCompactorIS5_EEjNS_19DefaultCompactStoreISt4pairIiiEjEEEENS_17DefaultCacheStoreIS5_EEEC1Ev
   fun:_ZN9__gnu_cxx13new_allocatorIN3fst8internal14CompactFstImplINS1_6ArcTplINS1_17TropicalWeightTplIfEEEENS1_16DefaultCompactorINS1_27UnweightedAcceptorCompactorIS7_EEjNS1_19DefaultCompactStoreISt4pairIiiEjEEEENS1_17DefaultCacheStoreIS7_EEEEE9constructISI_JEEEvPT_DpOT0_
   fun:_ZNSt16allocator_traitsISaIN3fst8internal14CompactFstImplINS0_6ArcTplINS0_17TropicalWeightTplIfEEEENS0_16DefaultCompactorINS0_27UnweightedAcceptorCompactorIS6_EEjNS0_19DefaultCompactStoreISt4pairIiiEjEEEENS0_17DefaultCacheStoreIS6_EEEEEE9constructISH_JEEEvRSI_PT_DpOT0_
   fun:_ZNSt23_Sp_counted_ptr_inplaceIN3fst8internal14CompactFstImplINS0_6ArcTplINS0_17TropicalWeightTplIfEEEENS0_16DefaultCompactorINS0_27UnweightedAcceptorCompactorIS6_EEjNS0_19DefaultCompactStoreISt4pairIiiEjEEEENS0_17DefaultCacheStoreIS6_EEEESaISH_ELN9__gnu_cxx12_Lock_policyE2EEC1IJEEESI_DpOT_
   fun:_ZNSt14__shared_countILN9__gnu_cxx12_Lock_policyE2EEC1IN3fst8internal14CompactFstImplINS4_6ArcTplINS4_17TropicalWeightTplIfEEEENS4_16DefaultCompactorINS4_27UnweightedAcceptorCompactorISA_EEjNS4_19DefaultCompactStoreISt4pairIiiEjEEEENS4_17DefaultCacheStoreISA_EEEESaISL_EJEEERPT_St20_Sp_alloc_shared_tagIT0_EDpOT1_
   fun:_ZNSt12__shared_ptrIN3fst8internal14CompactFstImplINS0_6ArcTplINS0_17TropicalWeightTplIfEEEENS0_16DefaultCompactorINS0_27UnweightedAcceptorCompactorIS6_EEjNS0_19DefaultCompactStoreISt4pairIiiEjEEEENS0_17DefaultCacheStoreIS6_EEEELN9__gnu_cxx12_Lock_policyE2EEC1ISaISH_EJEEESt20_Sp_alloc_shared_tagIT_EDpOT0_
   fun:_ZNSt10shared_ptrIN3fst8internal14CompactFstImplINS0_6ArcTplINS0_17TropicalWeightTplIfEEEENS0_16DefaultCompactorINS0_27UnweightedAcceptorCompactorIS6_EEjNS0_19DefaultCompactStoreISt4pairIiiEjEEEENS0_17DefaultCacheStoreIS6_EEEEEC1ISaISH_EJEEESt20_Sp_alloc_shared_tagIT_EDpOT0_
   fun:_ZSt15allocate_sharedIN3fst8internal14CompactFstImplINS0_6ArcTplINS0_17TropicalWeightTplIfEEEENS0_16DefaultCompactorINS0_27UnweightedAcceptorCompactorIS6_EEjNS0_19DefaultCompactStoreISt4pairIiiEjEEEENS0_17DefaultCacheStoreIS6_EEEESaISH_EJEESt10shared_ptrIT_ERKT0_DpOT1_
   fun:_ZSt11make_sharedIN3fst8internal14CompactFstImplINS0_6ArcTplINS0_17TropicalWeightTplIfEEEENS0_16DefaultCompactorINS0_27UnweightedAcceptorCompactorIS6_EEjNS0_19DefaultCompactStoreISt4pairIiiEjEEEENS0_17DefaultCacheStoreIS6_EEEEJEESt10shared_ptrIT_EDpOT0_
}
{
   <openfst>
   Memcheck:Leak
   match-leak-kinds: reachable
   fun:_Znwm
   fun:_ZN3fst27UnweightedAcceptorCompactorINS_6ArcTplINS_12LogWeightTplIfEEEEE4TypeB5cxx11Ev
   fun:_ZZN3fst16DefaultCompactorINS_27UnweightedAcceptorCompactorINS_6ArcTplINS_12LogWeightTplIfEEEEEEjNS_19DefaultCompactStoreISt4pairIiiEjEEE4TypeB5cxx11EvENKUlvE_clEv
   fun:_ZN3fst16DefaultCompactorINS_27UnweightedAcceptorCompactorINS_6ArcTplINS_12LogWeightTplIfEEEEEEjNS_19DefaultCompactStoreISt4pairIiiEjEEE4TypeB5cxx11Ev
   fun:_ZN3fst8internal14CompactFstImplINS_6ArcTplINS_12LogWeightTplIfEEEENS_16DefaultCompactorINS_27UnweightedAcceptorCompactorIS5_EEjNS_19DefaultCompactStoreISt4pairIiiEjEEEENS_17DefaultCacheStoreIS5_EEEC1Ev
   fun:_ZN9__gnu_cxx13new_allocatorIN3fst8internal14CompactFstImplINS1_6ArcTplINS1_12LogWeightTplIfEEEENS1_16DefaultCompactorINS1_27UnweightedAcceptorCompactorIS7_EEjNS1_19DefaultCompactStoreISt4pairIiiEjEEEENS1_17DefaultCacheStoreIS7_EEEEE9constructISI_JEEEvPT_DpOT0_
   fun:_ZNSt16allocator_traitsISaIN3fst8internal14CompactFstImplINS0_6ArcTplINS0_12LogWeightTplIfEEEENS0_16DefaultCompactorINS0_27UnweightedAcceptorCompactorIS6_EEjNS0_19DefaultCompactStoreISt4pairIiiEjEEEENS0_17DefaultCacheStoreIS6_EEEEEE9constructISH_JEEEvRSI_PT_DpOT0_
   fun:_ZNSt23_Sp_counted_ptr_inplaceIN3fst8internal14CompactFstImplINS0_6ArcTplINS0_12LogWeightTplIfEEEENS0_16DefaultCompactorINS0_27UnweightedAcceptorCompactorIS6_EEjNS0_19DefaultCompactStoreISt4pairIiiEjEEEENS0_17DefaultCacheStoreIS6_EEEESaISH_ELN9__gnu_cxx12_Lock_policyE2EEC1IJEEESI_DpOT_
   fun:_ZNSt14__shared_countILN9__gnu_cxx12_Lock_policyE2EEC1IN3fst8internal14CompactFstImplINS4_6ArcTplINS4_12LogWeightTplIfEEEENS4_16DefaultCompactorINS4_27UnweightedAcceptorCompactorISA_EEjNS4_19DefaultCompactStoreISt4pairIiiEjEEEENS4_17DefaultCacheStoreISA_EEEESaISL_EJEEERPT_St20_Sp_alloc_shared_tagIT0_EDpOT1_
   fun:_ZNSt12__shared_ptrIN3fst8internal14CompactFstImplINS0_6ArcTplINS0_12LogWeightTplIfEEEENS0_16DefaultCompactorINS0_27UnweightedAcceptorCompactorIS6_EEjNS0_19DefaultCompactStoreISt4pairIiiEjEEEENS0_17DefaultCacheStoreIS6_EEEELN9__gnu_cxx12_Lock_policyE2EEC1ISaISH_EJEEESt20_Sp_alloc_shared_tagIT_EDpOT0_
   fun:_ZNSt10shared_ptrIN3fst8internal14CompactFstImplINS0_6ArcTplINS0_12LogWeightTplIfEEEENS0_16DefaultCompactorINS0_27UnweightedAcceptorCompactorIS6_EEjNS0_19DefaultCompactStoreISt4pairIiiEjEEEENS0_17DefaultCacheStoreIS6_EEEEEC1ISaISH_EJEEESt20_Sp_alloc_shared_tagIT_EDpOT0_
   fun:_ZSt15allocate_sharedIN3fst8internal14CompactFstImplINS0_6ArcTplINS0_12LogWeightTplIfEEEENS0_16DefaultCompactorINS0_27UnweightedAcceptorCompactorIS6_EEjNS0_19DefaultCompactStoreISt4pairIiiEjEEEENS0_17DefaultCacheStoreIS6_EEEESaISH_EJEESt10shared_ptrIT_ERKT0_DpOT1_
}
{
   <openfst>
   Memcheck:Leak
   match-leak-kinds: reachable
   fun:_Znwm
   fun:_ZZN3fst16DefaultCompactorINS_27UnweightedAcceptorCompactorINS_6ArcTplINS_12LogWeightTplIfEEEEEEjNS_19DefaultCompactStoreISt4pairIiiEjEEE4TypeB5cxx11EvENKUlvE_clEv
   fun:_ZN3fst16DefaultCompactorINS_27UnweightedAcceptorCompactorINS_6ArcTplINS_12LogWeightTplIfEEEEEEjNS_19DefaultCompactStoreISt4pairIiiEjEEE4TypeB5cxx11Ev
   fun:_ZN3fst8internal14CompactFstImplINS_6ArcTplINS_12LogWeightTplIfEEEENS_16DefaultCompactorINS_27UnweightedAcceptorCompactorIS5_EEjNS_19DefaultCompactStoreISt4pairIiiEjEEEENS_17DefaultCacheStoreIS5_EEEC1Ev
   fun:_ZN9__gnu_cxx13new_allocatorIN3fst8internal14CompactFstImplINS1_6ArcTplINS1_12LogWeightTplIfEEEENS1_16DefaultCompactorINS1_27UnweightedAcceptorCompactorIS7_EEjNS1_19DefaultCompactStoreISt4pairIiiEjEEEENS1_17DefaultCacheStoreIS7_EEEEE9constructISI_JEEEvPT_DpOT0_
   fun:_ZNSt16allocator_traitsISaIN3fst8internal14CompactFstImplINS0_6ArcTplINS0_12LogWeightTplIfEEEENS0_16DefaultCompactorINS0_27UnweightedAcceptorCompactorIS6_EEjNS0_19DefaultCompactStoreISt4pairIiiEjEEEENS0_17DefaultCacheStoreIS6_EEEEEE9constructISH_JEEEvRSI_PT_DpOT0_
   fun:_ZNSt23_Sp_counted_ptr_inplaceIN3fst8internal14CompactFstImplINS0_6ArcTplINS0_12LogWeightTplIfEEEENS0_16DefaultCompactorINS0_27UnweightedAcceptorCompactorIS6_EEjNS0_19DefaultCompactStoreISt4pairIiiEjEEEENS0_17DefaultCacheStoreIS6_EEEESaISH_ELN9__gnu_cxx12_Lock_policyE2EEC1IJEEESI_DpOT_
   fun:_ZNSt14__shared_countILN9__gnu_cxx12_Lock_policyE2EEC1IN3fst8internal14CompactFstImplINS4_6ArcTplINS4_12LogWeightTplIfEEEENS4_16DefaultCompactorINS4_27UnweightedAcceptorCompactorISA_EEjNS4_19DefaultCompactStoreISt4pairIiiEjEEEENS4_17DefaultCacheStoreISA_EEEESaISL_EJEEERPT_St20_Sp_alloc_shared_tagIT0_EDpOT1_
   fun:_ZNSt12__shared_ptrIN3fst8internal14CompactFstImplINS0_6ArcTplINS0_12LogWeightTplIfEEEENS0_16DefaultCompactorINS0_27UnweightedAcceptorCompactorIS6_EEjNS0_19DefaultCompactStoreISt4pairIiiEjEEEENS0_17DefaultCacheStoreIS6_EEEELN9__gnu_cxx12_Lock_policyE2EEC1ISaISH_EJEEESt20_Sp_alloc_shared_tagIT_EDpOT0_
   fun:_ZNSt10shared_ptrIN3fst8internal14CompactFstImplINS0_6ArcTplINS0_12LogWeightTplIfEEEENS0_16DefaultCompactorINS0_27UnweightedAcceptorCompactorIS6_EEjNS0_19DefaultCompactStoreISt4pairIiiEjEEEENS0_17DefaultCacheStoreIS6_EEEEEC1ISaISH_EJEEESt20_Sp_alloc_shared_tagIT_EDpOT0_
   fun:_ZSt15allocate_sharedIN3fst8internal14CompactFstImplINS0_6ArcTplINS0_12LogWeightTplIfEEEENS0_16DefaultCompactorINS0_27UnweightedAcceptorCompactorIS6_EEjNS0_19DefaultCompactStoreISt4pairIiiEjEEEENS0_17DefaultCacheStoreIS6_EEEESaISH_EJEESt10shared_ptrIT_ERKT0_DpOT1_
   fun:_ZSt11make_sharedIN3fst8internal14CompactFstImplINS0_6ArcTplINS0_12LogWeightTplIfEEEENS0_16DefaultCompactorINS0_27UnweightedAcceptorCompactorIS6_EEjNS0_19DefaultCompactStoreISt4pairIiiEjEEEENS0_17DefaultCacheStoreIS6_EEEEJEESt10shared_ptrIT_EDpOT0_
}
{
   <openfst>
   Memcheck:Leak
   match-leak-kinds: reachable
   fun:_Znwm
   fun:_ZN3fst6ArcTplINS_17TropicalWeightTplIfEEE4TypeB5cxx11Ev
   fun:_ZN3fst8internal7FstImplINS_6ArcTplINS_17TropicalWeightTplIfEEEEE10ReadHeaderERSiRKNS_14FstReadOptionsEiPNS_9FstHeaderE
   fun:_ZN3fst8internal12ConstFstImplINS_6ArcTplINS_17TropicalWeightTplIfEEEEjE4ReadERSiRKNS_14FstReadOptionsE
   fun:_ZN3fst8ConstFstINS_6ArcTplINS_17TropicalWeightTplIfEEEEjE4ReadERSiRKNS_14FstReadOptionsE
   fun:_ZN6Scorer9load_trieERSt14basic_ifstreamIcSt11char_traitsIcEERKNSt7__cxx1112basic_stringIcS2_SaIcEEE
   fun:_ZN6Scorer7load_lmERKNSt7__cxx1112basic_stringIcSt11char_traitsIcESaIcEEE
   fun:_ZN6Scorer4initERKNSt7__cxx1112basic_stringIcSt11char_traitsIcESaIcEEERK8Alphabet
   fun:DS_EnableExternalScorer
   fun:main
}
{
   <openfst>
   Memcheck:Leak
   match-leak-kinds: reachable
   fun:_Znwm
   fun:_ZN3fst17TropicalWeightTplIfE4TypeB5cxx11Ev
   fun:_ZN3fst6ArcTplINS_17TropicalWeightTplIfEEE4TypeB5cxx11Ev
   fun:_ZN3fst8internal7FstImplINS_6ArcTplINS_17TropicalWeightTplIfEEEEE10ReadHeaderERSiRKNS_14FstReadOptionsEiPNS_9FstHeaderE
   fun:_ZN3fst8internal12ConstFstImplINS_6ArcTplINS_17TropicalWeightTplIfEEEEjE4ReadERSiRKNS_14FstReadOptionsE
   fun:_ZN3fst8ConstFstINS_6ArcTplINS_17TropicalWeightTplIfEEEEjE4ReadERSiRKNS_14FstReadOptionsE
   fun:_ZN6Scorer9load_trieERSt14basic_ifstreamIcSt11char_traitsIcEERKNSt7__cxx1112basic_stringIcS2_SaIcEEE
   fun:_ZN6Scorer7load_lmERKNSt7__cxx1112basic_stringIcSt11char_traitsIcESaIcEEE
   fun:_ZN6Scorer4initERKNSt7__cxx1112basic_stringIcSt11char_traitsIcESaIcEEERK8Alphabet
   fun:DS_EnableExternalScorer
   fun:main
}
{
   <openfst>
   Memcheck:Leak
   match-leak-kinds: reachable
   fun:_Znwm
   fun:_ZN9__gnu_cxx13new_allocatorISt13_Rb_tree_nodeISt4pairIKNSt7__cxx1112basic_stringIcSt11char_traitsIcESaIcEEEN3fst16FstRegisterEntryINSA_6ArcTplINSA_17TropicalWeightTplIfEEEEEEEEE8allocateEmPKv
   fun:_ZNSt16allocator_traitsISaISt13_Rb_tree_nodeISt4pairIKNSt7__cxx1112basic_stringIcSt11char_traitsIcESaIcEEEN3fst16FstRegisterEntryINS9_6ArcTplINS9_17TropicalWeightTplIfEEEEEEEEEE8allocateERSI_m
   fun:_ZNSt8_Rb_treeINSt7__cxx1112basic_stringIcSt11char_traitsIcESaIcEEESt4pairIKS5_N3fst16FstRegisterEntryINS8_6ArcTplINS8_17TropicalWeightTplIfEEEEEEESt10_Select1stISF_ESt4lessIS5_ESaISF_EE11_M_get_nodeEv
   fun:_ZNSt8_Rb_treeINSt7__cxx1112basic_stringIcSt11char_traitsIcESaIcEEESt4pairIKS5_N3fst16FstRegisterEntryINS8_6ArcTplINS8_17TropicalWeightTplIfEEEEEEESt10_Select1stISF_ESt4lessIS5_ESaISF_EE14_M_create_nodeIJS6_IS5_SE_EEEEPSt13_Rb_tree_nodeISF_EDpOT_
   fun:_ZNSt8_Rb_treeINSt7__cxx1112basic_stringIcSt11char_traitsIcESaIcEEESt4pairIKS5_N3fst16FstRegisterEntryINS8_6ArcTplINS8_17TropicalWeightTplIfEEEEEEESt10_Select1stISF_ESt4lessIS5_ESaISF_EE17_M_emplace_uniqueIJS6_IS5_SE_EEEES6_ISt17_Rb_tree_iteratorISF_EbEDpOT_
   fun:_ZNSt3mapINSt7__cxx1112basic_stringIcSt11char_traitsIcESaIcEEEN3fst16FstRegisterEntryINS6_6ArcTplINS6_17TropicalWeightTplIfEEEEEESt4lessIS5_ESaISt4pairIKS5_SC_EEE6insertISF_IS5_SC_EEENSt9enable_ifIXsrSt16is_constructibleISH_JT_EE5valueESF_ISt17_Rb_tree_iteratorISH_EbEE4typeEOSO_
   fun:_ZN3fst15GenericRegisterINSt7__cxx1112basic_stringIcSt11char_traitsIcESaIcEEENS_16FstRegisterEntryINS_6ArcTplINS_17TropicalWeightTplIfEEEEEENS_11FstRegisterISB_EEE8SetEntryERKS6_RKSC_
   fun:_ZN3fst17GenericRegistererINS_11FstRegisterINS_6ArcTplINS_17TropicalWeightTplIfEEEEEEEC1ENSt7__cxx1112basic_stringIcSt11char_traitsIcESaIcEEENS_16FstRegisterEntryIS5_EE
   fun:_ZN3fst13FstRegistererINS_9VectorFstINS_6ArcTplINS_17TropicalWeightTplIfEEEENS_11VectorStateIS5_SaIS5_EEEEEEC1Ev
   fun:_Z41__static_initialization_and_destruction_0ii
}
{
   <openfst>
   Memcheck:Leak
   match-leak-kinds: reachable
   fun:_Znwm
   fun:_ZN9__gnu_cxx13new_allocatorISt13_Rb_tree_nodeISt4pairIKNSt7__cxx1112basic_stringIcSt11char_traitsIcESaIcEEEN3fst16FstRegisterEntryINSA_6ArcTplINSA_12LogWeightTplIfEEEEEEEEE8allocateEmPKv
   fun:_ZNSt16allocator_traitsISaISt13_Rb_tree_nodeISt4pairIKNSt7__cxx1112basic_stringIcSt11char_traitsIcESaIcEEEN3fst16FstRegisterEntryINS9_6ArcTplINS9_12LogWeightTplIfEEEEEEEEEE8allocateERSI_m
   fun:_ZNSt8_Rb_treeINSt7__cxx1112basic_stringIcSt11char_traitsIcESaIcEEESt4pairIKS5_N3fst16FstRegisterEntryINS8_6ArcTplINS8_12LogWeightTplIfEEEEEEESt10_Select1stISF_ESt4lessIS5_ESaISF_EE11_M_get_nodeEv
   fun:_ZNSt8_Rb_treeINSt7__cxx1112basic_stringIcSt11char_traitsIcESaIcEEESt4pairIKS5_N3fst16FstRegisterEntryINS8_6ArcTplINS8_12LogWeightTplIfEEEEEEESt10_Select1stISF_ESt4lessIS5_ESaISF_EE14_M_create_nodeIJS6_IS5_SE_EEEEPSt13_Rb_tree_nodeISF_EDpOT_
   fun:_ZNSt8_Rb_treeINSt7__cxx1112basic_stringIcSt11char_traitsIcESaIcEEESt4pairIKS5_N3fst16FstRegisterEntryINS8_6ArcTplINS8_12LogWeightTplIfEEEEEEESt10_Select1stISF_ESt4lessIS5_ESaISF_EE17_M_emplace_uniqueIJS6_IS5_SE_EEEES6_ISt17_Rb_tree_iteratorISF_EbEDpOT_
   fun:_ZNSt3mapINSt7__cxx1112basic_stringIcSt11char_traitsIcESaIcEEEN3fst16FstRegisterEntryINS6_6ArcTplINS6_12LogWeightTplIfEEEEEESt4lessIS5_ESaISt4pairIKS5_SC_EEE6insertISF_IS5_SC_EEENSt9enable_ifIXsrSt16is_constructibleISH_JT_EE5valueESF_ISt17_Rb_tree_iteratorISH_EbEE4typeEOSO_
   fun:_ZN3fst15GenericRegisterINSt7__cxx1112basic_stringIcSt11char_traitsIcESaIcEEENS_16FstRegisterEntryINS_6ArcTplINS_12LogWeightTplIfEEEEEENS_11FstRegisterISB_EEE8SetEntryERKS6_RKSC_
   fun:_ZN3fst17GenericRegistererINS_11FstRegisterINS_6ArcTplINS_12LogWeightTplIfEEEEEEEC1ENSt7__cxx1112basic_stringIcSt11char_traitsIcESaIcEEENS_16FstRegisterEntryIS5_EE
   fun:_ZN3fst13FstRegistererINS_9VectorFstINS_6ArcTplINS_12LogWeightTplIfEEEENS_11VectorStateIS5_SaIS5_EEEEEEC1Ev
   fun:_Z41__static_initialization_and_destruction_0ii
}
{
   <openfst>
   Memcheck:Leak
   match-leak-kinds: reachable
   fun:_Znwm
   fun:_ZN9__gnu_cxx13new_allocatorISt13_Rb_tree_nodeISt4pairIKNSt7__cxx1112basic_stringIcSt11char_traitsIcESaIcEEEN3fst16FstRegisterEntryINSA_6ArcTplINSA_12LogWeightTplIdEEEEEEEEE8allocateEmPKv
   fun:_ZNSt16allocator_traitsISaISt13_Rb_tree_nodeISt4pairIKNSt7__cxx1112basic_stringIcSt11char_traitsIcESaIcEEEN3fst16FstRegisterEntryINS9_6ArcTplINS9_12LogWeightTplIdEEEEEEEEEE8allocateERSI_m
   fun:_ZNSt8_Rb_treeINSt7__cxx1112basic_stringIcSt11char_traitsIcESaIcEEESt4pairIKS5_N3fst16FstRegisterEntryINS8_6ArcTplINS8_12LogWeightTplIdEEEEEEESt10_Select1stISF_ESt4lessIS5_ESaISF_EE11_M_get_nodeEv
   fun:_ZNSt8_Rb_treeINSt7__cxx1112basic_stringIcSt11char_traitsIcESaIcEEESt4pairIKS5_N3fst16FstRegisterEntryINS8_6ArcTplINS8_12LogWeightTplIdEEEEEEESt10_Select1stISF_ESt4lessIS5_ESaISF_EE14_M_create_nodeIJS6_IS5_SE_EEEEPSt13_Rb_tree_nodeISF_EDpOT_
   fun:_ZNSt8_Rb_treeINSt7__cxx1112basic_stringIcSt11char_traitsIcESaIcEEESt4pairIKS5_N3fst16FstRegisterEntryINS8_6ArcTplINS8_12LogWeightTplIdEEEEEEESt10_Select1stISF_ESt4lessIS5_ESaISF_EE17_M_emplace_uniqueIJS6_IS5_SE_EEEES6_ISt17_Rb_tree_iteratorISF_EbEDpOT_
   fun:_ZNSt3mapINSt7__cxx1112basic_stringIcSt11char_traitsIcESaIcEEEN3fst16FstRegisterEntryINS6_6ArcTplINS6_12LogWeightTplIdEEEEEESt4lessIS5_ESaISt4pairIKS5_SC_EEE6insertISF_IS5_SC_EEENSt9enable_ifIXsrSt16is_constructibleISH_JT_EE5valueESF_ISt17_Rb_tree_iteratorISH_EbEE4typeEOSO_
   fun:_ZN3fst15GenericRegisterINSt7__cxx1112basic_stringIcSt11char_traitsIcESaIcEEENS_16FstRegisterEntryINS_6ArcTplINS_12LogWeightTplIdEEEEEENS_11FstRegisterISB_EEE8SetEntryERKS6_RKSC_
   fun:_ZN3fst17GenericRegistererINS_11FstRegisterINS_6ArcTplINS_12LogWeightTplIdEEEEEEEC1ENSt7__cxx1112basic_stringIcSt11char_traitsIcESaIcEEENS_16FstRegisterEntryIS5_EE
   fun:_ZN3fst13FstRegistererINS_9VectorFstINS_6ArcTplINS_12LogWeightTplIdEEEENS_11VectorStateIS5_SaIS5_EEEEEEC1Ev
   fun:_Z41__static_initialization_and_destruction_0ii
}
{
   <openfst>
   Memcheck:Leak
   match-leak-kinds: reachable
   fun:_Znwm
   fun:_ZN9__gnu_cxx13new_allocatorISt13_Rb_tree_nodeISt4pairIKNSt7__cxx1112basic_stringIcSt11char_traitsIcESaIcEEEN3fst16FstRegisterEntryINSA_6ArcTplINSA_17TropicalWeightTplIfEEEEEEEEE8allocateEmPKv
   fun:_ZNSt16allocator_traitsISaISt13_Rb_tree_nodeISt4pairIKNSt7__cxx1112basic_stringIcSt11char_traitsIcESaIcEEEN3fst16FstRegisterEntryINS9_6ArcTplINS9_17TropicalWeightTplIfEEEEEEEEEE8allocateERSI_m
   fun:_ZNSt8_Rb_treeINSt7__cxx1112basic_stringIcSt11char_traitsIcESaIcEEESt4pairIKS5_N3fst16FstRegisterEntryINS8_6ArcTplINS8_17TropicalWeightTplIfEEEEEEESt10_Select1stISF_ESt4lessIS5_ESaISF_EE11_M_get_nodeEv
   fun:_ZNSt8_Rb_treeINSt7__cxx1112basic_stringIcSt11char_traitsIcESaIcEEESt4pairIKS5_N3fst16FstRegisterEntryINS8_6ArcTplINS8_17TropicalWeightTplIfEEEEEEESt10_Select1stISF_ESt4lessIS5_ESaISF_EE14_M_create_nodeIJS6_IS5_SE_EEEEPSt13_Rb_tree_nodeISF_EDpOT_
   fun:_ZNSt8_Rb_treeINSt7__cxx1112basic_stringIcSt11char_traitsIcESaIcEEESt4pairIKS5_N3fst16FstRegisterEntryINS8_6ArcTplINS8_17TropicalWeightTplIfEEEEEEESt10_Select1stISF_ESt4lessIS5_ESaISF_EE17_M_emplace_uniqueIJS6_IS5_SE_EEEES6_ISt17_Rb_tree_iteratorISF_EbEDpOT_
   fun:_ZNSt3mapINSt7__cxx1112basic_stringIcSt11char_traitsIcESaIcEEEN3fst16FstRegisterEntryINS6_6ArcTplINS6_17TropicalWeightTplIfEEEEEESt4lessIS5_ESaISt4pairIKS5_SC_EEE6insertISF_IS5_SC_EEENSt9enable_ifIXsrSt16is_constructibleISH_JT_EE5valueESF_ISt17_Rb_tree_iteratorISH_EbEE4typeEOSO_
   fun:_ZN3fst15GenericRegisterINSt7__cxx1112basic_stringIcSt11char_traitsIcESaIcEEENS_16FstRegisterEntryINS_6ArcTplINS_17TropicalWeightTplIfEEEEEENS_11FstRegisterISB_EEE8SetEntryERKS6_RKSC_
   fun:_ZN3fst17GenericRegistererINS_11FstRegisterINS_6ArcTplINS_17TropicalWeightTplIfEEEEEEEC1ENSt7__cxx1112basic_stringIcSt11char_traitsIcESaIcEEENS_16FstRegisterEntryIS5_EE
   fun:_ZN3fst13FstRegistererINS_8ConstFstINS_6ArcTplINS_17TropicalWeightTplIfEEEEjEEEC1Ev
   fun:_Z41__static_initialization_and_destruction_0ii
}
{
   <openfst>
   Memcheck:Leak
   match-leak-kinds: reachable
   fun:_Znwm
   fun:_ZN9__gnu_cxx13new_allocatorISt13_Rb_tree_nodeISt4pairIKNSt7__cxx1112basic_stringIcSt11char_traitsIcESaIcEEEN3fst16FstRegisterEntryINSA_6ArcTplINSA_12LogWeightTplIfEEEEEEEEE8allocateEmPKv
   fun:_ZNSt16allocator_traitsISaISt13_Rb_tree_nodeISt4pairIKNSt7__cxx1112basic_stringIcSt11char_traitsIcESaIcEEEN3fst16FstRegisterEntryINS9_6ArcTplINS9_12LogWeightTplIfEEEEEEEEEE8allocateERSI_m
   fun:_ZNSt8_Rb_treeINSt7__cxx1112basic_stringIcSt11char_traitsIcESaIcEEESt4pairIKS5_N3fst16FstRegisterEntryINS8_6ArcTplINS8_12LogWeightTplIfEEEEEEESt10_Select1stISF_ESt4lessIS5_ESaISF_EE11_M_get_nodeEv
   fun:_ZNSt8_Rb_treeINSt7__cxx1112basic_stringIcSt11char_traitsIcESaIcEEESt4pairIKS5_N3fst16FstRegisterEntryINS8_6ArcTplINS8_12LogWeightTplIfEEEEEEESt10_Select1stISF_ESt4lessIS5_ESaISF_EE14_M_create_nodeIJS6_IS5_SE_EEEEPSt13_Rb_tree_nodeISF_EDpOT_
   fun:_ZNSt8_Rb_treeINSt7__cxx1112basic_stringIcSt11char_traitsIcESaIcEEESt4pairIKS5_N3fst16FstRegisterEntryINS8_6ArcTplINS8_12LogWeightTplIfEEEEEEESt10_Select1stISF_ESt4lessIS5_ESaISF_EE17_M_emplace_uniqueIJS6_IS5_SE_EEEES6_ISt17_Rb_tree_iteratorISF_EbEDpOT_
   fun:_ZNSt3mapINSt7__cxx1112basic_stringIcSt11char_traitsIcESaIcEEEN3fst16FstRegisterEntryINS6_6ArcTplINS6_12LogWeightTplIfEEEEEESt4lessIS5_ESaISt4pairIKS5_SC_EEE6insertISF_IS5_SC_EEENSt9enable_ifIXsrSt16is_constructibleISH_JT_EE5valueESF_ISt17_Rb_tree_iteratorISH_EbEE4typeEOSO_
   fun:_ZN3fst15GenericRegisterINSt7__cxx1112basic_stringIcSt11char_traitsIcESaIcEEENS_16FstRegisterEntryINS_6ArcTplINS_12LogWeightTplIfEEEEEENS_11FstRegisterISB_EEE8SetEntryERKS6_RKSC_
   fun:_ZN3fst17GenericRegistererINS_11FstRegisterINS_6ArcTplINS_12LogWeightTplIfEEEEEEEC1ENSt7__cxx1112basic_stringIcSt11char_traitsIcESaIcEEENS_16FstRegisterEntryIS5_EE
   fun:_ZN3fst13FstRegistererINS_8ConstFstINS_6ArcTplINS_12LogWeightTplIfEEEEjEEEC1Ev
   fun:_Z41__static_initialization_and_destruction_0ii
}
{
   <openfst>
   Memcheck:Leak
   match-leak-kinds: reachable
   fun:_Znwm
   fun:_ZN9__gnu_cxx13new_allocatorISt13_Rb_tree_nodeISt4pairIKNSt7__cxx1112basic_stringIcSt11char_traitsIcESaIcEEEN3fst16FstRegisterEntryINSA_6ArcTplINSA_12LogWeightTplIdEEEEEEEEE8allocateEmPKv
   fun:_ZNSt16allocator_traitsISaISt13_Rb_tree_nodeISt4pairIKNSt7__cxx1112basic_stringIcSt11char_traitsIcESaIcEEEN3fst16FstRegisterEntryINS9_6ArcTplINS9_12LogWeightTplIdEEEEEEEEEE8allocateERSI_m
   fun:_ZNSt8_Rb_treeINSt7__cxx1112basic_stringIcSt11char_traitsIcESaIcEEESt4pairIKS5_N3fst16FstRegisterEntryINS8_6ArcTplINS8_12LogWeightTplIdEEEEEEESt10_Select1stISF_ESt4lessIS5_ESaISF_EE11_M_get_nodeEv
   fun:_ZNSt8_Rb_treeINSt7__cxx1112basic_stringIcSt11char_traitsIcESaIcEEESt4pairIKS5_N3fst16FstRegisterEntryINS8_6ArcTplINS8_12LogWeightTplIdEEEEEEESt10_Select1stISF_ESt4lessIS5_ESaISF_EE14_M_create_nodeIJS6_IS5_SE_EEEEPSt13_Rb_tree_nodeISF_EDpOT_
   fun:_ZNSt8_Rb_treeINSt7__cxx1112basic_stringIcSt11char_traitsIcESaIcEEESt4pairIKS5_N3fst16FstRegisterEntryINS8_6ArcTplINS8_12LogWeightTplIdEEEEEEESt10_Select1stISF_ESt4lessIS5_ESaISF_EE17_M_emplace_uniqueIJS6_IS5_SE_EEEES6_ISt17_Rb_tree_iteratorISF_EbEDpOT_
   fun:_ZNSt3mapINSt7__cxx1112basic_stringIcSt11char_traitsIcESaIcEEEN3fst16FstRegisterEntryINS6_6ArcTplINS6_12LogWeightTplIdEEEEEESt4lessIS5_ESaISt4pairIKS5_SC_EEE6insertISF_IS5_SC_EEENSt9enable_ifIXsrSt16is_constructibleISH_JT_EE5valueESF_ISt17_Rb_tree_iteratorISH_EbEE4typeEOSO_
   fun:_ZN3fst15GenericRegisterINSt7__cxx1112basic_stringIcSt11char_traitsIcESaIcEEENS_16FstRegisterEntryINS_6ArcTplINS_12LogWeightTplIdEEEEEENS_11FstRegisterISB_EEE8SetEntryERKS6_RKSC_
   fun:_ZN3fst17GenericRegistererINS_11FstRegisterINS_6ArcTplINS_12LogWeightTplIdEEEEEEEC1ENSt7__cxx1112basic_stringIcSt11char_traitsIcESaIcEEENS_16FstRegisterEntryIS5_EE
   fun:_ZN3fst13FstRegistererINS_8ConstFstINS_6ArcTplINS_12LogWeightTplIdEEEEjEEEC1Ev
   fun:_Z41__static_initialization_and_destruction_0ii
}
{
   <openfst>
   Memcheck:Leak
   match-leak-kinds: reachable
   fun:_Znwm
   fun:_ZN9__gnu_cxx13new_allocatorISt13_Rb_tree_nodeISt4pairIKNSt7__cxx1112basic_stringIcSt11char_traitsIcESaIcEEEN3fst16FstRegisterEntryINSA_6ArcTplINSA_17TropicalWeightTplIfEEEEEEEEE8allocateEmPKv
   fun:_ZNSt16allocator_traitsISaISt13_Rb_tree_nodeISt4pairIKNSt7__cxx1112basic_stringIcSt11char_traitsIcESaIcEEEN3fst16FstRegisterEntryINS9_6ArcTplINS9_17TropicalWeightTplIfEEEEEEEEEE8allocateERSI_m
   fun:_ZNSt8_Rb_treeINSt7__cxx1112basic_stringIcSt11char_traitsIcESaIcEEESt4pairIKS5_N3fst16FstRegisterEntryINS8_6ArcTplINS8_17TropicalWeightTplIfEEEEEEESt10_Select1stISF_ESt4lessIS5_ESaISF_EE11_M_get_nodeEv
   fun:_ZNSt8_Rb_treeINSt7__cxx1112basic_stringIcSt11char_traitsIcESaIcEEESt4pairIKS5_N3fst16FstRegisterEntryINS8_6ArcTplINS8_17TropicalWeightTplIfEEEEEEESt10_Select1stISF_ESt4lessIS5_ESaISF_EE14_M_create_nodeIJS6_IS5_SE_EEEEPSt13_Rb_tree_nodeISF_EDpOT_
   fun:_ZNSt8_Rb_treeINSt7__cxx1112basic_stringIcSt11char_traitsIcESaIcEEESt4pairIKS5_N3fst16FstRegisterEntryINS8_6ArcTplINS8_17TropicalWeightTplIfEEEEEEESt10_Select1stISF_ESt4lessIS5_ESaISF_EE17_M_emplace_uniqueIJS6_IS5_SE_EEEES6_ISt17_Rb_tree_iteratorISF_EbEDpOT_
   fun:_ZNSt3mapINSt7__cxx1112basic_stringIcSt11char_traitsIcESaIcEEEN3fst16FstRegisterEntryINS6_6ArcTplINS6_17TropicalWeightTplIfEEEEEESt4lessIS5_ESaISt4pairIKS5_SC_EEE6insertISF_IS5_SC_EEENSt9enable_ifIXsrSt16is_constructibleISH_JT_EE5valueESF_ISt17_Rb_tree_iteratorISH_EbEE4typeEOSO_
   fun:_ZN3fst15GenericRegisterINSt7__cxx1112basic_stringIcSt11char_traitsIcESaIcEEENS_16FstRegisterEntryINS_6ArcTplINS_17TropicalWeightTplIfEEEEEENS_11FstRegisterISB_EEE8SetEntryERKS6_RKSC_
   fun:_ZN3fst17GenericRegistererINS_11FstRegisterINS_6ArcTplINS_17TropicalWeightTplIfEEEEEEEC1ENSt7__cxx1112basic_stringIcSt11char_traitsIcESaIcEEENS_16FstRegisterEntryIS5_EE
   fun:_ZN3fst13FstRegistererINS_7EditFstINS_6ArcTplINS_17TropicalWeightTplIfEEEENS_11ExpandedFstIS5_EENS_9VectorFstIS5_NS_11VectorStateIS5_SaIS5_EEEEEEEEC1Ev
   fun:_Z41__static_initialization_and_destruction_0ii
}
{
   <openfst>
   Memcheck:Leak
   match-leak-kinds: reachable
   fun:_Znwm
   fun:_ZN9__gnu_cxx13new_allocatorISt13_Rb_tree_nodeISt4pairIKNSt7__cxx1112basic_stringIcSt11char_traitsIcESaIcEEEN3fst16FstRegisterEntryINSA_6ArcTplINSA_12LogWeightTplIfEEEEEEEEE8allocateEmPKv
   fun:_ZNSt16allocator_traitsISaISt13_Rb_tree_nodeISt4pairIKNSt7__cxx1112basic_stringIcSt11char_traitsIcESaIcEEEN3fst16FstRegisterEntryINS9_6ArcTplINS9_12LogWeightTplIfEEEEEEEEEE8allocateERSI_m
   fun:_ZNSt8_Rb_treeINSt7__cxx1112basic_stringIcSt11char_traitsIcESaIcEEESt4pairIKS5_N3fst16FstRegisterEntryINS8_6ArcTplINS8_12LogWeightTplIfEEEEEEESt10_Select1stISF_ESt4lessIS5_ESaISF_EE11_M_get_nodeEv
   fun:_ZNSt8_Rb_treeINSt7__cxx1112basic_stringIcSt11char_traitsIcESaIcEEESt4pairIKS5_N3fst16FstRegisterEntryINS8_6ArcTplINS8_12LogWeightTplIfEEEEEEESt10_Select1stISF_ESt4lessIS5_ESaISF_EE14_M_create_nodeIJS6_IS5_SE_EEEEPSt13_Rb_tree_nodeISF_EDpOT_
   fun:_ZNSt8_Rb_treeINSt7__cxx1112basic_stringIcSt11char_traitsIcESaIcEEESt4pairIKS5_N3fst16FstRegisterEntryINS8_6ArcTplINS8_12LogWeightTplIfEEEEEEESt10_Select1stISF_ESt4lessIS5_ESaISF_EE17_M_emplace_uniqueIJS6_IS5_SE_EEEES6_ISt17_Rb_tree_iteratorISF_EbEDpOT_
   fun:_ZNSt3mapINSt7__cxx1112basic_stringIcSt11char_traitsIcESaIcEEEN3fst16FstRegisterEntryINS6_6ArcTplINS6_12LogWeightTplIfEEEEEESt4lessIS5_ESaISt4pairIKS5_SC_EEE6insertISF_IS5_SC_EEENSt9enable_ifIXsrSt16is_constructibleISH_JT_EE5valueESF_ISt17_Rb_tree_iteratorISH_EbEE4typeEOSO_
   fun:_ZN3fst15GenericRegisterINSt7__cxx1112basic_stringIcSt11char_traitsIcESaIcEEENS_16FstRegisterEntryINS_6ArcTplINS_12LogWeightTplIfEEEEEENS_11FstRegisterISB_EEE8SetEntryERKS6_RKSC_
   fun:_ZN3fst17GenericRegistererINS_11FstRegisterINS_6ArcTplINS_12LogWeightTplIfEEEEEEEC1ENSt7__cxx1112basic_stringIcSt11char_traitsIcESaIcEEENS_16FstRegisterEntryIS5_EE
   fun:_ZN3fst13FstRegistererINS_7EditFstINS_6ArcTplINS_12LogWeightTplIfEEEENS_11ExpandedFstIS5_EENS_9VectorFstIS5_NS_11VectorStateIS5_SaIS5_EEEEEEEEC1Ev
   fun:_Z41__static_initialization_and_destruction_0ii
}
{
   <openfst>
   Memcheck:Leak
   match-leak-kinds: reachable
   fun:_Znwm
   fun:_ZN9__gnu_cxx13new_allocatorISt13_Rb_tree_nodeISt4pairIKNSt7__cxx1112basic_stringIcSt11char_traitsIcESaIcEEEN3fst16FstRegisterEntryINSA_6ArcTplINSA_12LogWeightTplIdEEEEEEEEE8allocateEmPKv
   fun:_ZNSt16allocator_traitsISaISt13_Rb_tree_nodeISt4pairIKNSt7__cxx1112basic_stringIcSt11char_traitsIcESaIcEEEN3fst16FstRegisterEntryINS9_6ArcTplINS9_12LogWeightTplIdEEEEEEEEEE8allocateERSI_m
   fun:_ZNSt8_Rb_treeINSt7__cxx1112basic_stringIcSt11char_traitsIcESaIcEEESt4pairIKS5_N3fst16FstRegisterEntryINS8_6ArcTplINS8_12LogWeightTplIdEEEEEEESt10_Select1stISF_ESt4lessIS5_ESaISF_EE11_M_get_nodeEv
   fun:_ZNSt8_Rb_treeINSt7__cxx1112basic_stringIcSt11char_traitsIcESaIcEEESt4pairIKS5_N3fst16FstRegisterEntryINS8_6ArcTplINS8_12LogWeightTplIdEEEEEEESt10_Select1stISF_ESt4lessIS5_ESaISF_EE14_M_create_nodeIJS6_IS5_SE_EEEEPSt13_Rb_tree_nodeISF_EDpOT_
   fun:_ZNSt8_Rb_treeINSt7__cxx1112basic_stringIcSt11char_traitsIcESaIcEEESt4pairIKS5_N3fst16FstRegisterEntryINS8_6ArcTplINS8_12LogWeightTplIdEEEEEEESt10_Select1stISF_ESt4lessIS5_ESaISF_EE17_M_emplace_uniqueIJS6_IS5_SE_EEEES6_ISt17_Rb_tree_iteratorISF_EbEDpOT_
   fun:_ZNSt3mapINSt7__cxx1112basic_stringIcSt11char_traitsIcESaIcEEEN3fst16FstRegisterEntryINS6_6ArcTplINS6_12LogWeightTplIdEEEEEESt4lessIS5_ESaISt4pairIKS5_SC_EEE6insertISF_IS5_SC_EEENSt9enable_ifIXsrSt16is_constructibleISH_JT_EE5valueESF_ISt17_Rb_tree_iteratorISH_EbEE4typeEOSO_
   fun:_ZN3fst15GenericRegisterINSt7__cxx1112basic_stringIcSt11char_traitsIcESaIcEEENS_16FstRegisterEntryINS_6ArcTplINS_12LogWeightTplIdEEEEEENS_11FstRegisterISB_EEE8SetEntryERKS6_RKSC_
   fun:_ZN3fst17GenericRegistererINS_11FstRegisterINS_6ArcTplINS_12LogWeightTplIdEEEEEEEC1ENSt7__cxx1112basic_stringIcSt11char_traitsIcESaIcEEENS_16FstRegisterEntryIS5_EE
   fun:_ZN3fst13FstRegistererINS_7EditFstINS_6ArcTplINS_12LogWeightTplIdEEEENS_11ExpandedFstIS5_EENS_9VectorFstIS5_NS_11VectorStateIS5_SaIS5_EEEEEEEEC1Ev
   fun:_Z41__static_initialization_and_destruction_0ii
}
{
   <openfst>
   Memcheck:Leak
   match-leak-kinds: reachable
   fun:_Znwm
   fun:_ZN9__gnu_cxx13new_allocatorISt13_Rb_tree_nodeISt4pairIKNSt7__cxx1112basic_stringIcSt11char_traitsIcESaIcEEEN3fst16FstRegisterEntryINSA_6ArcTplINSA_17TropicalWeightTplIfEEEEEEEEE8allocateEmPKv
   fun:_ZNSt16allocator_traitsISaISt13_Rb_tree_nodeISt4pairIKNSt7__cxx1112basic_stringIcSt11char_traitsIcESaIcEEEN3fst16FstRegisterEntryINS9_6ArcTplINS9_17TropicalWeightTplIfEEEEEEEEEE8allocateERSI_m
   fun:_ZNSt8_Rb_treeINSt7__cxx1112basic_stringIcSt11char_traitsIcESaIcEEESt4pairIKS5_N3fst16FstRegisterEntryINS8_6ArcTplINS8_17TropicalWeightTplIfEEEEEEESt10_Select1stISF_ESt4lessIS5_ESaISF_EE11_M_get_nodeEv
   fun:_ZNSt8_Rb_treeINSt7__cxx1112basic_stringIcSt11char_traitsIcESaIcEEESt4pairIKS5_N3fst16FstRegisterEntryINS8_6ArcTplINS8_17TropicalWeightTplIfEEEEEEESt10_Select1stISF_ESt4lessIS5_ESaISF_EE14_M_create_nodeIJS6_IS5_SE_EEEEPSt13_Rb_tree_nodeISF_EDpOT_
   fun:_ZNSt8_Rb_treeINSt7__cxx1112basic_stringIcSt11char_traitsIcESaIcEEESt4pairIKS5_N3fst16FstRegisterEntryINS8_6ArcTplINS8_17TropicalWeightTplIfEEEEEEESt10_Select1stISF_ESt4lessIS5_ESaISF_EE17_M_emplace_uniqueIJS6_IS5_SE_EEEES6_ISt17_Rb_tree_iteratorISF_EbEDpOT_
   fun:_ZNSt3mapINSt7__cxx1112basic_stringIcSt11char_traitsIcESaIcEEEN3fst16FstRegisterEntryINS6_6ArcTplINS6_17TropicalWeightTplIfEEEEEESt4lessIS5_ESaISt4pairIKS5_SC_EEE6insertISF_IS5_SC_EEENSt9enable_ifIXsrSt16is_constructibleISH_JT_EE5valueESF_ISt17_Rb_tree_iteratorISH_EbEE4typeEOSO_
   fun:_ZN3fst15GenericRegisterINSt7__cxx1112basic_stringIcSt11char_traitsIcESaIcEEENS_16FstRegisterEntryINS_6ArcTplINS_17TropicalWeightTplIfEEEEEENS_11FstRegisterISB_EEE8SetEntryERKS6_RKSC_
   fun:_ZN3fst17GenericRegistererINS_11FstRegisterINS_6ArcTplINS_17TropicalWeightTplIfEEEEEEEC1ENSt7__cxx1112basic_stringIcSt11char_traitsIcESaIcEEENS_16FstRegisterEntryIS5_EE
   fun:_ZN3fst13FstRegistererINS_10CompactFstINS_6ArcTplINS_17TropicalWeightTplIfEEEENS_15StringCompactorIS5_EEjNS_19DefaultCompactStoreIijEENS_17DefaultCacheStoreIS5_EEEEEC1Ev
   fun:_Z41__static_initialization_and_destruction_0ii
}
{
   <openfst>
   Memcheck:Leak
   match-leak-kinds: reachable
   fun:_Znwm
   fun:_ZN9__gnu_cxx13new_allocatorISt13_Rb_tree_nodeISt4pairIKNSt7__cxx1112basic_stringIcSt11char_traitsIcESaIcEEEN3fst16FstRegisterEntryINSA_6ArcTplINSA_12LogWeightTplIfEEEEEEEEE8allocateEmPKv
   fun:_ZNSt16allocator_traitsISaISt13_Rb_tree_nodeISt4pairIKNSt7__cxx1112basic_stringIcSt11char_traitsIcESaIcEEEN3fst16FstRegisterEntryINS9_6ArcTplINS9_12LogWeightTplIfEEEEEEEEEE8allocateERSI_m
   fun:_ZNSt8_Rb_treeINSt7__cxx1112basic_stringIcSt11char_traitsIcESaIcEEESt4pairIKS5_N3fst16FstRegisterEntryINS8_6ArcTplINS8_12LogWeightTplIfEEEEEEESt10_Select1stISF_ESt4lessIS5_ESaISF_EE11_M_get_nodeEv
   fun:_ZNSt8_Rb_treeINSt7__cxx1112basic_stringIcSt11char_traitsIcESaIcEEESt4pairIKS5_N3fst16FstRegisterEntryINS8_6ArcTplINS8_12LogWeightTplIfEEEEEEESt10_Select1stISF_ESt4lessIS5_ESaISF_EE14_M_create_nodeIJS6_IS5_SE_EEEEPSt13_Rb_tree_nodeISF_EDpOT_
   fun:_ZNSt8_Rb_treeINSt7__cxx1112basic_stringIcSt11char_traitsIcESaIcEEESt4pairIKS5_N3fst16FstRegisterEntryINS8_6ArcTplINS8_12LogWeightTplIfEEEEEEESt10_Select1stISF_ESt4lessIS5_ESaISF_EE17_M_emplace_uniqueIJS6_IS5_SE_EEEES6_ISt17_Rb_tree_iteratorISF_EbEDpOT_
   fun:_ZNSt3mapINSt7__cxx1112basic_stringIcSt11char_traitsIcESaIcEEEN3fst16FstRegisterEntryINS6_6ArcTplINS6_12LogWeightTplIfEEEEEESt4lessIS5_ESaISt4pairIKS5_SC_EEE6insertISF_IS5_SC_EEENSt9enable_ifIXsrSt16is_constructibleISH_JT_EE5valueESF_ISt17_Rb_tree_iteratorISH_EbEE4typeEOSO_
   fun:_ZN3fst15GenericRegisterINSt7__cxx1112basic_stringIcSt11char_traitsIcESaIcEEENS_16FstRegisterEntryINS_6ArcTplINS_12LogWeightTplIfEEEEEENS_11FstRegisterISB_EEE8SetEntryERKS6_RKSC_
   fun:_ZN3fst17GenericRegistererINS_11FstRegisterINS_6ArcTplINS_12LogWeightTplIfEEEEEEEC1ENSt7__cxx1112basic_stringIcSt11char_traitsIcESaIcEEENS_16FstRegisterEntryIS5_EE
   fun:_ZN3fst13FstRegistererINS_10CompactFstINS_6ArcTplINS_12LogWeightTplIfEEEENS_15StringCompactorIS5_EEjNS_19DefaultCompactStoreIijEENS_17DefaultCacheStoreIS5_EEEEEC1Ev
   fun:_Z41__static_initialization_and_destruction_0ii
}
{
   <openfst>
   Memcheck:Leak
   match-leak-kinds: reachable
   fun:_Znwm
   fun:_ZN9__gnu_cxx13new_allocatorISt13_Rb_tree_nodeISt4pairIKNSt7__cxx1112basic_stringIcSt11char_traitsIcESaIcEEEN3fst16FstRegisterEntryINSA_6ArcTplINSA_17TropicalWeightTplIfEEEEEEEEE8allocateEmPKv
   fun:_ZNSt16allocator_traitsISaISt13_Rb_tree_nodeISt4pairIKNSt7__cxx1112basic_stringIcSt11char_traitsIcESaIcEEEN3fst16FstRegisterEntryINS9_6ArcTplINS9_17TropicalWeightTplIfEEEEEEEEEE8allocateERSI_m
   fun:_ZNSt8_Rb_treeINSt7__cxx1112basic_stringIcSt11char_traitsIcESaIcEEESt4pairIKS5_N3fst16FstRegisterEntryINS8_6ArcTplINS8_17TropicalWeightTplIfEEEEEEESt10_Select1stISF_ESt4lessIS5_ESaISF_EE11_M_get_nodeEv
   fun:_ZNSt8_Rb_treeINSt7__cxx1112basic_stringIcSt11char_traitsIcESaIcEEESt4pairIKS5_N3fst16FstRegisterEntryINS8_6ArcTplINS8_17TropicalWeightTplIfEEEEEEESt10_Select1stISF_ESt4lessIS5_ESaISF_EE14_M_create_nodeIJS6_IS5_SE_EEEEPSt13_Rb_tree_nodeISF_EDpOT_
   fun:_ZNSt8_Rb_treeINSt7__cxx1112basic_stringIcSt11char_traitsIcESaIcEEESt4pairIKS5_N3fst16FstRegisterEntryINS8_6ArcTplINS8_17TropicalWeightTplIfEEEEEEESt10_Select1stISF_ESt4lessIS5_ESaISF_EE17_M_emplace_uniqueIJS6_IS5_SE_EEEES6_ISt17_Rb_tree_iteratorISF_EbEDpOT_
   fun:_ZNSt3mapINSt7__cxx1112basic_stringIcSt11char_traitsIcESaIcEEEN3fst16FstRegisterEntryINS6_6ArcTplINS6_17TropicalWeightTplIfEEEEEESt4lessIS5_ESaISt4pairIKS5_SC_EEE6insertISF_IS5_SC_EEENSt9enable_ifIXsrSt16is_constructibleISH_JT_EE5valueESF_ISt17_Rb_tree_iteratorISH_EbEE4typeEOSO_
   fun:_ZN3fst15GenericRegisterINSt7__cxx1112basic_stringIcSt11char_traitsIcESaIcEEENS_16FstRegisterEntryINS_6ArcTplINS_17TropicalWeightTplIfEEEEEENS_11FstRegisterISB_EEE8SetEntryERKS6_RKSC_
   fun:_ZN3fst17GenericRegistererINS_11FstRegisterINS_6ArcTplINS_17TropicalWeightTplIfEEEEEEEC1ENSt7__cxx1112basic_stringIcSt11char_traitsIcESaIcEEENS_16FstRegisterEntryIS5_EE
   fun:_ZN3fst13FstRegistererINS_10CompactFstINS_6ArcTplINS_17TropicalWeightTplIfEEEENS_23WeightedStringCompactorIS5_EEjNS_19DefaultCompactStoreISt4pairIiS4_EjEENS_17DefaultCacheStoreIS5_EEEEEC1Ev
   fun:_Z41__static_initialization_and_destruction_0ii
}
{
   <openfst>
   Memcheck:Leak
   match-leak-kinds: reachable
   fun:_Znwm
   fun:_ZN9__gnu_cxx13new_allocatorISt13_Rb_tree_nodeISt4pairIKNSt7__cxx1112basic_stringIcSt11char_traitsIcESaIcEEEN3fst16FstRegisterEntryINSA_6ArcTplINSA_12LogWeightTplIfEEEEEEEEE8allocateEmPKv
   fun:_ZNSt16allocator_traitsISaISt13_Rb_tree_nodeISt4pairIKNSt7__cxx1112basic_stringIcSt11char_traitsIcESaIcEEEN3fst16FstRegisterEntryINS9_6ArcTplINS9_12LogWeightTplIfEEEEEEEEEE8allocateERSI_m
   fun:_ZNSt8_Rb_treeINSt7__cxx1112basic_stringIcSt11char_traitsIcESaIcEEESt4pairIKS5_N3fst16FstRegisterEntryINS8_6ArcTplINS8_12LogWeightTplIfEEEEEEESt10_Select1stISF_ESt4lessIS5_ESaISF_EE11_M_get_nodeEv
   fun:_ZNSt8_Rb_treeINSt7__cxx1112basic_stringIcSt11char_traitsIcESaIcEEESt4pairIKS5_N3fst16FstRegisterEntryINS8_6ArcTplINS8_12LogWeightTplIfEEEEEEESt10_Select1stISF_ESt4lessIS5_ESaISF_EE14_M_create_nodeIJS6_IS5_SE_EEEEPSt13_Rb_tree_nodeISF_EDpOT_
   fun:_ZNSt8_Rb_treeINSt7__cxx1112basic_stringIcSt11char_traitsIcESaIcEEESt4pairIKS5_N3fst16FstRegisterEntryINS8_6ArcTplINS8_12LogWeightTplIfEEEEEEESt10_Select1stISF_ESt4lessIS5_ESaISF_EE17_M_emplace_uniqueIJS6_IS5_SE_EEEES6_ISt17_Rb_tree_iteratorISF_EbEDpOT_
   fun:_ZNSt3mapINSt7__cxx1112basic_stringIcSt11char_traitsIcESaIcEEEN3fst16FstRegisterEntryINS6_6ArcTplINS6_12LogWeightTplIfEEEEEESt4lessIS5_ESaISt4pairIKS5_SC_EEE6insertISF_IS5_SC_EEENSt9enable_ifIXsrSt16is_constructibleISH_JT_EE5valueESF_ISt17_Rb_tree_iteratorISH_EbEE4typeEOSO_
   fun:_ZN3fst15GenericRegisterINSt7__cxx1112basic_stringIcSt11char_traitsIcESaIcEEENS_16FstRegisterEntryINS_6ArcTplINS_12LogWeightTplIfEEEEEENS_11FstRegisterISB_EEE8SetEntryERKS6_RKSC_
   fun:_ZN3fst17GenericRegistererINS_11FstRegisterINS_6ArcTplINS_12LogWeightTplIfEEEEEEEC1ENSt7__cxx1112basic_stringIcSt11char_traitsIcESaIcEEENS_16FstRegisterEntryIS5_EE
   fun:_ZN3fst13FstRegistererINS_10CompactFstINS_6ArcTplINS_12LogWeightTplIfEEEENS_23WeightedStringCompactorIS5_EEjNS_19DefaultCompactStoreISt4pairIiS4_EjEENS_17DefaultCacheStoreIS5_EEEEEC1Ev
   fun:_Z41__static_initialization_and_destruction_0ii
}
{
   <openfst>
   Memcheck:Leak
   match-leak-kinds: reachable
   fun:_Znwm
   fun:_ZN9__gnu_cxx13new_allocatorISt13_Rb_tree_nodeISt4pairIKNSt7__cxx1112basic_stringIcSt11char_traitsIcESaIcEEEN3fst16FstRegisterEntryINSA_6ArcTplINSA_17TropicalWeightTplIfEEEEEEEEE8allocateEmPKv
   fun:_ZNSt16allocator_traitsISaISt13_Rb_tree_nodeISt4pairIKNSt7__cxx1112basic_stringIcSt11char_traitsIcESaIcEEEN3fst16FstRegisterEntryINS9_6ArcTplINS9_17TropicalWeightTplIfEEEEEEEEEE8allocateERSI_m
   fun:_ZNSt8_Rb_treeINSt7__cxx1112basic_stringIcSt11char_traitsIcESaIcEEESt4pairIKS5_N3fst16FstRegisterEntryINS8_6ArcTplINS8_17TropicalWeightTplIfEEEEEEESt10_Select1stISF_ESt4lessIS5_ESaISF_EE11_M_get_nodeEv
   fun:_ZNSt8_Rb_treeINSt7__cxx1112basic_stringIcSt11char_traitsIcESaIcEEESt4pairIKS5_N3fst16FstRegisterEntryINS8_6ArcTplINS8_17TropicalWeightTplIfEEEEEEESt10_Select1stISF_ESt4lessIS5_ESaISF_EE14_M_create_nodeIJS6_IS5_SE_EEEEPSt13_Rb_tree_nodeISF_EDpOT_
   fun:_ZNSt8_Rb_treeINSt7__cxx1112basic_stringIcSt11char_traitsIcESaIcEEESt4pairIKS5_N3fst16FstRegisterEntryINS8_6ArcTplINS8_17TropicalWeightTplIfEEEEEEESt10_Select1stISF_ESt4lessIS5_ESaISF_EE17_M_emplace_uniqueIJS6_IS5_SE_EEEES6_ISt17_Rb_tree_iteratorISF_EbEDpOT_
   fun:_ZNSt3mapINSt7__cxx1112basic_stringIcSt11char_traitsIcESaIcEEEN3fst16FstRegisterEntryINS6_6ArcTplINS6_17TropicalWeightTplIfEEEEEESt4lessIS5_ESaISt4pairIKS5_SC_EEE6insertISF_IS5_SC_EEENSt9enable_ifIXsrSt16is_constructibleISH_JT_EE5valueESF_ISt17_Rb_tree_iteratorISH_EbEE4typeEOSO_
   fun:_ZN3fst15GenericRegisterINSt7__cxx1112basic_stringIcSt11char_traitsIcESaIcEEENS_16FstRegisterEntryINS_6ArcTplINS_17TropicalWeightTplIfEEEEEENS_11FstRegisterISB_EEE8SetEntryERKS6_RKSC_
   fun:_ZN3fst17GenericRegistererINS_11FstRegisterINS_6ArcTplINS_17TropicalWeightTplIfEEEEEEEC1ENSt7__cxx1112basic_stringIcSt11char_traitsIcESaIcEEENS_16FstRegisterEntryIS5_EE
   fun:_ZN3fst13FstRegistererINS_10CompactFstINS_6ArcTplINS_17TropicalWeightTplIfEEEENS_17AcceptorCompactorIS5_EEjNS_19DefaultCompactStoreISt4pairIS9_IiS4_EiEjEENS_17DefaultCacheStoreIS5_EEEEEC1Ev
   fun:_Z41__static_initialization_and_destruction_0ii
}
{
   <openfst>
   Memcheck:Leak
   match-leak-kinds: reachable
   fun:_Znwm
   fun:_ZN9__gnu_cxx13new_allocatorISt13_Rb_tree_nodeISt4pairIKNSt7__cxx1112basic_stringIcSt11char_traitsIcESaIcEEEN3fst16FstRegisterEntryINSA_6ArcTplINSA_12LogWeightTplIfEEEEEEEEE8allocateEmPKv
   fun:_ZNSt16allocator_traitsISaISt13_Rb_tree_nodeISt4pairIKNSt7__cxx1112basic_stringIcSt11char_traitsIcESaIcEEEN3fst16FstRegisterEntryINS9_6ArcTplINS9_12LogWeightTplIfEEEEEEEEEE8allocateERSI_m
   fun:_ZNSt8_Rb_treeINSt7__cxx1112basic_stringIcSt11char_traitsIcESaIcEEESt4pairIKS5_N3fst16FstRegisterEntryINS8_6ArcTplINS8_12LogWeightTplIfEEEEEEESt10_Select1stISF_ESt4lessIS5_ESaISF_EE11_M_get_nodeEv
   fun:_ZNSt8_Rb_treeINSt7__cxx1112basic_stringIcSt11char_traitsIcESaIcEEESt4pairIKS5_N3fst16FstRegisterEntryINS8_6ArcTplINS8_12LogWeightTplIfEEEEEEESt10_Select1stISF_ESt4lessIS5_ESaISF_EE14_M_create_nodeIJS6_IS5_SE_EEEEPSt13_Rb_tree_nodeISF_EDpOT_
   fun:_ZNSt8_Rb_treeINSt7__cxx1112basic_stringIcSt11char_traitsIcESaIcEEESt4pairIKS5_N3fst16FstRegisterEntryINS8_6ArcTplINS8_12LogWeightTplIfEEEEEEESt10_Select1stISF_ESt4lessIS5_ESaISF_EE17_M_emplace_uniqueIJS6_IS5_SE_EEEES6_ISt17_Rb_tree_iteratorISF_EbEDpOT_
   fun:_ZNSt3mapINSt7__cxx1112basic_stringIcSt11char_traitsIcESaIcEEEN3fst16FstRegisterEntryINS6_6ArcTplINS6_12LogWeightTplIfEEEEEESt4lessIS5_ESaISt4pairIKS5_SC_EEE6insertISF_IS5_SC_EEENSt9enable_ifIXsrSt16is_constructibleISH_JT_EE5valueESF_ISt17_Rb_tree_iteratorISH_EbEE4typeEOSO_
   fun:_ZN3fst15GenericRegisterINSt7__cxx1112basic_stringIcSt11char_traitsIcESaIcEEENS_16FstRegisterEntryINS_6ArcTplINS_12LogWeightTplIfEEEEEENS_11FstRegisterISB_EEE8SetEntryERKS6_RKSC_
   fun:_ZN3fst17GenericRegistererINS_11FstRegisterINS_6ArcTplINS_12LogWeightTplIfEEEEEEEC1ENSt7__cxx1112basic_stringIcSt11char_traitsIcESaIcEEENS_16FstRegisterEntryIS5_EE
   fun:_ZN3fst13FstRegistererINS_10CompactFstINS_6ArcTplINS_12LogWeightTplIfEEEENS_17AcceptorCompactorIS5_EEjNS_19DefaultCompactStoreISt4pairIS9_IiS4_EiEjEENS_17DefaultCacheStoreIS5_EEEEEC1Ev
   fun:_Z41__static_initialization_and_destruction_0ii
}
{
   <openfst>
   Memcheck:Leak
   match-leak-kinds: reachable
   fun:_Znwm
   fun:_ZN9__gnu_cxx13new_allocatorISt13_Rb_tree_nodeISt4pairIKNSt7__cxx1112basic_stringIcSt11char_traitsIcESaIcEEEN3fst16FstRegisterEntryINSA_6ArcTplINSA_17TropicalWeightTplIfEEEEEEEEE8allocateEmPKv
   fun:_ZNSt16allocator_traitsISaISt13_Rb_tree_nodeISt4pairIKNSt7__cxx1112basic_stringIcSt11char_traitsIcESaIcEEEN3fst16FstRegisterEntryINS9_6ArcTplINS9_17TropicalWeightTplIfEEEEEEEEEE8allocateERSI_m
   fun:_ZNSt8_Rb_treeINSt7__cxx1112basic_stringIcSt11char_traitsIcESaIcEEESt4pairIKS5_N3fst16FstRegisterEntryINS8_6ArcTplINS8_17TropicalWeightTplIfEEEEEEESt10_Select1stISF_ESt4lessIS5_ESaISF_EE11_M_get_nodeEv
   fun:_ZNSt8_Rb_treeINSt7__cxx1112basic_stringIcSt11char_traitsIcESaIcEEESt4pairIKS5_N3fst16FstRegisterEntryINS8_6ArcTplINS8_17TropicalWeightTplIfEEEEEEESt10_Select1stISF_ESt4lessIS5_ESaISF_EE14_M_create_nodeIJS6_IS5_SE_EEEEPSt13_Rb_tree_nodeISF_EDpOT_
   fun:_ZNSt8_Rb_treeINSt7__cxx1112basic_stringIcSt11char_traitsIcESaIcEEESt4pairIKS5_N3fst16FstRegisterEntryINS8_6ArcTplINS8_17TropicalWeightTplIfEEEEEEESt10_Select1stISF_ESt4lessIS5_ESaISF_EE17_M_emplace_uniqueIJS6_IS5_SE_EEEES6_ISt17_Rb_tree_iteratorISF_EbEDpOT_
   fun:_ZNSt3mapINSt7__cxx1112basic_stringIcSt11char_traitsIcESaIcEEEN3fst16FstRegisterEntryINS6_6ArcTplINS6_17TropicalWeightTplIfEEEEEESt4lessIS5_ESaISt4pairIKS5_SC_EEE6insertISF_IS5_SC_EEENSt9enable_ifIXsrSt16is_constructibleISH_JT_EE5valueESF_ISt17_Rb_tree_iteratorISH_EbEE4typeEOSO_
   fun:_ZN3fst15GenericRegisterINSt7__cxx1112basic_stringIcSt11char_traitsIcESaIcEEENS_16FstRegisterEntryINS_6ArcTplINS_17TropicalWeightTplIfEEEEEENS_11FstRegisterISB_EEE8SetEntryERKS6_RKSC_
   fun:_ZN3fst17GenericRegistererINS_11FstRegisterINS_6ArcTplINS_17TropicalWeightTplIfEEEEEEEC1ENSt7__cxx1112basic_stringIcSt11char_traitsIcESaIcEEENS_16FstRegisterEntryIS5_EE
   fun:_ZN3fst13FstRegistererINS_10CompactFstINS_6ArcTplINS_17TropicalWeightTplIfEEEENS_19UnweightedCompactorIS5_EEjNS_19DefaultCompactStoreISt4pairIS9_IiiEiEjEENS_17DefaultCacheStoreIS5_EEEEEC1Ev
   fun:_Z41__static_initialization_and_destruction_0ii
}
{
   <openfst>
   Memcheck:Leak
   match-leak-kinds: reachable
   fun:_Znwm
   fun:_ZN9__gnu_cxx13new_allocatorISt13_Rb_tree_nodeISt4pairIKNSt7__cxx1112basic_stringIcSt11char_traitsIcESaIcEEEN3fst16FstRegisterEntryINSA_6ArcTplINSA_12LogWeightTplIfEEEEEEEEE8allocateEmPKv
   fun:_ZNSt16allocator_traitsISaISt13_Rb_tree_nodeISt4pairIKNSt7__cxx1112basic_stringIcSt11char_traitsIcESaIcEEEN3fst16FstRegisterEntryINS9_6ArcTplINS9_12LogWeightTplIfEEEEEEEEEE8allocateERSI_m
   fun:_ZNSt8_Rb_treeINSt7__cxx1112basic_stringIcSt11char_traitsIcESaIcEEESt4pairIKS5_N3fst16FstRegisterEntryINS8_6ArcTplINS8_12LogWeightTplIfEEEEEEESt10_Select1stISF_ESt4lessIS5_ESaISF_EE11_M_get_nodeEv
   fun:_ZNSt8_Rb_treeINSt7__cxx1112basic_stringIcSt11char_traitsIcESaIcEEESt4pairIKS5_N3fst16FstRegisterEntryINS8_6ArcTplINS8_12LogWeightTplIfEEEEEEESt10_Select1stISF_ESt4lessIS5_ESaISF_EE14_M_create_nodeIJS6_IS5_SE_EEEEPSt13_Rb_tree_nodeISF_EDpOT_
   fun:_ZNSt8_Rb_treeINSt7__cxx1112basic_stringIcSt11char_traitsIcESaIcEEESt4pairIKS5_N3fst16FstRegisterEntryINS8_6ArcTplINS8_12LogWeightTplIfEEEEEEESt10_Select1stISF_ESt4lessIS5_ESaISF_EE17_M_emplace_uniqueIJS6_IS5_SE_EEEES6_ISt17_Rb_tree_iteratorISF_EbEDpOT_
   fun:_ZNSt3mapINSt7__cxx1112basic_stringIcSt11char_traitsIcESaIcEEEN3fst16FstRegisterEntryINS6_6ArcTplINS6_12LogWeightTplIfEEEEEESt4lessIS5_ESaISt4pairIKS5_SC_EEE6insertISF_IS5_SC_EEENSt9enable_ifIXsrSt16is_constructibleISH_JT_EE5valueESF_ISt17_Rb_tree_iteratorISH_EbEE4typeEOSO_
   fun:_ZN3fst15GenericRegisterINSt7__cxx1112basic_stringIcSt11char_traitsIcESaIcEEENS_16FstRegisterEntryINS_6ArcTplINS_12LogWeightTplIfEEEEEENS_11FstRegisterISB_EEE8SetEntryERKS6_RKSC_
   fun:_ZN3fst17GenericRegistererINS_11FstRegisterINS_6ArcTplINS_12LogWeightTplIfEEEEEEEC1ENSt7__cxx1112basic_stringIcSt11char_traitsIcESaIcEEENS_16FstRegisterEntryIS5_EE
   fun:_ZN3fst13FstRegistererINS_10CompactFstINS_6ArcTplINS_12LogWeightTplIfEEEENS_19UnweightedCompactorIS5_EEjNS_19DefaultCompactStoreISt4pairIS9_IiiEiEjEENS_17DefaultCacheStoreIS5_EEEEEC1Ev
   fun:_Z41__static_initialization_and_destruction_0ii
}
{
   <openfst>
   Memcheck:Leak
   match-leak-kinds: reachable
   fun:_Znwm
   fun:_ZN9__gnu_cxx13new_allocatorISt13_Rb_tree_nodeISt4pairIKNSt7__cxx1112basic_stringIcSt11char_traitsIcESaIcEEEN3fst16FstRegisterEntryINSA_6ArcTplINSA_17TropicalWeightTplIfEEEEEEEEE8allocateEmPKv
   fun:_ZNSt16allocator_traitsISaISt13_Rb_tree_nodeISt4pairIKNSt7__cxx1112basic_stringIcSt11char_traitsIcESaIcEEEN3fst16FstRegisterEntryINS9_6ArcTplINS9_17TropicalWeightTplIfEEEEEEEEEE8allocateERSI_m
   fun:_ZNSt8_Rb_treeINSt7__cxx1112basic_stringIcSt11char_traitsIcESaIcEEESt4pairIKS5_N3fst16FstRegisterEntryINS8_6ArcTplINS8_17TropicalWeightTplIfEEEEEEESt10_Select1stISF_ESt4lessIS5_ESaISF_EE11_M_get_nodeEv
   fun:_ZNSt8_Rb_treeINSt7__cxx1112basic_stringIcSt11char_traitsIcESaIcEEESt4pairIKS5_N3fst16FstRegisterEntryINS8_6ArcTplINS8_17TropicalWeightTplIfEEEEEEESt10_Select1stISF_ESt4lessIS5_ESaISF_EE14_M_create_nodeIJS6_IS5_SE_EEEEPSt13_Rb_tree_nodeISF_EDpOT_
   fun:_ZNSt8_Rb_treeINSt7__cxx1112basic_stringIcSt11char_traitsIcESaIcEEESt4pairIKS5_N3fst16FstRegisterEntryINS8_6ArcTplINS8_17TropicalWeightTplIfEEEEEEESt10_Select1stISF_ESt4lessIS5_ESaISF_EE17_M_emplace_uniqueIJS6_IS5_SE_EEEES6_ISt17_Rb_tree_iteratorISF_EbEDpOT_
   fun:_ZNSt3mapINSt7__cxx1112basic_stringIcSt11char_traitsIcESaIcEEEN3fst16FstRegisterEntryINS6_6ArcTplINS6_17TropicalWeightTplIfEEEEEESt4lessIS5_ESaISt4pairIKS5_SC_EEE6insertISF_IS5_SC_EEENSt9enable_ifIXsrSt16is_constructibleISH_JT_EE5valueESF_ISt17_Rb_tree_iteratorISH_EbEE4typeEOSO_
   fun:_ZN3fst15GenericRegisterINSt7__cxx1112basic_stringIcSt11char_traitsIcESaIcEEENS_16FstRegisterEntryINS_6ArcTplINS_17TropicalWeightTplIfEEEEEENS_11FstRegisterISB_EEE8SetEntryERKS6_RKSC_
   fun:_ZN3fst17GenericRegistererINS_11FstRegisterINS_6ArcTplINS_17TropicalWeightTplIfEEEEEEEC1ENSt7__cxx1112basic_stringIcSt11char_traitsIcESaIcEEENS_16FstRegisterEntryIS5_EE
   fun:_ZN3fst13FstRegistererINS_10CompactFstINS_6ArcTplINS_17TropicalWeightTplIfEEEENS_27UnweightedAcceptorCompactorIS5_EEjNS_19DefaultCompactStoreISt4pairIiiEjEENS_17DefaultCacheStoreIS5_EEEEEC1Ev
   fun:_Z41__static_initialization_and_destruction_0ii
}
{
   <openfst>
   Memcheck:Leak
   match-leak-kinds: reachable
   fun:_Znwm
   fun:_ZN9__gnu_cxx13new_allocatorISt13_Rb_tree_nodeISt4pairIKNSt7__cxx1112basic_stringIcSt11char_traitsIcESaIcEEEN3fst16FstRegisterEntryINSA_6ArcTplINSA_12LogWeightTplIfEEEEEEEEE8allocateEmPKv
   fun:_ZNSt16allocator_traitsISaISt13_Rb_tree_nodeISt4pairIKNSt7__cxx1112basic_stringIcSt11char_traitsIcESaIcEEEN3fst16FstRegisterEntryINS9_6ArcTplINS9_12LogWeightTplIfEEEEEEEEEE8allocateERSI_m
   fun:_ZNSt8_Rb_treeINSt7__cxx1112basic_stringIcSt11char_traitsIcESaIcEEESt4pairIKS5_N3fst16FstRegisterEntryINS8_6ArcTplINS8_12LogWeightTplIfEEEEEEESt10_Select1stISF_ESt4lessIS5_ESaISF_EE11_M_get_nodeEv
   fun:_ZNSt8_Rb_treeINSt7__cxx1112basic_stringIcSt11char_traitsIcESaIcEEESt4pairIKS5_N3fst16FstRegisterEntryINS8_6ArcTplINS8_12LogWeightTplIfEEEEEEESt10_Select1stISF_ESt4lessIS5_ESaISF_EE14_M_create_nodeIJS6_IS5_SE_EEEEPSt13_Rb_tree_nodeISF_EDpOT_
   fun:_ZNSt8_Rb_treeINSt7__cxx1112basic_stringIcSt11char_traitsIcESaIcEEESt4pairIKS5_N3fst16FstRegisterEntryINS8_6ArcTplINS8_12LogWeightTplIfEEEEEEESt10_Select1stISF_ESt4lessIS5_ESaISF_EE17_M_emplace_uniqueIJS6_IS5_SE_EEEES6_ISt17_Rb_tree_iteratorISF_EbEDpOT_
   fun:_ZNSt3mapINSt7__cxx1112basic_stringIcSt11char_traitsIcESaIcEEEN3fst16FstRegisterEntryINS6_6ArcTplINS6_12LogWeightTplIfEEEEEESt4lessIS5_ESaISt4pairIKS5_SC_EEE6insertISF_IS5_SC_EEENSt9enable_ifIXsrSt16is_constructibleISH_JT_EE5valueESF_ISt17_Rb_tree_iteratorISH_EbEE4typeEOSO_
   fun:_ZN3fst15GenericRegisterINSt7__cxx1112basic_stringIcSt11char_traitsIcESaIcEEENS_16FstRegisterEntryINS_6ArcTplINS_12LogWeightTplIfEEEEEENS_11FstRegisterISB_EEE8SetEntryERKS6_RKSC_
   fun:_ZN3fst17GenericRegistererINS_11FstRegisterINS_6ArcTplINS_12LogWeightTplIfEEEEEEEC1ENSt7__cxx1112basic_stringIcSt11char_traitsIcESaIcEEENS_16FstRegisterEntryIS5_EE
   fun:_ZN3fst13FstRegistererINS_10CompactFstINS_6ArcTplINS_12LogWeightTplIfEEEENS_27UnweightedAcceptorCompactorIS5_EEjNS_19DefaultCompactStoreISt4pairIiiEjEENS_17DefaultCacheStoreIS5_EEEEEC1Ev
   fun:_Z41__static_initialization_and_destruction_0ii
}
{
   <openfst>
   Memcheck:Leak
   match-leak-kinds: reachable
   fun:_Znwm
   fun:_ZN12FlagRegisterIiE11GetRegisterEv
   fun:_ZN14FlagRegistererIiEC1ERKNSt7__cxx1112basic_stringIcSt11char_traitsIcESaIcEEERK15FlagDescriptionIiE
   fun:_Z41__static_initialization_and_destruction_0ii
}
{
   <openfst>
   Memcheck:Leak
   match-leak-kinds: reachable
   fun:_Znwm
   fun:_ZN12FlagRegisterIbE11GetRegisterEv
   fun:_ZN14FlagRegistererIbEC1ERKNSt7__cxx1112basic_stringIcSt11char_traitsIcESaIcEEERK15FlagDescriptionIbE
   fun:_Z41__static_initialization_and_destruction_0ii
}
{
   <openfst>
   Memcheck:Leak
   match-leak-kinds: reachable
   fun:_Znwm
   fun:_ZN12FlagRegisterINSt7__cxx1112basic_stringIcSt11char_traitsIcESaIcEEEE11GetRegisterEv
   fun:_ZN14FlagRegistererINSt7__cxx1112basic_stringIcSt11char_traitsIcESaIcEEEEC1ERKS5_RK15FlagDescriptionIS5_E
   fun:_Z41__static_initialization_and_destruction_0ii
}
{
   <openfst>
   Memcheck:Leak
   match-leak-kinds: reachable
   fun:_Znwm
   fun:_ZN12FlagRegisterIlE11GetRegisterEv
   fun:_ZN14FlagRegistererIlEC1ERKNSt7__cxx1112basic_stringIcSt11char_traitsIcESaIcEEERK15FlagDescriptionIlE
   fun:_Z41__static_initialization_and_destruction_0ii
}
{
   <openfst>
   Memcheck:Leak
   match-leak-kinds: reachable
   fun:_Znwm
   fun:_ZN3fst15GenericRegisterINSt7__cxx1112basic_stringIcSt11char_traitsIcESaIcEEENS_16FstRegisterEntryINS_6ArcTplINS_17TropicalWeightTplIfEEEEEENS_11FstRegisterISB_EEE11GetRegisterEv
   fun:_ZN3fst17GenericRegistererINS_11FstRegisterINS_6ArcTplINS_17TropicalWeightTplIfEEEEEEEC1ENSt7__cxx1112basic_stringIcSt11char_traitsIcESaIcEEENS_16FstRegisterEntryIS5_EE
   fun:_ZN3fst13FstRegistererINS_9VectorFstINS_6ArcTplINS_17TropicalWeightTplIfEEEENS_11VectorStateIS5_SaIS5_EEEEEEC1Ev
   fun:_Z41__static_initialization_and_destruction_0ii
}
{
   <openfst>
   Memcheck:Leak
   match-leak-kinds: reachable
   fun:_Znwm
   fun:_ZN3fst15GenericRegisterINSt7__cxx1112basic_stringIcSt11char_traitsIcESaIcEEENS_16FstRegisterEntryINS_6ArcTplINS_12LogWeightTplIfEEEEEENS_11FstRegisterISB_EEE11GetRegisterEv
   fun:_ZN3fst17GenericRegistererINS_11FstRegisterINS_6ArcTplINS_12LogWeightTplIfEEEEEEEC1ENSt7__cxx1112basic_stringIcSt11char_traitsIcESaIcEEENS_16FstRegisterEntryIS5_EE
   fun:_ZN3fst13FstRegistererINS_9VectorFstINS_6ArcTplINS_12LogWeightTplIfEEEENS_11VectorStateIS5_SaIS5_EEEEEEC1Ev
   fun:_Z41__static_initialization_and_destruction_0ii
}
{
   <openfst>
   Memcheck:Leak
   match-leak-kinds: reachable
   fun:_Znwm
   fun:_ZN3fst15GenericRegisterINSt7__cxx1112basic_stringIcSt11char_traitsIcESaIcEEENS_16FstRegisterEntryINS_6ArcTplINS_12LogWeightTplIdEEEEEENS_11FstRegisterISB_EEE11GetRegisterEv
   fun:_ZN3fst17GenericRegistererINS_11FstRegisterINS_6ArcTplINS_12LogWeightTplIdEEEEEEEC1ENSt7__cxx1112basic_stringIcSt11char_traitsIcESaIcEEENS_16FstRegisterEntryIS5_EE
   fun:_ZN3fst13FstRegistererINS_9VectorFstINS_6ArcTplINS_12LogWeightTplIdEEEENS_11VectorStateIS5_SaIS5_EEEEEEC1Ev
   fun:_Z41__static_initialization_and_destruction_0ii
}
{
   <openfst>
   Memcheck:Leak
   match-leak-kinds: reachable
   fun:_Znwm
   fun:_ZN9__gnu_cxx13new_allocatorISt13_Rb_tree_nodeISt4pairIKNSt7__cxx1112basic_stringIcSt11char_traitsIcESaIcEEE15FlagDescriptionIiEEEE8allocateEmPKv
   fun:_ZNSt16allocator_traitsISaISt13_Rb_tree_nodeISt4pairIKNSt7__cxx1112basic_stringIcSt11char_traitsIcESaIcEEE15FlagDescriptionIiEEEEE8allocateERSD_m
   fun:_ZNSt8_Rb_treeINSt7__cxx1112basic_stringIcSt11char_traitsIcESaIcEEESt4pairIKS5_15FlagDescriptionIiEESt10_Select1stISA_ESt4lessIS5_ESaISA_EE11_M_get_nodeEv
   fun:_ZNSt8_Rb_treeINSt7__cxx1112basic_stringIcSt11char_traitsIcESaIcEEESt4pairIKS5_15FlagDescriptionIiEESt10_Select1stISA_ESt4lessIS5_ESaISA_EE14_M_create_nodeIJS6_IS5_S9_EEEEPSt13_Rb_tree_nodeISA_EDpOT_
   fun:_ZNSt8_Rb_treeINSt7__cxx1112basic_stringIcSt11char_traitsIcESaIcEEESt4pairIKS5_15FlagDescriptionIiEESt10_Select1stISA_ESt4lessIS5_ESaISA_EE17_M_emplace_uniqueIJS6_IS5_S9_EEEES6_ISt17_Rb_tree_iteratorISA_EbEDpOT_
   fun:_ZNSt3mapINSt7__cxx1112basic_stringIcSt11char_traitsIcESaIcEEE15FlagDescriptionIiESt4lessIS5_ESaISt4pairIKS5_S7_EEE6insertISA_IS5_S7_EEENSt9enable_ifIXsrSt16is_constructibleISC_JT_EE5valueESA_ISt17_Rb_tree_iteratorISC_EbEE4typeEOSJ_
   fun:_ZN12FlagRegisterIiE14SetDescriptionERKNSt7__cxx1112basic_stringIcSt11char_traitsIcESaIcEEERK15FlagDescriptionIiE
   fun:_ZN14FlagRegistererIiEC1ERKNSt7__cxx1112basic_stringIcSt11char_traitsIcESaIcEEERK15FlagDescriptionIiE
   fun:_Z41__static_initialization_and_destruction_0ii
}
{
   <openfst>
   Memcheck:Leak
   match-leak-kinds: reachable
   fun:_Znwm
   fun:_ZN9__gnu_cxx13new_allocatorISt13_Rb_tree_nodeISt4pairIKNSt7__cxx1112basic_stringIcSt11char_traitsIcESaIcEEE15FlagDescriptionIbEEEE8allocateEmPKv
   fun:_ZNSt16allocator_traitsISaISt13_Rb_tree_nodeISt4pairIKNSt7__cxx1112basic_stringIcSt11char_traitsIcESaIcEEE15FlagDescriptionIbEEEEE8allocateERSD_m
   fun:_ZNSt8_Rb_treeINSt7__cxx1112basic_stringIcSt11char_traitsIcESaIcEEESt4pairIKS5_15FlagDescriptionIbEESt10_Select1stISA_ESt4lessIS5_ESaISA_EE11_M_get_nodeEv
   fun:_ZNSt8_Rb_treeINSt7__cxx1112basic_stringIcSt11char_traitsIcESaIcEEESt4pairIKS5_15FlagDescriptionIbEESt10_Select1stISA_ESt4lessIS5_ESaISA_EE14_M_create_nodeIJS6_IS5_S9_EEEEPSt13_Rb_tree_nodeISA_EDpOT_
   fun:_ZNSt8_Rb_treeINSt7__cxx1112basic_stringIcSt11char_traitsIcESaIcEEESt4pairIKS5_15FlagDescriptionIbEESt10_Select1stISA_ESt4lessIS5_ESaISA_EE17_M_emplace_uniqueIJS6_IS5_S9_EEEES6_ISt17_Rb_tree_iteratorISA_EbEDpOT_
   fun:_ZNSt3mapINSt7__cxx1112basic_stringIcSt11char_traitsIcESaIcEEE15FlagDescriptionIbESt4lessIS5_ESaISt4pairIKS5_S7_EEE6insertISA_IS5_S7_EEENSt9enable_ifIXsrSt16is_constructibleISC_JT_EE5valueESA_ISt17_Rb_tree_iteratorISC_EbEE4typeEOSJ_
   fun:_ZN12FlagRegisterIbE14SetDescriptionERKNSt7__cxx1112basic_stringIcSt11char_traitsIcESaIcEEERK15FlagDescriptionIbE
   fun:_ZN14FlagRegistererIbEC1ERKNSt7__cxx1112basic_stringIcSt11char_traitsIcESaIcEEERK15FlagDescriptionIbE
   fun:_Z41__static_initialization_and_destruction_0ii
}
{
   <openfst>
   Memcheck:Leak
   match-leak-kinds: reachable
   fun:_Znwm
   fun:_ZN9__gnu_cxx13new_allocatorISt13_Rb_tree_nodeISt4pairIKNSt7__cxx1112basic_stringIcSt11char_traitsIcESaIcEEE15FlagDescriptionIbEEEE8allocateEmPKv
   fun:_ZNSt16allocator_traitsISaISt13_Rb_tree_nodeISt4pairIKNSt7__cxx1112basic_stringIcSt11char_traitsIcESaIcEEE15FlagDescriptionIbEEEEE8allocateERSD_m
   fun:_ZNSt8_Rb_treeINSt7__cxx1112basic_stringIcSt11char_traitsIcESaIcEEESt4pairIKS5_15FlagDescriptionIbEESt10_Select1stISA_ESt4lessIS5_ESaISA_EE11_M_get_nodeEv
   fun:_ZNSt8_Rb_treeINSt7__cxx1112basic_stringIcSt11char_traitsIcESaIcEEESt4pairIKS5_15FlagDescriptionIbEESt10_Select1stISA_ESt4lessIS5_ESaISA_EE14_M_create_nodeIJS6_IS5_S9_EEEEPSt13_Rb_tree_nodeISA_EDpOT_
   fun:_ZNSt8_Rb_treeINSt7__cxx1112basic_stringIcSt11char_traitsIcESaIcEEESt4pairIKS5_15FlagDescriptionIbEESt10_Select1stISA_ESt4lessIS5_ESaISA_EE17_M_emplace_uniqueIJS6_IS5_S9_EEEES6_ISt17_Rb_tree_iteratorISA_EbEDpOT_
   fun:_ZNSt3mapINSt7__cxx1112basic_stringIcSt11char_traitsIcESaIcEEE15FlagDescriptionIbESt4lessIS5_ESaISt4pairIKS5_S7_EEE6insertISA_IS5_S7_EEENSt9enable_ifIXsrSt16is_constructibleISC_JT_EE5valueESA_ISt17_Rb_tree_iteratorISC_EbEE4typeEOSJ_
   fun:_ZN12FlagRegisterIbE14SetDescriptionERKNSt7__cxx1112basic_stringIcSt11char_traitsIcESaIcEEERK15FlagDescriptionIbE
   fun:_ZN14FlagRegistererIbEC1ERKNSt7__cxx1112basic_stringIcSt11char_traitsIcESaIcEEERK15FlagDescriptionIbE
   fun:_Z41__static_initialization_and_destruction_0ii
}
{
   <openfst>
   Memcheck:Leak
   match-leak-kinds: reachable
   fun:_Znwm
   fun:_ZN9__gnu_cxx13new_allocatorISt13_Rb_tree_nodeISt4pairIKNSt7__cxx1112basic_stringIcSt11char_traitsIcESaIcEEE15FlagDescriptionIlEEEE8allocateEmPKv
   fun:_ZNSt16allocator_traitsISaISt13_Rb_tree_nodeISt4pairIKNSt7__cxx1112basic_stringIcSt11char_traitsIcESaIcEEE15FlagDescriptionIlEEEEE8allocateERSD_m
   fun:_ZNSt8_Rb_treeINSt7__cxx1112basic_stringIcSt11char_traitsIcESaIcEEESt4pairIKS5_15FlagDescriptionIlEESt10_Select1stISA_ESt4lessIS5_ESaISA_EE11_M_get_nodeEv
   fun:_ZNSt8_Rb_treeINSt7__cxx1112basic_stringIcSt11char_traitsIcESaIcEEESt4pairIKS5_15FlagDescriptionIlEESt10_Select1stISA_ESt4lessIS5_ESaISA_EE14_M_create_nodeIJS6_IS5_S9_EEEEPSt13_Rb_tree_nodeISA_EDpOT_
   fun:_ZNSt8_Rb_treeINSt7__cxx1112basic_stringIcSt11char_traitsIcESaIcEEESt4pairIKS5_15FlagDescriptionIlEESt10_Select1stISA_ESt4lessIS5_ESaISA_EE17_M_emplace_uniqueIJS6_IS5_S9_EEEES6_ISt17_Rb_tree_iteratorISA_EbEDpOT_
   fun:_ZNSt3mapINSt7__cxx1112basic_stringIcSt11char_traitsIcESaIcEEE15FlagDescriptionIlESt4lessIS5_ESaISt4pairIKS5_S7_EEE6insertISA_IS5_S7_EEENSt9enable_ifIXsrSt16is_constructibleISC_JT_EE5valueESA_ISt17_Rb_tree_iteratorISC_EbEE4typeEOSJ_
   fun:_ZN12FlagRegisterIlE14SetDescriptionERKNSt7__cxx1112basic_stringIcSt11char_traitsIcESaIcEEERK15FlagDescriptionIlE
   fun:_ZN14FlagRegistererIlEC1ERKNSt7__cxx1112basic_stringIcSt11char_traitsIcESaIcEEERK15FlagDescriptionIlE
   fun:_Z41__static_initialization_and_destruction_0ii
}
{
   <openfst>
   Memcheck:Leak
   match-leak-kinds: reachable
   fun:_Znwm
   fun:_ZN9__gnu_cxx13new_allocatorISt13_Rb_tree_nodeISt4pairIKNSt7__cxx1112basic_stringIcSt11char_traitsIcESaIcEEE15FlagDescriptionIbEEEE8allocateEmPKv
   fun:_ZNSt16allocator_traitsISaISt13_Rb_tree_nodeISt4pairIKNSt7__cxx1112basic_stringIcSt11char_traitsIcESaIcEEE15FlagDescriptionIbEEEEE8allocateERSD_m
   fun:_ZNSt8_Rb_treeINSt7__cxx1112basic_stringIcSt11char_traitsIcESaIcEEESt4pairIKS5_15FlagDescriptionIbEESt10_Select1stISA_ESt4lessIS5_ESaISA_EE11_M_get_nodeEv
   fun:_ZNSt8_Rb_treeINSt7__cxx1112basic_stringIcSt11char_traitsIcESaIcEEESt4pairIKS5_15FlagDescriptionIbEESt10_Select1stISA_ESt4lessIS5_ESaISA_EE14_M_create_nodeIJS6_IS5_S9_EEEEPSt13_Rb_tree_nodeISA_EDpOT_
   fun:_ZNSt8_Rb_treeINSt7__cxx1112basic_stringIcSt11char_traitsIcESaIcEEESt4pairIKS5_15FlagDescriptionIbEESt10_Select1stISA_ESt4lessIS5_ESaISA_EE17_M_emplace_uniqueIJS6_IS5_S9_EEEES6_ISt17_Rb_tree_iteratorISA_EbEDpOT_
   fun:_ZNSt3mapINSt7__cxx1112basic_stringIcSt11char_traitsIcESaIcEEE15FlagDescriptionIbESt4lessIS5_ESaISt4pairIKS5_S7_EEE6insertISA_IS5_S7_EEENSt9enable_ifIXsrSt16is_constructibleISC_JT_EE5valueESA_ISt17_Rb_tree_iteratorISC_EbEE4typeEOSJ_
   fun:_ZN12FlagRegisterIbE14SetDescriptionERKNSt7__cxx1112basic_stringIcSt11char_traitsIcESaIcEEERK15FlagDescriptionIbE
   fun:_ZN14FlagRegistererIbEC1ERKNSt7__cxx1112basic_stringIcSt11char_traitsIcESaIcEEERK15FlagDescriptionIbE
   fun:_Z41__static_initialization_and_destruction_0ii
}
{
   <openfst>
   Memcheck:Leak
   match-leak-kinds: reachable
   fun:_Znwm
   fun:_ZN9__gnu_cxx13new_allocatorISt13_Rb_tree_nodeISt4pairIKNSt7__cxx1112basic_stringIcSt11char_traitsIcESaIcEEE15FlagDescriptionIbEEEE8allocateEmPKv
   fun:_ZNSt16allocator_traitsISaISt13_Rb_tree_nodeISt4pairIKNSt7__cxx1112basic_stringIcSt11char_traitsIcESaIcEEE15FlagDescriptionIbEEEEE8allocateERSD_m
   fun:_ZNSt8_Rb_treeINSt7__cxx1112basic_stringIcSt11char_traitsIcESaIcEEESt4pairIKS5_15FlagDescriptionIbEESt10_Select1stISA_ESt4lessIS5_ESaISA_EE11_M_get_nodeEv
   fun:_ZNSt8_Rb_treeINSt7__cxx1112basic_stringIcSt11char_traitsIcESaIcEEESt4pairIKS5_15FlagDescriptionIbEESt10_Select1stISA_ESt4lessIS5_ESaISA_EE14_M_create_nodeIJS6_IS5_S9_EEEEPSt13_Rb_tree_nodeISA_EDpOT_
   fun:_ZNSt8_Rb_treeINSt7__cxx1112basic_stringIcSt11char_traitsIcESaIcEEESt4pairIKS5_15FlagDescriptionIbEESt10_Select1stISA_ESt4lessIS5_ESaISA_EE17_M_emplace_uniqueIJS6_IS5_S9_EEEES6_ISt17_Rb_tree_iteratorISA_EbEDpOT_
   fun:_ZNSt3mapINSt7__cxx1112basic_stringIcSt11char_traitsIcESaIcEEE15FlagDescriptionIbESt4lessIS5_ESaISt4pairIKS5_S7_EEE6insertISA_IS5_S7_EEENSt9enable_ifIXsrSt16is_constructibleISC_JT_EE5valueESA_ISt17_Rb_tree_iteratorISC_EbEE4typeEOSJ_
   fun:_ZN12FlagRegisterIbE14SetDescriptionERKNSt7__cxx1112basic_stringIcSt11char_traitsIcESaIcEEERK15FlagDescriptionIbE
   fun:_ZN14FlagRegistererIbEC1ERKNSt7__cxx1112basic_stringIcSt11char_traitsIcESaIcEEERK15FlagDescriptionIbE
   fun:_Z41__static_initialization_and_destruction_0ii
}
{
   <openfst>
   Memcheck:Leak
   match-leak-kinds: reachable
   fun:_Znwm
   fun:_ZN9__gnu_cxx13new_allocatorISt13_Rb_tree_nodeISt4pairIKNSt7__cxx1112basic_stringIcSt11char_traitsIcESaIcEEE15FlagDescriptionIS8_EEEE8allocateEmPKv
   fun:_ZNSt16allocator_traitsISaISt13_Rb_tree_nodeISt4pairIKNSt7__cxx1112basic_stringIcSt11char_traitsIcESaIcEEE15FlagDescriptionIS7_EEEEE8allocateERSD_m
   fun:_ZNSt8_Rb_treeINSt7__cxx1112basic_stringIcSt11char_traitsIcESaIcEEESt4pairIKS5_15FlagDescriptionIS5_EESt10_Select1stISA_ESt4lessIS5_ESaISA_EE11_M_get_nodeEv
   fun:_ZNSt8_Rb_treeINSt7__cxx1112basic_stringIcSt11char_traitsIcESaIcEEESt4pairIKS5_15FlagDescriptionIS5_EESt10_Select1stISA_ESt4lessIS5_ESaISA_EE14_M_create_nodeIJS6_IS5_S9_EEEEPSt13_Rb_tree_nodeISA_EDpOT_
   fun:_ZNSt8_Rb_treeINSt7__cxx1112basic_stringIcSt11char_traitsIcESaIcEEESt4pairIKS5_15FlagDescriptionIS5_EESt10_Select1stISA_ESt4lessIS5_ESaISA_EE17_M_emplace_uniqueIJS6_IS5_S9_EEEES6_ISt17_Rb_tree_iteratorISA_EbEDpOT_
   fun:_ZNSt3mapINSt7__cxx1112basic_stringIcSt11char_traitsIcESaIcEEE15FlagDescriptionIS5_ESt4lessIS5_ESaISt4pairIKS5_S7_EEE6insertISA_IS5_S7_EEENSt9enable_ifIXsrSt16is_constructibleISC_JT_EE5valueESA_ISt17_Rb_tree_iteratorISC_EbEE4typeEOSJ_
   fun:_ZN12FlagRegisterINSt7__cxx1112basic_stringIcSt11char_traitsIcESaIcEEEE14SetDescriptionERKS5_RK15FlagDescriptionIS5_E
   fun:_ZN14FlagRegistererINSt7__cxx1112basic_stringIcSt11char_traitsIcESaIcEEEEC1ERKS5_RK15FlagDescriptionIS5_E
   fun:_Z41__static_initialization_and_destruction_0ii
}
{
   <openfst>
   Memcheck:Leak
   match-leak-kinds: reachable
   fun:_Znwm
   fun:_ZN9__gnu_cxx13new_allocatorISt13_Rb_tree_nodeISt4pairIKNSt7__cxx1112basic_stringIcSt11char_traitsIcESaIcEEE15FlagDescriptionIS8_EEEE8allocateEmPKv
   fun:_ZNSt16allocator_traitsISaISt13_Rb_tree_nodeISt4pairIKNSt7__cxx1112basic_stringIcSt11char_traitsIcESaIcEEE15FlagDescriptionIS7_EEEEE8allocateERSD_m
   fun:_ZNSt8_Rb_treeINSt7__cxx1112basic_stringIcSt11char_traitsIcESaIcEEESt4pairIKS5_15FlagDescriptionIS5_EESt10_Select1stISA_ESt4lessIS5_ESaISA_EE11_M_get_nodeEv
   fun:_ZNSt8_Rb_treeINSt7__cxx1112basic_stringIcSt11char_traitsIcESaIcEEESt4pairIKS5_15FlagDescriptionIS5_EESt10_Select1stISA_ESt4lessIS5_ESaISA_EE14_M_create_nodeIJS6_IS5_S9_EEEEPSt13_Rb_tree_nodeISA_EDpOT_
   fun:_ZNSt8_Rb_treeINSt7__cxx1112basic_stringIcSt11char_traitsIcESaIcEEESt4pairIKS5_15FlagDescriptionIS5_EESt10_Select1stISA_ESt4lessIS5_ESaISA_EE17_M_emplace_uniqueIJS6_IS5_S9_EEEES6_ISt17_Rb_tree_iteratorISA_EbEDpOT_
   fun:_ZNSt3mapINSt7__cxx1112basic_stringIcSt11char_traitsIcESaIcEEE15FlagDescriptionIS5_ESt4lessIS5_ESaISt4pairIKS5_S7_EEE6insertISA_IS5_S7_EEENSt9enable_ifIXsrSt16is_constructibleISC_JT_EE5valueESA_ISt17_Rb_tree_iteratorISC_EbEE4typeEOSJ_
   fun:_ZN12FlagRegisterINSt7__cxx1112basic_stringIcSt11char_traitsIcESaIcEEEE14SetDescriptionERKS5_RK15FlagDescriptionIS5_E
   fun:_ZN14FlagRegistererINSt7__cxx1112basic_stringIcSt11char_traitsIcESaIcEEEEC1ERKS5_RK15FlagDescriptionIS5_E
   fun:_Z41__static_initialization_and_destruction_0ii
}
{
   <openfst>
   Memcheck:Leak
   match-leak-kinds: reachable
   fun:_Znwm
   fun:_ZN9__gnu_cxx13new_allocatorISt13_Rb_tree_nodeISt4pairIKNSt7__cxx1112basic_stringIcSt11char_traitsIcESaIcEEE15FlagDescriptionIS8_EEEE8allocateEmPKv
   fun:_ZNSt16allocator_traitsISaISt13_Rb_tree_nodeISt4pairIKNSt7__cxx1112basic_stringIcSt11char_traitsIcESaIcEEE15FlagDescriptionIS7_EEEEE8allocateERSD_m
   fun:_ZNSt8_Rb_treeINSt7__cxx1112basic_stringIcSt11char_traitsIcESaIcEEESt4pairIKS5_15FlagDescriptionIS5_EESt10_Select1stISA_ESt4lessIS5_ESaISA_EE11_M_get_nodeEv
   fun:_ZNSt8_Rb_treeINSt7__cxx1112basic_stringIcSt11char_traitsIcESaIcEEESt4pairIKS5_15FlagDescriptionIS5_EESt10_Select1stISA_ESt4lessIS5_ESaISA_EE14_M_create_nodeIJS6_IS5_S9_EEEEPSt13_Rb_tree_nodeISA_EDpOT_
   fun:_ZNSt8_Rb_treeINSt7__cxx1112basic_stringIcSt11char_traitsIcESaIcEEESt4pairIKS5_15FlagDescriptionIS5_EESt10_Select1stISA_ESt4lessIS5_ESaISA_EE17_M_emplace_uniqueIJS6_IS5_S9_EEEES6_ISt17_Rb_tree_iteratorISA_EbEDpOT_
   fun:_ZNSt3mapINSt7__cxx1112basic_stringIcSt11char_traitsIcESaIcEEE15FlagDescriptionIS5_ESt4lessIS5_ESaISt4pairIKS5_S7_EEE6insertISA_IS5_S7_EEENSt9enable_ifIXsrSt16is_constructibleISC_JT_EE5valueESA_ISt17_Rb_tree_iteratorISC_EbEE4typeEOSJ_
   fun:_ZN12FlagRegisterINSt7__cxx1112basic_stringIcSt11char_traitsIcESaIcEEEE14SetDescriptionERKS5_RK15FlagDescriptionIS5_E
   fun:_ZN14FlagRegistererINSt7__cxx1112basic_stringIcSt11char_traitsIcESaIcEEEEC1ERKS5_RK15FlagDescriptionIS5_E
   fun:_Z41__static_initialization_and_destruction_0ii
}
{
   <openfst>
   Memcheck:Leak
   match-leak-kinds: reachable
   fun:_Znwm
   fun:_ZN9__gnu_cxx13new_allocatorISt13_Rb_tree_nodeISt4pairIKNSt7__cxx1112basic_stringIcSt11char_traitsIcESaIcEEE15FlagDescriptionIS8_EEEE8allocateEmPKv
   fun:_ZNSt16allocator_traitsISaISt13_Rb_tree_nodeISt4pairIKNSt7__cxx1112basic_stringIcSt11char_traitsIcESaIcEEE15FlagDescriptionIS7_EEEEE8allocateERSD_m
   fun:_ZNSt8_Rb_treeINSt7__cxx1112basic_stringIcSt11char_traitsIcESaIcEEESt4pairIKS5_15FlagDescriptionIS5_EESt10_Select1stISA_ESt4lessIS5_ESaISA_EE11_M_get_nodeEv
   fun:_ZNSt8_Rb_treeINSt7__cxx1112basic_stringIcSt11char_traitsIcESaIcEEESt4pairIKS5_15FlagDescriptionIS5_EESt10_Select1stISA_ESt4lessIS5_ESaISA_EE14_M_create_nodeIJS6_IS5_S9_EEEEPSt13_Rb_tree_nodeISA_EDpOT_
   fun:_ZNSt8_Rb_treeINSt7__cxx1112basic_stringIcSt11char_traitsIcESaIcEEESt4pairIKS5_15FlagDescriptionIS5_EESt10_Select1stISA_ESt4lessIS5_ESaISA_EE17_M_emplace_uniqueIJS6_IS5_S9_EEEES6_ISt17_Rb_tree_iteratorISA_EbEDpOT_
   fun:_ZNSt3mapINSt7__cxx1112basic_stringIcSt11char_traitsIcESaIcEEE15FlagDescriptionIS5_ESt4lessIS5_ESaISt4pairIKS5_S7_EEE6insertISA_IS5_S7_EEENSt9enable_ifIXsrSt16is_constructibleISC_JT_EE5valueESA_ISt17_Rb_tree_iteratorISC_EbEE4typeEOSJ_
   fun:_ZN12FlagRegisterINSt7__cxx1112basic_stringIcSt11char_traitsIcESaIcEEEE14SetDescriptionERKS5_RK15FlagDescriptionIS5_E
   fun:_ZN14FlagRegistererINSt7__cxx1112basic_stringIcSt11char_traitsIcESaIcEEEEC1ERKS5_RK15FlagDescriptionIS5_E
   fun:_Z41__static_initialization_and_destruction_0ii
}
