{
   <tensorflow_full>
   Memcheck:Leak
   match-leak-kinds: reachable
   fun:_Znwm
   fun:_ZN6google8protobuf14DescriptorPool6Tables19AllocateOnceDynamicEv
   fun:_ZN6google8protobuf17DescriptorBuilder13BuildFileImplERKNS0_19FileDescriptorProtoE
   fun:_ZN6google8protobuf17DescriptorBuilder9BuildFileERKNS0_19FileDescriptorProtoE
   fun:_ZNK6google8protobuf14DescriptorPool21BuildFileFromDatabaseERKNS0_19FileDescriptorProtoE
   fun:_ZNK6google8protobuf14DescriptorPool29TryFindFileInFallbackDatabaseERKNSt7__cxx1112basic_stringIcSt11char_traitsIcESaIcEEE
   fun:_ZNK6google8protobuf14DescriptorPool14FindFileByNameERKNSt7__cxx1112basic_stringIcSt11char_traitsIcESaIcEEE
   fun:_ZN6google8protobuf12_GLOBAL__N_121AssignDescriptorsImplEPKNS0_8internal15DescriptorTableE
   fun:_ZSt13__invoke_implIvRFvPKN6google8protobuf8internal15DescriptorTableEEJRS5_EET_St14__invoke_otherOT0_DpOT1_
   fun:_ZSt8__invokeIRFvPKN6google8protobuf8internal15DescriptorTableEEJRS5_EENSt15__invoke_resultIT_JDpT0_EE4typeEOSA_DpOSB_
   fun:_ZZSt9call_onceIRFvPKN6google8protobuf8internal15DescriptorTableEEJRS5_EEvRSt9once_flagOT_DpOT0_ENKUlvE_clEv
   fun:_ZZSt9call_onceIRFvPKN6google8protobuf8internal15DescriptorTableEEJRS5_EEvRSt9once_flagOT_DpOT0_ENKUlvE0_clEv
}
{
   <tensorflow_full>
   Memcheck:Leak
   match-leak-kinds: reachable
   fun:_Znwm
   fun:_ZN6google8protobuf14DescriptorPool6Tables19AllocateOnceDynamicEv
   fun:_ZN6google8protobuf17DescriptorBuilder14CrossLinkFieldEPNS0_15FieldDescriptorERKNS0_20FieldDescriptorProtoE
   fun:_ZN6google8protobuf17DescriptorBuilder16CrossLinkMessageEPNS0_10DescriptorERKNS0_15DescriptorProtoE
   fun:_ZN6google8protobuf17DescriptorBuilder16CrossLinkMessageEPNS0_10DescriptorERKNS0_15DescriptorProtoE
   fun:_ZN6google8protobuf17DescriptorBuilder13CrossLinkFileEPNS0_14FileDescriptorERKNS0_19FileDescriptorProtoE
   fun:_ZN6google8protobuf17DescriptorBuilder13BuildFileImplERKNS0_19FileDescriptorProtoE
   fun:_ZN6google8protobuf17DescriptorBuilder9BuildFileERKNS0_19FileDescriptorProtoE
   fun:_ZNK6google8protobuf14DescriptorPool21BuildFileFromDatabaseERKNS0_19FileDescriptorProtoE
   fun:_ZNK6google8protobuf14DescriptorPool29TryFindFileInFallbackDatabaseERKNSt7__cxx1112basic_stringIcSt11char_traitsIcESaIcEEE
   fun:_ZNK6google8protobuf14DescriptorPool14FindFileByNameERKNSt7__cxx1112basic_stringIcSt11char_traitsIcESaIcEEE
   fun:_ZN6google8protobuf12_GLOBAL__N_121AssignDescriptorsImplEPKNS0_8internal15DescriptorTableE
}
{
   <tensorflow_full>
   Memcheck:Leak
   match-leak-kinds: reachable
   fun:_Znwm
   fun:_ZN9__gnu_cxx13new_allocatorIPFSt10unique_ptrIN10tensorflow8profiler17ProfilerInterfaceESt14default_deleteIS4_EERKNS2_14ProfileOptionsEEE8allocateEmPKv
   fun:_ZNSt16allocator_traitsISaIPFSt10unique_ptrIN10tensorflow8profiler17ProfilerInterfaceESt14default_deleteIS3_EERKNS1_14ProfileOptionsEEEE8allocateERSC_m
   fun:_ZNSt12_Vector_baseIPFSt10unique_ptrIN10tensorflow8profiler17ProfilerInterfaceESt14default_deleteIS3_EERKNS1_14ProfileOptionsEESaISB_EE11_M_allocateEm
   fun:_ZNSt6vectorIPFSt10unique_ptrIN10tensorflow8profiler17ProfilerInterfaceESt14default_deleteIS3_EERKNS1_14ProfileOptionsEESaISB_EE17_M_realloc_insertIJRKSB_EEEvN9__gnu_cxx17__normal_iteratorIPSB_SD_EEDpOT_
   fun:_ZNSt6vectorIPFSt10unique_ptrIN10tensorflow8profiler17ProfilerInterfaceESt14default_deleteIS3_EERKNS1_14ProfileOptionsEESaISB_EE9push_backERKSB_
   fun:_ZN10tensorflow8profiler23RegisterProfilerFactoryEPFSt10unique_ptrINS0_17ProfilerInterfaceESt14default_deleteIS2_EERKNS_14ProfileOptionsEE
   fun:_ZNK10tensorflow8profilerUlvE_clEv
   fun:_Z41__static_initialization_and_destruction_0ii
   fun:_GLOBAL__sub_I_host_tracer.cc
}
{
   <tensorflow_full>
   Memcheck:Leak
   match-leak-kinds: reachable
   fun:_Znwm
   fun:_ZN9__gnu_cxx13new_allocatorISt10unique_ptrIN10tensorflow21GraphOptimizationPassESt14default_deleteIS3_EEE8allocateEmPKv
   fun:_ZNSt16allocator_traitsISaISt10unique_ptrIN10tensorflow21GraphOptimizationPassESt14default_deleteIS2_EEEE8allocateERS6_m
   fun:_ZNSt12_Vector_baseISt10unique_ptrIN10tensorflow21GraphOptimizationPassESt14default_deleteIS2_EESaIS5_EE11_M_allocateEm
   fun:_ZNSt6vectorISt10unique_ptrIN10tensorflow21GraphOptimizationPassESt14default_deleteIS2_EESaIS5_EE17_M_realloc_insertIJS5_EEEvN9__gnu_cxx17__normal_iteratorIPS5_S7_EEDpOT_
   fun:_ZNSt6vectorISt10unique_ptrIN10tensorflow21GraphOptimizationPassESt14default_deleteIS2_EESaIS5_EE12emplace_backIJS5_EEEvDpOT_
   fun:_ZNSt6vectorISt10unique_ptrIN10tensorflow21GraphOptimizationPassESt14default_deleteIS2_EESaIS5_EE9push_backEOS5_
   fun:_ZN10tensorflow24OptimizationPassRegistry8RegisterENS0_8GroupingEiSt10unique_ptrINS_21GraphOptimizationPassESt14default_deleteIS3_EE
   fun:_ZN10tensorflow25optimization_registration28OptimizationPassRegistrationC1ENS_24OptimizationPassRegistry8GroupingEiSt10unique_ptrINS_21GraphOptimizationPassESt14default_deleteIS5_EENSt7__cxx1112basic_stringIcSt11char_traitsIcESaIcEEE
   fun:_Z41__static_initialization_and_destruction_0ii
   fun:_GLOBAL__sub_I_isolate_placer_inspection_required_ops_pass.cc
}
{
   <tensorflow_full>
   Memcheck:Leak
   match-leak-kinds: reachable
   fun:_Znwm
   fun:_ZN10tensorflow12_GLOBAL__N_124DefaultExecutorRegistrarC1Ev
   fun:_Z41__static_initialization_and_destruction_0ii
}
{
   <tensorflow_full>
   Memcheck:Leak
   match-leak-kinds: reachable
   fun:_Znwm
   fun:_ZN10tensorflow8dfactory9RegistrarINS_23ThreadPoolDeviceFactoryEEC1ERKNSt7__cxx1112basic_stringIcSt11char_traitsIcESaIcEEEi
   fun:_Z41__static_initialization_and_destruction_0ii
}
{
   <tensorflow_full>
   Memcheck:Leak
   match-leak-kinds: reachable
   fun:_Znwm
   fun:_Z41__static_initialization_and_destruction_0ii
}
{
   <tensorflow_full>
   Memcheck:Leak
   match-leak-kinds: reachable
   fun:_Znwm
   fun:_ZZN10tensorflow20register_file_system8RegisterINS_15PosixFileSystemEEC4EPNS_3EnvERKNSt7__cxx1112basic_stringIcSt11char_traitsIcESaIcEEEENKUlvE_clEv
   fun:_ZNSt17_Function_handlerIFPN10tensorflow10FileSystemEvEZNS0_20register_file_system8RegisterINS0_15PosixFileSystemEEC4EPNS0_3EnvERKNSt7__cxx1112basic_stringIcSt11char_traitsIcESaIcEEEEUlvE_E9_M_invokeERKSt9_Any_data
   fun:_ZNKSt8functionIFPN10tensorflow10FileSystemEvEEclEv
   fun:_ZN10tensorflow22FileSystemRegistryImpl8RegisterERKNSt7__cxx1112basic_stringIcSt11char_traitsIcESaIcEEESt8functionIFPNS_10FileSystemEvEE
   fun:_ZN10tensorflow3Env18RegisterFileSystemERKNSt7__cxx1112basic_stringIcSt11char_traitsIcESaIcEEESt8functionIFPNS_10FileSystemEvEE
   fun:_ZN10tensorflow20register_file_system8RegisterINS_15PosixFileSystemEEC1EPNS_3EnvERKNSt7__cxx1112basic_stringIcSt11char_traitsIcESaIcEEE
   fun:_Z41__static_initialization_and_destruction_0ii
}
{
   <tensorflow_full>
   Memcheck:Leak
   match-leak-kinds: reachable
   fun:_Znwm
   fun:_ZZN10tensorflow20register_file_system8RegisterINS_20LocalPosixFileSystemEEC4EPNS_3EnvERKNSt7__cxx1112basic_stringIcSt11char_traitsIcESaIcEEEENKUlvE_clEv
   fun:_ZNSt17_Function_handlerIFPN10tensorflow10FileSystemEvEZNS0_20register_file_system8RegisterINS0_20LocalPosixFileSystemEEC4EPNS0_3EnvERKNSt7__cxx1112basic_stringIcSt11char_traitsIcESaIcEEEEUlvE_E9_M_invokeERKSt9_Any_data
   fun:_ZNKSt8functionIFPN10tensorflow10FileSystemEvEEclEv
   fun:_ZN10tensorflow22FileSystemRegistryImpl8RegisterERKNSt7__cxx1112basic_stringIcSt11char_traitsIcESaIcEEESt8functionIFPNS_10FileSystemEvEE
   fun:_ZN10tensorflow3Env18RegisterFileSystemERKNSt7__cxx1112basic_stringIcSt11char_traitsIcESaIcEEESt8functionIFPNS_10FileSystemEvEE
   fun:_ZN10tensorflow20register_file_system8RegisterINS_20LocalPosixFileSystemEEC1EPNS_3EnvERKNSt7__cxx1112basic_stringIcSt11char_traitsIcESaIcEEE
   fun:_Z41__static_initialization_and_destruction_0ii
}
{
   <tensorflow_full>
   Memcheck:Leak
   match-leak-kinds: reachable
   fun:_Znwm
   fun:_ZN9__gnu_cxx13new_allocatorIPN10tensorflow9AllocatorEE8allocateEmPKv
   fun:_ZNSt16allocator_traitsISaIPN10tensorflow9AllocatorEEE8allocateERS3_m
   fun:_ZNSt12_Vector_baseIPN10tensorflow9AllocatorESaIS2_EE11_M_allocateEm
   fun:_ZNSt6vectorIPN10tensorflow9AllocatorESaIS2_EE17_M_realloc_insertIJRKS2_EEEvN9__gnu_cxx17__normal_iteratorIPS2_S4_EEDpOT_
   fun:_ZNSt6vectorIPN10tensorflow9AllocatorESaIS2_EE9push_backERKS2_
   fun:_ZN10tensorflow12ProcessState15GetCPUAllocatorEi
   fun:_ZN10tensorflow23ThreadPoolDeviceFactory13CreateDevicesERKNS_14SessionOptionsERKNSt7__cxx1112basic_stringIcSt11char_traitsIcESaIcEEEPSt6vectorISt10unique_ptrINS_6DeviceESt14default_deleteISE_EESaISH_EE
   fun:_ZN10tensorflow13DeviceFactory10AddDevicesERKNS_14SessionOptionsERKNSt7__cxx1112basic_stringIcSt11char_traitsIcESaIcEEEPSt6vectorISt10unique_ptrINS_6DeviceESt14default_deleteISE_EESaISH_EE
   fun:_ZN10tensorflow20DirectSessionFactory10NewSessionERKNS_14SessionOptionsEPPNS_7SessionE
   fun:_ZN10tensorflow10NewSessionERKNS_14SessionOptionsEPPNS_7SessionE
   fun:_ZN12TFModelState4initEPKc
}
{
   <tensorflow_full>
   Memcheck:Leak
   match-leak-kinds: reachable
   fun:_Znwm
   fun:_ZN9__gnu_cxx13new_allocatorIPN10tensorflow13DirectSessionEE8allocateEmPKv
   fun:_ZNSt16allocator_traitsISaIPN10tensorflow13DirectSessionEEE8allocateERS3_m
   fun:_ZNSt12_Vector_baseIPN10tensorflow13DirectSessionESaIS2_EE11_M_allocateEm
   fun:_ZNSt6vectorIPN10tensorflow13DirectSessionESaIS2_EE17_M_realloc_insertIJRKS2_EEEvN9__gnu_cxx17__normal_iteratorIPS2_S4_EEDpOT_
   fun:_ZNSt6vectorIPN10tensorflow13DirectSessionESaIS2_EE9push_backERKS2_
   fun:_ZN10tensorflow20DirectSessionFactory10NewSessionERKNS_14SessionOptionsEPPNS_7SessionE
   fun:_ZN10tensorflow10NewSessionERKNS_14SessionOptionsEPPNS_7SessionE
   fun:_ZN12TFModelState4initEPKc
   fun:DS_CreateModel
   fun:main
}
{
   <tensorflow_full>
   Memcheck:Leak
   match-leak-kinds: reachable
   fun:_Znwm
   fun:_ZN9__gnu_cxx13new_allocatorIPN6google8protobuf20FileDescriptorTablesEE8allocateEmPKv
   fun:_ZNSt16allocator_traitsISaIPN6google8protobuf20FileDescriptorTablesEEE8allocateERS4_m
   fun:_ZNSt12_Vector_baseIPN6google8protobuf20FileDescriptorTablesESaIS3_EE11_M_allocateEm
   fun:_ZNSt6vectorIPN6google8protobuf20FileDescriptorTablesESaIS3_EE17_M_realloc_insertIJRKS3_EEEvN9__gnu_cxx17__normal_iteratorIPS3_S5_EEDpOT_
   fun:_ZNSt6vectorIPN6google8protobuf20FileDescriptorTablesESaIS3_EE9push_backERKS3_
   fun:_ZN6google8protobuf14DescriptorPool6Tables18AllocateFileTablesEv
   fun:_ZN6google8protobuf17DescriptorBuilder13BuildFileImplERKNS0_19FileDescriptorProtoE
   fun:_ZN6google8protobuf17DescriptorBuilder9BuildFileERKNS0_19FileDescriptorProtoE
   fun:_ZNK6google8protobuf14DescriptorPool21BuildFileFromDatabaseERKNS0_19FileDescriptorProtoE
   fun:_ZNK6google8protobuf14DescriptorPool29TryFindFileInFallbackDatabaseERKNSt7__cxx1112basic_stringIcSt11char_traitsIcESaIcEEE
   fun:_ZNK6google8protobuf14DescriptorPool14FindFileByNameERKNSt7__cxx1112basic_stringIcSt11char_traitsIcESaIcEEE
}
{
   <tensorflow_full>
   Memcheck:Leak
   match-leak-kinds: reachable
   fun:_Znwm
   fun:_ZN9__gnu_cxx13new_allocatorIPKcE8allocateEmPKv
   fun:_ZNSt16allocator_traitsISaIPKcEE8allocateERS2_m
   fun:_ZNSt12_Vector_baseIPKcSaIS1_EE11_M_allocateEm
   fun:_ZNSt6vectorIPKcSaIS1_EE17_M_realloc_insertIJS1_EEEvN9__gnu_cxx17__normal_iteratorIPS1_S3_EEDpOT_
   fun:_ZNSt6vectorIPKcSaIS1_EE12emplace_backIJS1_EEEvDpOT_
   fun:_ZNSt6vectorIPKcSaIS1_EE9push_backEOS1_
   fun:_ZN6google8protobuf14DescriptorPool6Tables7AddFileEPKNS0_14FileDescriptorE
   fun:_ZN6google8protobuf17DescriptorBuilder13BuildFileImplERKNS0_19FileDescriptorProtoE
   fun:_ZN6google8protobuf17DescriptorBuilder9BuildFileERKNS0_19FileDescriptorProtoE
   fun:_ZNK6google8protobuf14DescriptorPool21BuildFileFromDatabaseERKNS0_19FileDescriptorProtoE
   fun:_ZNK6google8protobuf14DescriptorPool29TryFindFileInFallbackDatabaseERKNSt7__cxx1112basic_stringIcSt11char_traitsIcESaIcEEE
}
{
   <tensorflow_full>
   Memcheck:Leak
   match-leak-kinds: reachable
   fun:_Znwm
   fun:_ZN6google8protobuf14DescriptorPool6Tables13AllocateBytesEi
   fun:_ZN6google8protobuf14DescriptorPool6Tables13AllocateArrayIPKNS0_14FileDescriptorEEEPT_i
   fun:_ZN6google8protobuf17DescriptorBuilder13BuildFileImplERKNS0_19FileDescriptorProtoE
   fun:_ZN6google8protobuf17DescriptorBuilder9BuildFileERKNS0_19FileDescriptorProtoE
   fun:_ZNK6google8protobuf14DescriptorPool21BuildFileFromDatabaseERKNS0_19FileDescriptorProtoE
   fun:_ZNK6google8protobuf14DescriptorPool29TryFindFileInFallbackDatabaseERKNSt7__cxx1112basic_stringIcSt11char_traitsIcESaIcEEE
   fun:_ZNK6google8protobuf14DescriptorPool14FindFileByNameERKNSt7__cxx1112basic_stringIcSt11char_traitsIcESaIcEEE
   fun:_ZN6google8protobuf12_GLOBAL__N_121AssignDescriptorsImplEPKNS0_8internal15DescriptorTableE
   fun:_ZSt13__invoke_implIvRFvPKN6google8protobuf8internal15DescriptorTableEEJRS5_EET_St14__invoke_otherOT0_DpOT1_
   fun:_ZSt8__invokeIRFvPKN6google8protobuf8internal15DescriptorTableEEJRS5_EENSt15__invoke_resultIT_JDpT0_EE4typeEOSA_DpOSB_
   fun:_ZZSt9call_onceIRFvPKN6google8protobuf8internal15DescriptorTableEEJRS5_EEvRSt9once_flagOT_DpOT0_ENKUlvE_clEv
}
{
   <tensorflow_full>
   Memcheck:Leak
   match-leak-kinds: reachable
   fun:_Znwm
   fun:_ZN6google8protobuf14DescriptorPool6Tables13AllocateBytesEi
   fun:_ZN6google8protobuf14DescriptorPool6Tables13AllocateArrayIPKNSt7__cxx1112basic_stringIcSt11char_traitsIcESaIcEEEEEPT_i
   fun:_ZN6google8protobuf17DescriptorBuilder13BuildFileImplERKNS0_19FileDescriptorProtoE
   fun:_ZN6google8protobuf17DescriptorBuilder9BuildFileERKNS0_19FileDescriptorProtoE
   fun:_ZNK6google8protobuf14DescriptorPool21BuildFileFromDatabaseERKNS0_19FileDescriptorProtoE
   fun:_ZNK6google8protobuf14DescriptorPool29TryFindFileInFallbackDatabaseERKNSt7__cxx1112basic_stringIcSt11char_traitsIcESaIcEEE
   fun:_ZNK6google8protobuf14DescriptorPool14FindFileByNameERKNSt7__cxx1112basic_stringIcSt11char_traitsIcESaIcEEE
   fun:_ZN6google8protobuf12_GLOBAL__N_121AssignDescriptorsImplEPKNS0_8internal15DescriptorTableE
   fun:_ZSt13__invoke_implIvRFvPKN6google8protobuf8internal15DescriptorTableEEJRS5_EET_St14__invoke_otherOT0_DpOT1_
   fun:_ZSt8__invokeIRFvPKN6google8protobuf8internal15DescriptorTableEEJRS5_EENSt15__invoke_resultIT_JDpT0_EE4typeEOSA_DpOSB_
   fun:_ZZSt9call_onceIRFvPKN6google8protobuf8internal15DescriptorTableEEJRS5_EEvRSt9once_flagOT_DpOT0_ENKUlvE_clEv
}
{
   <tensorflow_full>
   Memcheck:Leak
   match-leak-kinds: possible
   fun:malloc
   fun:_ZN5Eigen8internal23handmade_aligned_mallocEmm
   fun:_ZN5Eigen13MaxSizeVectorIjEC1Em
   fun:_ZN5Eigen13MaxSizeVectorINS0_IjEEE12emplace_backIiEEvRKT_
   fun:_ZN5Eigen15ThreadPoolTemplIN10tensorflow6thread16EigenEnvironmentEEC1EibS3_
   fun:_ZN10tensorflow6thread10ThreadPoolC1EPNS_3EnvERKNS_13ThreadOptionsERKNSt7__cxx1112basic_stringIcSt11char_traitsIcESaIcEEEibPN5Eigen9AllocatorE
   fun:_ZN10tensorflow6thread10ThreadPoolC1EPNS_3EnvERKNSt7__cxx1112basic_stringIcSt11char_traitsIcESaIcEEEi
   fun:_ZN10tensorflow12_GLOBAL__N_121GraphRunnerThreadPoolEv
   fun:_ZN10tensorflow12_GLOBAL__N_123SingleThreadedCpuDeviceC1EPNS_3EnvE
   fun:_ZN10tensorflow26NewSingleThreadedCpuDeviceEPNS_3EnvE
   fun:_ZN10tensorflow11GraphRunnerC1EPNS_3EnvE
   fun:_ZN10tensorflow12ShapeRefinerC1EiPKNS_19OpRegistryInterfaceE
}
{
   <tensorflow_full>
   Memcheck:Leak
   match-leak-kinds: reachable
   fun:_Znwm
   fun:_ZN10tensorflow3Env7DefaultEv
   fun:_ZN10tensorflow10monitoring18CollectionRegistry7DefaultEv
   fun:_ZN10tensorflow10monitoring7CounterILi0EEC1ERKNS0_9MetricDefILNS0_10MetricKindE1ExLi0EEE
   fun:_ZN10tensorflow10monitoring7CounterILi0EE3NewIJRA37_KcRA58_S4_EEEPS2_DpOT_
   fun:_Z41__static_initialization_and_destruction_0ii
}
{
   <tensorflow_full>
   Memcheck:Leak
   match-leak-kinds: reachable
   fun:_Znwm
   fun:_ZN10tensorflow10monitoring18CollectionRegistry8RegisterEPKNS0_17AbstractMetricDefERKSt8functionIFvNS0_21MetricCollectorGetterEEE
   fun:_ZN10tensorflow10monitoring7CounterILi0EEC1ERKNS0_9MetricDefILNS0_10MetricKindE1ExLi0EEE
   fun:_ZN10tensorflow10monitoring7CounterILi0EE3NewIJRA37_KcRA58_S4_EEEPS2_DpOT_
   fun:_Z41__static_initialization_and_destruction_0ii
}
{
   <tensorflow_full>
   Memcheck:Leak
   match-leak-kinds: reachable
   fun:_Znwm
   fun:_ZSt11make_uniqueIN10tensorflow14kernel_factory17OpKernelRegistrar18PtrOpKernelFactoryEJRPFPNS0_8OpKernelEPNS0_20OpKernelConstructionEEEENSt9_MakeUniqIT_E15__single_objectEDpOT0_
   fun:_ZN10tensorflow14kernel_factory17OpKernelRegistrarC1EPKNS_9KernelDefEN4absl14lts_2020_02_2511string_viewEPFPNS_8OpKernelEPNS_20OpKernelConstructionEE
   fun:_Z41__static_initialization_and_destruction_0ii
}
{
   <tensorflow_full>
   Memcheck:Leak
   match-leak-kinds: reachable
   fun:_Znwm
   fun:_ZSt11make_uniqueIN10tensorflow14kernel_factory17OpKernelRegistrar18PtrOpKernelFactoryEJRPFPNS0_8OpKernelEPNS0_20OpKernelConstructionEEEENSt9_MakeUniqIT_E15__single_objectEDpOT0_
   fun:_ZN10tensorflow14kernel_factory17OpKernelRegistrarC1EPKNS_9KernelDefEN4absl14lts_2020_02_2511string_viewEPFPNS_8OpKernelEPNS_20OpKernelConstructionEE
   fun:_Z41__static_initialization_and_destruction_0ii
   fun:_GLOBAL__sub_I_spectrogram_op.cc
}
{
   <tensorflow_full>
   Memcheck:Leak
   match-leak-kinds: reachable
   fun:_Znwm
   fun:_ZSt11make_uniqueIN10tensorflow14kernel_factory17OpKernelRegistrar18PtrOpKernelFactoryEJRPFPNS0_8OpKernelEPNS0_20OpKernelConstructionEEEENSt9_MakeUniqIT_E15__single_objectEDpOT0_
   fun:_ZN10tensorflow14kernel_factory17OpKernelRegistrarC1EPKNS_9KernelDefEN4absl14lts_2020_02_2511string_viewEPFPNS_8OpKernelEPNS_20OpKernelConstructionEE
   fun:_Z41__static_initialization_and_destruction_0ii
   fun:_GLOBAL__sub_I_bias_op.cc
}
{
   <tensorflow_full>
   Memcheck:Leak
   match-leak-kinds: reachable
   fun:_Znwm
   fun:_ZSt11make_uniqueIN10tensorflow14kernel_factory17OpKernelRegistrar18PtrOpKernelFactoryEJRPFPNS0_8OpKernelEPNS0_20OpKernelConstructionEEEENSt9_MakeUniqIT_E15__single_objectEDpOT0_
   fun:_ZN10tensorflow14kernel_factory17OpKernelRegistrarC1EPKNS_9KernelDefEN4absl14lts_2020_02_2511string_viewEPFPNS_8OpKernelEPNS_20OpKernelConstructionEE
   fun:_Z41__static_initialization_and_destruction_0ii
   fun:_GLOBAL__sub_I_cast_op.cc
}
{
   <tensorflow_full>
   Memcheck:Leak
   match-leak-kinds: reachable
   fun:_Znwm
   fun:_ZSt11make_uniqueIN10tensorflow14kernel_factory17OpKernelRegistrar18PtrOpKernelFactoryEJRPFPNS0_8OpKernelEPNS0_20OpKernelConstructionEEEENSt9_MakeUniqIT_E15__single_objectEDpOT0_
   fun:_ZN10tensorflow14kernel_factory17OpKernelRegistrarC1EPKNS_9KernelDefEN4absl14lts_2020_02_2511string_viewEPFPNS_8OpKernelEPNS_20OpKernelConstructionEE
   fun:_Z41__static_initialization_and_destruction_0ii
   fun:_GLOBAL__sub_I_concat_op.cc
}
{
   <tensorflow_full>
   Memcheck:Leak
   match-leak-kinds: reachable
   fun:_Znwm
   fun:_ZSt11make_uniqueIN10tensorflow14kernel_factory17OpKernelRegistrar18PtrOpKernelFactoryEJRPFPNS0_8OpKernelEPNS0_20OpKernelConstructionEEEENSt9_MakeUniqIT_E15__single_objectEDpOT0_
   fun:_ZN10tensorflow14kernel_factory17OpKernelRegistrarC1EPKNS_9KernelDefEN4absl14lts_2020_02_2511string_viewEPFPNS_8OpKernelEPNS_20OpKernelConstructionEE
   fun:_Z41__static_initialization_and_destruction_0ii
   fun:_GLOBAL__sub_I_constant_op.cc
}
{
   <tensorflow_full>
   Memcheck:Leak
   match-leak-kinds: reachable
   fun:_Znwm
   fun:_ZSt11make_uniqueIN10tensorflow14kernel_factory17OpKernelRegistrar18PtrOpKernelFactoryEJRPFPNS0_8OpKernelEPNS0_20OpKernelConstructionEEEENSt9_MakeUniqIT_E15__single_objectEDpOT0_
   fun:_ZN10tensorflow14kernel_factory17OpKernelRegistrarC1EPKNS_9KernelDefEN4absl14lts_2020_02_2511string_viewEPFPNS_8OpKernelEPNS_20OpKernelConstructionEE
   fun:_Z41__static_initialization_and_destruction_0ii
   fun:_GLOBAL__sub_I_shape_ops.cc
}
{
   <tensorflow_full>
   Memcheck:Leak
   match-leak-kinds: reachable
   fun:_Znwm
   fun:_ZSt11make_uniqueIN10tensorflow14kernel_factory17OpKernelRegistrar18PtrOpKernelFactoryEJRPFPNS0_8OpKernelEPNS0_20OpKernelConstructionEEEENSt9_MakeUniqIT_E15__single_objectEDpOT0_
   fun:_ZN10tensorflow14kernel_factory17OpKernelRegistrarC1EPKNS_9KernelDefEN4absl14lts_2020_02_2511string_viewEPFPNS_8OpKernelEPNS_20OpKernelConstructionEE
   fun:_Z41__static_initialization_and_destruction_0ii
   fun:_GLOBAL__sub_I_gather_nd_op.cc
}
{
   <tensorflow_full>
   Memcheck:Leak
   match-leak-kinds: reachable
   fun:_Znwm
   fun:_ZSt11make_uniqueIN10tensorflow14kernel_factory17OpKernelRegistrar18PtrOpKernelFactoryEJRPFPNS0_8OpKernelEPNS0_20OpKernelConstructionEEEENSt9_MakeUniqIT_E15__single_objectEDpOT0_
   fun:_ZN10tensorflow14kernel_factory17OpKernelRegistrarC1EPKNS_9KernelDefEN4absl14lts_2020_02_2511string_viewEPFPNS_8OpKernelEPNS_20OpKernelConstructionEE
   fun:_Z41__static_initialization_and_destruction_0ii
   fun:_GLOBAL__sub_I_identity_op.cc
}
{
   <tensorflow_full>
   Memcheck:Leak
   match-leak-kinds: reachable
   fun:_Znwm
   fun:_ZSt11make_uniqueIN10tensorflow14kernel_factory17OpKernelRegistrar18PtrOpKernelFactoryEJRPFPNS0_8OpKernelEPNS0_20OpKernelConstructionEEEENSt9_MakeUniqIT_E15__single_objectEDpOT0_
   fun:_ZN10tensorflow14kernel_factory17OpKernelRegistrarC1EPKNS_9KernelDefEN4absl14lts_2020_02_2511string_viewEPFPNS_8OpKernelEPNS_20OpKernelConstructionEE
   fun:_Z41__static_initialization_and_destruction_0ii
   fun:_GLOBAL__sub_I_immutable_constant_op.cc
}
{
   <tensorflow_full>
   Memcheck:Leak
   match-leak-kinds: reachable
   fun:_Znwm
   fun:_ZSt11make_uniqueIN10tensorflow14kernel_factory17OpKernelRegistrar18PtrOpKernelFactoryEJRPFPNS0_8OpKernelEPNS0_20OpKernelConstructionEEEENSt9_MakeUniqIT_E15__single_objectEDpOT0_
   fun:_ZN10tensorflow14kernel_factory17OpKernelRegistrarC1EPKNS_9KernelDefEN4absl14lts_2020_02_2511string_viewEPFPNS_8OpKernelEPNS_20OpKernelConstructionEE
   fun:_Z41__static_initialization_and_destruction_0ii
   fun:_GLOBAL__sub_I_cwise_op_less.cc
}
{
   <tensorflow_full>
   Memcheck:Leak
   match-leak-kinds: reachable
   fun:_Znwm
   fun:_ZSt11make_uniqueIN10tensorflow14kernel_factory17OpKernelRegistrar18PtrOpKernelFactoryEJRPFPNS0_8OpKernelEPNS0_20OpKernelConstructionEEEENSt9_MakeUniqIT_E15__single_objectEDpOT0_
   fun:_ZN10tensorflow14kernel_factory17OpKernelRegistrarC1EPKNS_9KernelDefEN4absl14lts_2020_02_2511string_viewEPFPNS_8OpKernelEPNS_20OpKernelConstructionEE
   fun:_Z41__static_initialization_and_destruction_0ii
   fun:_GLOBAL__sub_I_cwise_op_minimum.cc
}
{
   <tensorflow_full>
   Memcheck:Leak
   match-leak-kinds: reachable
   fun:_Znwm
   fun:_ZSt11make_uniqueIN10tensorflow14kernel_factory17OpKernelRegistrar18PtrOpKernelFactoryEJRPFPNS0_8OpKernelEPNS0_20OpKernelConstructionEEEENSt9_MakeUniqIT_E15__single_objectEDpOT0_
   fun:_ZN10tensorflow14kernel_factory17OpKernelRegistrarC1EPKNS_9KernelDefEN4absl14lts_2020_02_2511string_viewEPFPNS_8OpKernelEPNS_20OpKernelConstructionEE
   fun:_Z41__static_initialization_and_destruction_0ii
   fun:_GLOBAL__sub_I_cwise_op_mul_1.cc
}
{
   <tensorflow_full>
   Memcheck:Leak
   match-leak-kinds: reachable
   fun:_Znwm
   fun:_ZSt11make_uniqueIN10tensorflow14kernel_factory17OpKernelRegistrar18PtrOpKernelFactoryEJRPFPNS0_8OpKernelEPNS0_20OpKernelConstructionEEEENSt9_MakeUniqIT_E15__single_objectEDpOT0_
   fun:_ZN10tensorflow14kernel_factory17OpKernelRegistrarC1EPKNS_9KernelDefEN4absl14lts_2020_02_2511string_viewEPFPNS_8OpKernelEPNS_20OpKernelConstructionEE
   fun:_Z41__static_initialization_and_destruction_0ii
   fun:_GLOBAL__sub_I_cwise_op_squared_difference.cc
}
{
   <tensorflow_full>
   Memcheck:Leak
   match-leak-kinds: reachable
   fun:_Znwm
   fun:_ZSt11make_uniqueIN10tensorflow14kernel_factory17OpKernelRegistrar18PtrOpKernelFactoryEJRPFPNS0_8OpKernelEPNS0_20OpKernelConstructionEEEENSt9_MakeUniqIT_E15__single_objectEDpOT0_
   fun:_ZN10tensorflow14kernel_factory17OpKernelRegistrarC1EPKNS_9KernelDefEN4absl14lts_2020_02_2511string_viewEPFPNS_8OpKernelEPNS_20OpKernelConstructionEE
   fun:_Z41__static_initialization_and_destruction_0ii
   fun:_GLOBAL__sub_I_cwise_op_add_1.cc
}
{
   <tensorflow_full>
   Memcheck:Leak
   match-leak-kinds: reachable
   fun:_Znwm
   fun:_ZSt11make_uniqueIN10tensorflow14kernel_factory17OpKernelRegistrar18PtrOpKernelFactoryEJRPFPNS0_8OpKernelEPNS0_20OpKernelConstructionEEEENSt9_MakeUniqIT_E15__single_objectEDpOT0_
   fun:_ZN10tensorflow14kernel_factory17OpKernelRegistrarC1EPKNS_9KernelDefEN4absl14lts_2020_02_2511string_viewEPFPNS_8OpKernelEPNS_20OpKernelConstructionEE
   fun:_Z41__static_initialization_and_destruction_0ii
   fun:_GLOBAL__sub_I_cwise_op_add_2.cc
}
{
   <tensorflow_full>
   Memcheck:Leak
   match-leak-kinds: reachable
   fun:_Znwm
   fun:_ZSt11make_uniqueIN10tensorflow14kernel_factory17OpKernelRegistrar18PtrOpKernelFactoryEJRPFPNS0_8OpKernelEPNS0_20OpKernelConstructionEEEENSt9_MakeUniqIT_E15__single_objectEDpOT0_
   fun:_ZN10tensorflow14kernel_factory17OpKernelRegistrarC1EPKNS_9KernelDefEN4absl14lts_2020_02_2511string_viewEPFPNS_8OpKernelEPNS_20OpKernelConstructionEE
   fun:_Z41__static_initialization_and_destruction_0ii
   fun:_GLOBAL__sub_I_cwise_op_rsqrt.cc
}
{
   <tensorflow_full>
   Memcheck:Leak
   match-leak-kinds: reachable
   fun:_Znwm
   fun:_ZSt11make_uniqueIN10tensorflow14kernel_factory17OpKernelRegistrar18PtrOpKernelFactoryEJRPFPNS0_8OpKernelEPNS0_20OpKernelConstructionEEEENSt9_MakeUniqIT_E15__single_objectEDpOT0_
   fun:_ZN10tensorflow14kernel_factory17OpKernelRegistrarC1EPKNS_9KernelDefEN4absl14lts_2020_02_2511string_viewEPFPNS_8OpKernelEPNS_20OpKernelConstructionEE
   fun:_Z41__static_initialization_and_destruction_0ii
   fun:_GLOBAL__sub_I_cwise_op_sub.cc
}
{
   <tensorflow_full>
   Memcheck:Leak
   match-leak-kinds: reachable
   fun:_Znwm
   fun:_ZSt11make_uniqueIN10tensorflow14kernel_factory17OpKernelRegistrar18PtrOpKernelFactoryEJRPFPNS0_8OpKernelEPNS0_20OpKernelConstructionEEEENSt9_MakeUniqIT_E15__single_objectEDpOT0_
   fun:_ZN10tensorflow14kernel_factory17OpKernelRegistrarC1EPKNS_9KernelDefEN4absl14lts_2020_02_2511string_viewEPFPNS_8OpKernelEPNS_20OpKernelConstructionEE
   fun:_Z41__static_initialization_and_destruction_0ii
   fun:_GLOBAL__sub_I_matmul_op.cc
}
{
   <tensorflow_full>
   Memcheck:Leak
   match-leak-kinds: reachable
   fun:_Znwm
   fun:_ZSt11make_uniqueIN10tensorflow14kernel_factory17OpKernelRegistrar18PtrOpKernelFactoryEJRPFPNS0_8OpKernelEPNS0_20OpKernelConstructionEEEENSt9_MakeUniqIT_E15__single_objectEDpOT0_
   fun:_ZN10tensorflow14kernel_factory17OpKernelRegistrarC1EPKNS_9KernelDefEN4absl14lts_2020_02_2511string_viewEPFPNS_8OpKernelEPNS_20OpKernelConstructionEE
   fun:_Z41__static_initialization_and_destruction_0ii
   fun:_GLOBAL__sub_I_matmul_op_fused.cc
}
{
   <tensorflow_full>
   Memcheck:Leak
   match-leak-kinds: reachable
   fun:_Znwm
   fun:_ZSt11make_uniqueIN10tensorflow14kernel_factory17OpKernelRegistrar18PtrOpKernelFactoryEJRPFPNS0_8OpKernelEPNS0_20OpKernelConstructionEEEENSt9_MakeUniqIT_E15__single_objectEDpOT0_
   fun:_ZN10tensorflow14kernel_factory17OpKernelRegistrarC1EPKNS_9KernelDefEN4absl14lts_2020_02_2511string_viewEPFPNS_8OpKernelEPNS_20OpKernelConstructionEE
   fun:_Z41__static_initialization_and_destruction_0ii
   fun:_GLOBAL__sub_I_reduction_ops_all.cc
}
{
   <tensorflow_full>
   Memcheck:Leak
   match-leak-kinds: reachable
   fun:_Znwm
   fun:_ZSt11make_uniqueIN10tensorflow14kernel_factory17OpKernelRegistrar18PtrOpKernelFactoryEJRPFPNS0_8OpKernelEPNS0_20OpKernelConstructionEEEENSt9_MakeUniqIT_E15__single_objectEDpOT0_
   fun:_ZN10tensorflow14kernel_factory17OpKernelRegistrarC1EPKNS_9KernelDefEN4absl14lts_2020_02_2511string_viewEPFPNS_8OpKernelEPNS_20OpKernelConstructionEE
   fun:_Z41__static_initialization_and_destruction_0ii
   fun:_GLOBAL__sub_I_reduction_ops_any.cc
}
{
   <tensorflow_full>
   Memcheck:Leak
   match-leak-kinds: reachable
   fun:_Znwm
   fun:_ZSt11make_uniqueIN10tensorflow14kernel_factory17OpKernelRegistrar18PtrOpKernelFactoryEJRPFPNS0_8OpKernelEPNS0_20OpKernelConstructionEEEENSt9_MakeUniqIT_E15__single_objectEDpOT0_
   fun:_ZN10tensorflow14kernel_factory17OpKernelRegistrarC1EPKNS_9KernelDefEN4absl14lts_2020_02_2511string_viewEPFPNS_8OpKernelEPNS_20OpKernelConstructionEE
   fun:_Z41__static_initialization_and_destruction_0ii
   fun:_GLOBAL__sub_I_reduction_ops_euclidean.cc
}
{
   <tensorflow_full>
   Memcheck:Leak
   match-leak-kinds: reachable
   fun:_Znwm
   fun:_ZSt11make_uniqueIN10tensorflow14kernel_factory17OpKernelRegistrar18PtrOpKernelFactoryEJRPFPNS0_8OpKernelEPNS0_20OpKernelConstructionEEEENSt9_MakeUniqIT_E15__single_objectEDpOT0_
   fun:_ZN10tensorflow14kernel_factory17OpKernelRegistrarC1EPKNS_9KernelDefEN4absl14lts_2020_02_2511string_viewEPFPNS_8OpKernelEPNS_20OpKernelConstructionEE
   fun:_Z41__static_initialization_and_destruction_0ii
   fun:_GLOBAL__sub_I_reduction_ops_max.cc
}
{
   <tensorflow_full>
   Memcheck:Leak
   match-leak-kinds: reachable
   fun:_Znwm
   fun:_ZSt11make_uniqueIN10tensorflow14kernel_factory17OpKernelRegistrar18PtrOpKernelFactoryEJRPFPNS0_8OpKernelEPNS0_20OpKernelConstructionEEEENSt9_MakeUniqIT_E15__single_objectEDpOT0_
   fun:_ZN10tensorflow14kernel_factory17OpKernelRegistrarC1EPKNS_9KernelDefEN4absl14lts_2020_02_2511string_viewEPFPNS_8OpKernelEPNS_20OpKernelConstructionEE
   fun:_Z41__static_initialization_and_destruction_0ii
   fun:_GLOBAL__sub_I_reduction_ops_mean.cc
}
{
   <tensorflow_full>
   Memcheck:Leak
   match-leak-kinds: reachable
   fun:_Znwm
   fun:_ZSt11make_uniqueIN10tensorflow14kernel_factory17OpKernelRegistrar18PtrOpKernelFactoryEJRPFPNS0_8OpKernelEPNS0_20OpKernelConstructionEEEENSt9_MakeUniqIT_E15__single_objectEDpOT0_
   fun:_ZN10tensorflow14kernel_factory17OpKernelRegistrarC1EPKNS_9KernelDefEN4absl14lts_2020_02_2511string_viewEPFPNS_8OpKernelEPNS_20OpKernelConstructionEE
   fun:_Z41__static_initialization_and_destruction_0ii
   fun:_GLOBAL__sub_I_reduction_ops_min.cc
}
{
   <tensorflow_full>
   Memcheck:Leak
   match-leak-kinds: reachable
   fun:_Znwm
   fun:_ZSt11make_uniqueIN10tensorflow14kernel_factory17OpKernelRegistrar18PtrOpKernelFactoryEJRPFPNS0_8OpKernelEPNS0_20OpKernelConstructionEEEENSt9_MakeUniqIT_E15__single_objectEDpOT0_
   fun:_ZN10tensorflow14kernel_factory17OpKernelRegistrarC1EPKNS_9KernelDefEN4absl14lts_2020_02_2511string_viewEPFPNS_8OpKernelEPNS_20OpKernelConstructionEE
   fun:_Z41__static_initialization_and_destruction_0ii
   fun:_GLOBAL__sub_I_reduction_ops_prod.cc
}
{
   <tensorflow_full>
   Memcheck:Leak
   match-leak-kinds: reachable
   fun:_Znwm
   fun:_ZSt11make_uniqueIN10tensorflow14kernel_factory17OpKernelRegistrar18PtrOpKernelFactoryEJRPFPNS0_8OpKernelEPNS0_20OpKernelConstructionEEEENSt9_MakeUniqIT_E15__single_objectEDpOT0_
   fun:_ZN10tensorflow14kernel_factory17OpKernelRegistrarC1EPKNS_9KernelDefEN4absl14lts_2020_02_2511string_viewEPFPNS_8OpKernelEPNS_20OpKernelConstructionEE
   fun:_Z41__static_initialization_and_destruction_0ii
   fun:_GLOBAL__sub_I_reduction_ops_sum.cc
}
{
   <tensorflow_full>
   Memcheck:Leak
   match-leak-kinds: reachable
   fun:_Znwm
   fun:_ZSt11make_uniqueIN10tensorflow14kernel_factory17OpKernelRegistrar18PtrOpKernelFactoryEJRPFPNS0_8OpKernelEPNS0_20OpKernelConstructionEEEENSt9_MakeUniqIT_E15__single_objectEDpOT0_
   fun:_ZN10tensorflow14kernel_factory17OpKernelRegistrarC1EPKNS_9KernelDefEN4absl14lts_2020_02_2511string_viewEPFPNS_8OpKernelEPNS_20OpKernelConstructionEE
   fun:_Z41__static_initialization_and_destruction_0ii
   fun:_GLOBAL__sub_I_mfcc_op.cc
}
{
   <tensorflow_full>
   Memcheck:Leak
   match-leak-kinds: reachable
   fun:_Znwm
   fun:_ZSt11make_uniqueIN10tensorflow14kernel_factory17OpKernelRegistrar18PtrOpKernelFactoryEJRPFPNS0_8OpKernelEPNS0_20OpKernelConstructionEEEENSt9_MakeUniqIT_E15__single_objectEDpOT0_
   fun:_ZN10tensorflow14kernel_factory17OpKernelRegistrarC1EPKNS_9KernelDefEN4absl14lts_2020_02_2511string_viewEPFPNS_8OpKernelEPNS_20OpKernelConstructionEE
   fun:_Z41__static_initialization_and_destruction_0ii
   fun:_GLOBAL__sub_I_pack_op.cc
}
{
   <tensorflow_full>
   Memcheck:Leak
   match-leak-kinds: reachable
   fun:_Znwm
   fun:_ZSt11make_uniqueIN10tensorflow14kernel_factory17OpKernelRegistrar18PtrOpKernelFactoryEJRPFPNS0_8OpKernelEPNS0_20OpKernelConstructionEEEENSt9_MakeUniqIT_E15__single_objectEDpOT0_
   fun:_ZN10tensorflow14kernel_factory17OpKernelRegistrarC1EPKNS_9KernelDefEN4absl14lts_2020_02_2511string_viewEPFPNS_8OpKernelEPNS_20OpKernelConstructionEE
   fun:_Z41__static_initialization_and_destruction_0ii
   fun:_GLOBAL__sub_I_sequence_ops.cc
}
{
   <tensorflow_full>
   Memcheck:Leak
   match-leak-kinds: reachable
   fun:_Znwm
   fun:_ZSt11make_uniqueIN10tensorflow14kernel_factory17OpKernelRegistrar18PtrOpKernelFactoryEJRPFPNS0_8OpKernelEPNS0_20OpKernelConstructionEEEENSt9_MakeUniqIT_E15__single_objectEDpOT0_
   fun:_ZN10tensorflow14kernel_factory17OpKernelRegistrarC1EPKNS_9KernelDefEN4absl14lts_2020_02_2511string_viewEPFPNS_8OpKernelEPNS_20OpKernelConstructionEE
   fun:_Z41__static_initialization_and_destruction_0ii
   fun:_GLOBAL__sub_I_relu_op.cc
}
{
   <tensorflow_full>
   Memcheck:Leak
   match-leak-kinds: reachable
   fun:_Znwm
   fun:_ZSt11make_uniqueIN10tensorflow14kernel_factory17OpKernelRegistrar18PtrOpKernelFactoryEJRPFPNS0_8OpKernelEPNS0_20OpKernelConstructionEEEENSt9_MakeUniqIT_E15__single_objectEDpOT0_
   fun:_ZN10tensorflow14kernel_factory17OpKernelRegistrarC1EPKNS_9KernelDefEN4absl14lts_2020_02_2511string_viewEPFPNS_8OpKernelEPNS_20OpKernelConstructionEE
   fun:_Z41__static_initialization_and_destruction_0ii
   fun:_GLOBAL__sub_I_reshape_op.cc
}
{
   <tensorflow_full>
   Memcheck:Leak
   match-leak-kinds: reachable
   fun:_Znwm
   fun:_ZSt11make_uniqueIN10tensorflow14kernel_factory17OpKernelRegistrar18PtrOpKernelFactoryEJRPFPNS0_8OpKernelEPNS0_20OpKernelConstructionEEEENSt9_MakeUniqIT_E15__single_objectEDpOT0_
   fun:_ZN10tensorflow14kernel_factory17OpKernelRegistrarC1EPKNS_9KernelDefEN4absl14lts_2020_02_2511string_viewEPFPNS_8OpKernelEPNS_20OpKernelConstructionEE
   fun:_Z41__static_initialization_and_destruction_0ii
   fun:_GLOBAL__sub_I_softmax_op.cc
}
{
   <tensorflow_full>
   Memcheck:Leak
   match-leak-kinds: reachable
   fun:_Znwm
   fun:_ZSt11make_uniqueIN10tensorflow14kernel_factory17OpKernelRegistrar18PtrOpKernelFactoryEJRPFPNS0_8OpKernelEPNS0_20OpKernelConstructionEEEENSt9_MakeUniqIT_E15__single_objectEDpOT0_
   fun:_ZN10tensorflow14kernel_factory17OpKernelRegistrarC1EPKNS_9KernelDefEN4absl14lts_2020_02_2511string_viewEPFPNS_8OpKernelEPNS_20OpKernelConstructionEE
   fun:_Z41__static_initialization_and_destruction_0ii
   fun:_GLOBAL__sub_I_tile_ops.cc
}
{
   <tensorflow_full>
   Memcheck:Leak
   match-leak-kinds: reachable
   fun:_Znwm
   fun:_ZSt11make_uniqueIN10tensorflow14kernel_factory17OpKernelRegistrar18PtrOpKernelFactoryEJRPFPNS0_8OpKernelEPNS0_20OpKernelConstructionEEEENSt9_MakeUniqIT_E15__single_objectEDpOT0_
   fun:_ZN10tensorflow14kernel_factory17OpKernelRegistrarC1EPKNS_9KernelDefEN4absl14lts_2020_02_2511string_viewEPFPNS_8OpKernelEPNS_20OpKernelConstructionEE
   fun:_Z41__static_initialization_and_destruction_0ii
   fun:_GLOBAL__sub_I_transpose_op.cc
}
{
   <tensorflow_full>
   Memcheck:Leak
   match-leak-kinds: reachable
   fun:_Znwm
   fun:_ZN9__gnu_cxx13new_allocatorIPNSt8__detail15_Hash_node_baseEE8allocateEmPKv
   fun:_ZNSt16allocator_traitsISaIPNSt8__detail15_Hash_node_baseEEE8allocateERS3_m
   fun:_ZNSt8__detail16_Hashtable_allocISaINS_10_Hash_nodeINSt7__cxx1112basic_stringIcSt11char_traitsIcESaIcEEELb1EEEEE19_M_allocate_bucketsEm
   fun:_ZNSt10_HashtableINSt7__cxx1112basic_stringIcSt11char_traitsIcESaIcEEES5_SaIS5_ENSt8__detail9_IdentityESt8equal_toIS5_EN10tensorflow4hashIN4absl14lts_2020_02_2511string_viewEvEENS7_18_Mod_range_hashingENS7_20_Default_ranged_hashENS7_20_Prime_rehash_policyENS7_17_Hashtable_traitsILb1ELb1ELb1EEEE19_M_allocate_bucketsEm
   fun:_ZNSt10_HashtableINSt7__cxx1112basic_stringIcSt11char_traitsIcESaIcEEES5_SaIS5_ENSt8__detail9_IdentityESt8equal_toIS5_EN10tensorflow4hashIN4absl14lts_2020_02_2511string_viewEvEENS7_18_Mod_range_hashingENS7_20_Default_ranged_hashENS7_20_Prime_rehash_policyENS7_17_Hashtable_traitsILb1ELb1ELb1EEEEC1IPKS5_EET_SQ_mRKSG_RKSH_RKSI_RKSA_RKS8_RKS6_
   fun:_ZNSt10_HashtableINSt7__cxx1112basic_stringIcSt11char_traitsIcESaIcEEES5_SaIS5_ENSt8__detail9_IdentityESt8equal_toIS5_EN10tensorflow4hashIN4absl14lts_2020_02_2511string_viewEvEENS7_18_Mod_range_hashingENS7_20_Default_ranged_hashENS7_20_Prime_rehash_policyENS7_17_Hashtable_traitsILb1ELb1ELb1EEEEC1ESt16initializer_listIS5_EmRKSG_RKSA_RKS6_
   fun:_ZNSt13unordered_setINSt7__cxx1112basic_stringIcSt11char_traitsIcESaIcEEEN10tensorflow4hashIN4absl14lts_2020_02_2511string_viewEvEESt8equal_toIS5_ESaIS5_EEC1ESt16initializer_listIS5_EmRKSB_RKSD_RKSE_
   fun:_Z41__static_initialization_and_destruction_0ii
   fun:_GLOBAL__sub_I_quantize_training.cc
}
{
   <tensorflow_full>
   Memcheck:Leak
   match-leak-kinds: reachable
   fun:_Znwm
   fun:_ZN10tensorflow10monitoring18CollectionRegistry8RegisterEPKNS0_17AbstractMetricDefERKSt8functionIFvNS0_21MetricCollectorGetterEEE
   fun:_ZN10tensorflow10monitoring5GaugeIbLi0EEC1ERKNS0_9MetricDefILNS0_10MetricKindE0EbLi0EEE
   fun:_ZN10tensorflow10monitoring5GaugeIbLi0EE3NewIJRA33_KcRA31_S4_EEEPS2_DpOT_
   fun:_Z41__static_initialization_and_destruction_0ii
   fun:_GLOBAL__sub_I_session.cc
}
{
   <tensorflow_full>
   Memcheck:Leak
   match-leak-kinds: reachable
   fun:_Znwm
   fun:_ZSt11make_uniqueIN10tensorflow14kernel_factory17OpKernelRegistrar18PtrOpKernelFactoryEJRPFPNS0_8OpKernelEPNS0_20OpKernelConstructionEEEENSt9_MakeUniqIT_E15__single_objectEDpOT0_
   fun:_ZN10tensorflow14kernel_factory17OpKernelRegistrarC1EPKNS_9KernelDefEN4absl14lts_2020_02_2511string_viewEPFPNS_8OpKernelEPNS_20OpKernelConstructionEE
   fun:_Z41__static_initialization_and_destruction_0ii
   fun:_GLOBAL__sub_I_no_op.cc
}
{
   <tensorflow_full>
   Memcheck:Leak
   match-leak-kinds: reachable
   fun:_Znwm
   fun:_ZSt11make_uniqueIN10tensorflow14kernel_factory17OpKernelRegistrar18PtrOpKernelFactoryEJRPFPNS0_8OpKernelEPNS0_20OpKernelConstructionEEEENSt9_MakeUniqIT_E15__single_objectEDpOT0_
   fun:_ZN10tensorflow14kernel_factory17OpKernelRegistrarC1EPKNS_9KernelDefEN4absl14lts_2020_02_2511string_viewEPFPNS_8OpKernelEPNS_20OpKernelConstructionEE
   fun:_Z41__static_initialization_and_destruction_0ii
   fun:_GLOBAL__sub_I_sendrecv_ops.cc
}
{
   <tensorflow_full>
   Memcheck:Leak
   match-leak-kinds: reachable
   fun:_Znwm
   fun:_ZSt11make_uniqueIN10tensorflow14kernel_factory17OpKernelRegistrar18PtrOpKernelFactoryEJRPFPNS0_8OpKernelEPNS0_20OpKernelConstructionEEEENSt9_MakeUniqIT_E15__single_objectEDpOT0_
   fun:_ZN10tensorflow14kernel_factory17OpKernelRegistrarC1EPKNS_9KernelDefEN4absl14lts_2020_02_2511string_viewEPFPNS_8OpKernelEPNS_20OpKernelConstructionEE
   fun:_ZN10tensorflowL10InitModuleEv
   fun:_Z41__static_initialization_and_destruction_0ii
   fun:_GLOBAL__sub_I_sendrecv_ops.cc
}
{
   <tensorflow_full>
   Memcheck:Leak
   match-leak-kinds: reachable
   fun:_Znwm
   fun:_ZSt11make_uniqueIN10tensorflow14kernel_factory17OpKernelRegistrar18PtrOpKernelFactoryEJRPFPNS0_8OpKernelEPNS0_20OpKernelConstructionEEEENSt9_MakeUniqIT_E15__single_objectEDpOT0_
   fun:_ZN10tensorflow14kernel_factory17OpKernelRegistrarC1EPKNS_9KernelDefEN4absl14lts_2020_02_2511string_viewEPFPNS_8OpKernelEPNS_20OpKernelConstructionEE
   fun:_Z41__static_initialization_and_destruction_0ii
   fun:_GLOBAL__sub_I_gru_ops.cc
}
{
   <tensorflow_full>
   Memcheck:Leak
   match-leak-kinds: reachable
   fun:_Znwm
   fun:_ZSt11make_uniqueIN10tensorflow14kernel_factory17OpKernelRegistrar18PtrOpKernelFactoryEJRPFPNS0_8OpKernelEPNS0_20OpKernelConstructionEEEENSt9_MakeUniqIT_E15__single_objectEDpOT0_
   fun:_ZN10tensorflow14kernel_factory17OpKernelRegistrarC1EPKNS_9KernelDefEN4absl14lts_2020_02_2511string_viewEPFPNS_8OpKernelEPNS_20OpKernelConstructionEE
   fun:_Z41__static_initialization_and_destruction_0ii
   fun:_GLOBAL__sub_I_lstm_ops.cc
}
{
   <tensorflow_full>
   Memcheck:Leak
   match-leak-kinds: reachable
   fun:_Znwm
   fun:_ZSt11make_uniqueIN10tensorflow14kernel_factory17OpKernelRegistrar18PtrOpKernelFactoryEJRPFPNS0_8OpKernelEPNS0_20OpKernelConstructionEEEENSt9_MakeUniqIT_E15__single_objectEDpOT0_
   fun:_ZN10tensorflow14kernel_factory17OpKernelRegistrarC1EPKNS_9KernelDefEN4absl14lts_2020_02_2511string_viewEPFPNS_8OpKernelEPNS_20OpKernelConstructionEE
   fun:_Z41__static_initialization_and_destruction_0ii
   fun:_GLOBAL__sub_I_dataset.cc
}
{
   <tensorflow_full>
   Memcheck:Leak
   match-leak-kinds: reachable
   fun:_Znwm
   fun:_ZN10tensorflow10monitoring18CollectionRegistry8RegisterEPKNS0_17AbstractMetricDefERKSt8functionIFvNS0_21MetricCollectorGetterEEE
   fun:_ZN10tensorflow10monitoring7CounterILi0EEC1ERKNS0_9MetricDefILNS0_10MetricKindE1ExLi0EEE
   fun:_ZN10tensorflow10monitoring7CounterILi0EE3NewIJRA28_KcRA85_S4_EEEPS2_DpOT_
   fun:_Z41__static_initialization_and_destruction_0ii
   fun:_GLOBAL__sub_I_metrics.cc
}
{
   <tensorflow_full>
   Memcheck:Leak
   match-leak-kinds: reachable
   fun:_Znwm
   fun:_ZN10tensorflow10monitoring18CollectionRegistry8RegisterEPKNS0_17AbstractMetricDefERKSt8functionIFvNS0_21MetricCollectorGetterEEE
   fun:_ZN10tensorflow10monitoring7CounterILi0EEC1ERKNS0_9MetricDefILNS0_10MetricKindE1ExLi0EEE
   fun:_ZN10tensorflow10monitoring7CounterILi0EE3NewIJRA38_KcRA58_S4_EEEPS2_DpOT_
   fun:_Z41__static_initialization_and_destruction_0ii
   fun:_GLOBAL__sub_I_metrics.cc
}
{
   <tensorflow_full>
   Memcheck:Leak
   match-leak-kinds: reachable
   fun:_Znwm
   fun:_ZN10tensorflow10monitoring18CollectionRegistry8RegisterEPKNS0_17AbstractMetricDefERKSt8functionIFvNS0_21MetricCollectorGetterEEE
   fun:_ZN10tensorflow10monitoring7CounterILi2EEC1ERKNS0_9MetricDefILNS0_10MetricKindE1ExLi2EEE
   fun:_ZN10tensorflow10monitoring7CounterILi2EE3NewIJRA42_KcRA75_S4_RA5_S4_SA_EEEPS2_DpOT_
   fun:_Z41__static_initialization_and_destruction_0ii
   fun:_GLOBAL__sub_I_metrics.cc
}
{
   <tensorflow_full>
   Memcheck:Leak
   match-leak-kinds: reachable
   fun:_Znwm
   fun:_ZN10tensorflow10monitoring18CollectionRegistry8RegisterEPKNS0_17AbstractMetricDefERKSt8functionIFvNS0_21MetricCollectorGetterEEE
   fun:_ZN10tensorflow10monitoring7SamplerILi0EEC1ERKNS0_9MetricDefILNS0_10MetricKindE1ENS_14HistogramProtoELi0EEESt10unique_ptrINS0_7BucketsESt14default_deleteISA_EE
   fun:_ZN10tensorflow10monitoring7SamplerILi0EE3NewERKNS0_9MetricDefILNS0_10MetricKindE1ENS_14HistogramProtoELi0EEESt10unique_ptrINS0_7BucketsESt14default_deleteISA_EE
   fun:_Z41__static_initialization_and_destruction_0ii
   fun:_GLOBAL__sub_I_metrics.cc
}
{
   <tensorflow_full>
   Memcheck:Leak
   match-leak-kinds: reachable
   fun:_Znwm
   fun:_ZN10tensorflow10monitoring18CollectionRegistry8RegisterEPKNS0_17AbstractMetricDefERKSt8functionIFvNS0_21MetricCollectorGetterEEE
   fun:_ZN10tensorflow10monitoring7CounterILi1EEC1ERKNS0_9MetricDefILNS0_10MetricKindE1ExLi1EEE
   fun:_ZN10tensorflow10monitoring7CounterILi1EE3NewIJRA38_KcRA54_S4_RA5_S4_EEEPS2_DpOT_
   fun:_Z41__static_initialization_and_destruction_0ii
   fun:_GLOBAL__sub_I_metrics.cc
}
{
   <tensorflow_full>
   Memcheck:Leak
   match-leak-kinds: reachable
   fun:_Znwm
   fun:_ZN10tensorflow10monitoring18CollectionRegistry8RegisterEPKNS0_17AbstractMetricDefERKSt8functionIFvNS0_21MetricCollectorGetterEEE
   fun:_ZN10tensorflow10monitoring7CounterILi1EEC1ERKNS0_9MetricDefILNS0_10MetricKindE1ExLi1EEE
   fun:_ZN10tensorflow10monitoring7CounterILi1EE3NewIJRA26_KcRA19_S4_RA5_S4_EEEPS2_DpOT_
   fun:_Z41__static_initialization_and_destruction_0ii
   fun:_GLOBAL__sub_I_metrics.cc
}
{
   <tensorflow_full>
   Memcheck:Leak
   match-leak-kinds: reachable
   fun:_Znwm
   fun:_ZN10tensorflow10monitoring18CollectionRegistry8RegisterEPKNS0_17AbstractMetricDefERKSt8functionIFvNS0_21MetricCollectorGetterEEE
   fun:_ZN10tensorflow10monitoring7CounterILi1EEC1ERKNS0_9MetricDefILNS0_10MetricKindE1ExLi1EEE
   fun:_ZN10tensorflow10monitoring7CounterILi1EE3NewIJRA32_KcRA51_S4_RA5_S4_EEEPS2_DpOT_
   fun:_Z41__static_initialization_and_destruction_0ii
   fun:_GLOBAL__sub_I_metrics.cc
}
{
   <tensorflow_full>
   Memcheck:Leak
   match-leak-kinds: reachable
   fun:_Znwm
   fun:_ZN10tensorflow10monitoring18CollectionRegistry8RegisterEPKNS0_17AbstractMetricDefERKSt8functionIFvNS0_21MetricCollectorGetterEEE
   fun:_ZN10tensorflow10monitoring7CounterILi1EEC1ERKNS0_9MetricDefILNS0_10MetricKindE1ExLi1EEE
   fun:_ZN10tensorflow10monitoring7CounterILi1EE3NewIJRA28_KcRA53_S4_RA5_S4_EEEPS2_DpOT_
   fun:_Z41__static_initialization_and_destruction_0ii
   fun:_GLOBAL__sub_I_metrics.cc
}
{
   <tensorflow_full>
   Memcheck:Leak
   match-leak-kinds: reachable
   fun:_Znwm
   fun:_ZN10tensorflow10monitoring18CollectionRegistry8RegisterEPKNS0_17AbstractMetricDefERKSt8functionIFvNS0_21MetricCollectorGetterEEE
   fun:_ZN10tensorflow10monitoring7CounterILi0EEC1ERKNS0_9MetricDefILNS0_10MetricKindE1ExLi0EEE
   fun:_ZN10tensorflow10monitoring7CounterILi0EE3NewIJRA31_KcRA59_S4_EEEPS2_DpOT_
   fun:_Z41__static_initialization_and_destruction_0ii
   fun:_GLOBAL__sub_I_metrics.cc
}
{
   <tensorflow_full>
   Memcheck:Leak
   match-leak-kinds: reachable
   fun:_Znwm
   fun:_ZN10tensorflow10monitoring18CollectionRegistry8RegisterEPKNS0_17AbstractMetricDefERKSt8functionIFvNS0_21MetricCollectorGetterEEE
   fun:_ZN10tensorflow10monitoring7CounterILi1EEC1ERKNS0_9MetricDefILNS0_10MetricKindE1ExLi1EEE
   fun:_ZN10tensorflow10monitoring7CounterILi1EE3NewIJRA26_KcRA17_S4_RA5_S4_EEEPS2_DpOT_
   fun:_Z41__static_initialization_and_destruction_0ii
   fun:_GLOBAL__sub_I_metrics.cc
}
{
   <tensorflow_full>
   Memcheck:Leak
   match-leak-kinds: reachable
   fun:_Znwm
   fun:_ZN10tensorflow10monitoring18CollectionRegistry8RegisterEPKNS0_17AbstractMetricDefERKSt8functionIFvNS0_21MetricCollectorGetterEEE
   fun:_ZN10tensorflow10monitoring7CounterILi1EEC1ERKNS0_9MetricDefILNS0_10MetricKindE1ExLi1EEE
   fun:_ZN10tensorflow10monitoring7CounterILi1EE3NewIJRA29_KcRA20_S4_RA5_S4_EEEPS2_DpOT_
   fun:_Z41__static_initialization_and_destruction_0ii
   fun:_GLOBAL__sub_I_metrics.cc
}
{
   <tensorflow_full>
   Memcheck:Leak
   match-leak-kinds: reachable
   fun:_Znwm
   fun:_ZN10tensorflow10monitoring18CollectionRegistry8RegisterEPKNS0_17AbstractMetricDefERKSt8functionIFvNS0_21MetricCollectorGetterEEE
   fun:_ZN10tensorflow10monitoring7CounterILi1EEC1ERKNS0_9MetricDefILNS0_10MetricKindE1ExLi1EEE
   fun:_ZN10tensorflow10monitoring7CounterILi1EE3NewIJRA30_KcRA21_S4_RA5_S4_EEEPS2_DpOT_
   fun:_Z41__static_initialization_and_destruction_0ii
   fun:_GLOBAL__sub_I_metrics.cc
}
{
   <tensorflow_full>
   Memcheck:Leak
   match-leak-kinds: reachable
   fun:_Znwm
   fun:_ZN10tensorflow10monitoring18CollectionRegistry8RegisterEPKNS0_17AbstractMetricDefERKSt8functionIFvNS0_21MetricCollectorGetterEEE
   fun:_ZN10tensorflow10monitoring7CounterILi0EEC1ERKNS0_9MetricDefILNS0_10MetricKindE1ExLi0EEE
   fun:_ZN10tensorflow10monitoring7CounterILi0EE3NewIJRA31_KcRA67_S4_EEEPS2_DpOT_
   fun:_Z41__static_initialization_and_destruction_0ii
   fun:_GLOBAL__sub_I_metrics.cc
}
{
   <tensorflow_full>
   Memcheck:Leak
   match-leak-kinds: reachable
   fun:_Znwm
   fun:_ZN10tensorflow10monitoring18CollectionRegistry8RegisterEPKNS0_17AbstractMetricDefERKSt8functionIFvNS0_21MetricCollectorGetterEEE
   fun:_ZN10tensorflow10monitoring7CounterILi0EEC1ERKNS0_9MetricDefILNS0_10MetricKindE1ExLi0EEE
   fun:_ZN10tensorflow10monitoring7CounterILi0EE3NewIJRA32_KcRA68_S4_EEEPS2_DpOT_
   fun:_Z41__static_initialization_and_destruction_0ii
   fun:_GLOBAL__sub_I_metrics.cc
}
{
   <tensorflow_full>
   Memcheck:Leak
   match-leak-kinds: reachable
   fun:_Znwm
   fun:_ZN10tensorflow10monitoring18CollectionRegistry8RegisterEPKNS0_17AbstractMetricDefERKSt8functionIFvNS0_21MetricCollectorGetterEEE
   fun:_ZN10tensorflow10monitoring7CounterILi0EEC1ERKNS0_9MetricDefILNS0_10MetricKindE1ExLi0EEE
   fun:_ZN10tensorflow10monitoring7CounterILi0EE3NewIJRA35_KcRA281_S4_EEEPS2_DpOT_
   fun:_Z41__static_initialization_and_destruction_0ii
   fun:_GLOBAL__sub_I_metrics.cc
}
{
   <tensorflow_full>
   Memcheck:Leak
   match-leak-kinds: reachable
   fun:_Znwm
   fun:_ZN10tensorflow10monitoring18CollectionRegistry8RegisterEPKNS0_17AbstractMetricDefERKSt8functionIFvNS0_21MetricCollectorGetterEEE
   fun:_ZN10tensorflow10monitoring7CounterILi0EEC1ERKNS0_9MetricDefILNS0_10MetricKindE1ExLi0EEE
   fun:_ZN10tensorflow10monitoring7CounterILi0EE3NewIJRA40_KcRA302_S4_EEEPS2_DpOT_
   fun:_Z41__static_initialization_and_destruction_0ii
   fun:_GLOBAL__sub_I_metrics.cc
}
{
   <tensorflow_full>
   Memcheck:Leak
   match-leak-kinds: reachable
   fun:_Znwm
   fun:_ZN10tensorflow10monitoring18CollectionRegistry8RegisterEPKNS0_17AbstractMetricDefERKSt8functionIFvNS0_21MetricCollectorGetterEEE
   fun:_ZN10tensorflow10monitoring7CounterILi0EEC1ERKNS0_9MetricDefILNS0_10MetricKindE1ExLi0EEE
   fun:_ZN10tensorflow10monitoring7CounterILi0EE3NewIJRA34_KcRA91_S4_EEEPS2_DpOT_
   fun:_Z41__static_initialization_and_destruction_0ii
   fun:_GLOBAL__sub_I_metrics.cc
}
{
   <tensorflow_full>
   Memcheck:Leak
   match-leak-kinds: reachable
   fun:_Znwm
   fun:_ZN10tensorflow10monitoring18CollectionRegistry8RegisterEPKNS0_17AbstractMetricDefERKSt8functionIFvNS0_21MetricCollectorGetterEEE
   fun:_ZN10tensorflow10monitoring7CounterILi0EEC1ERKNS0_9MetricDefILNS0_10MetricKindE1ExLi0EEE
   fun:_ZN10tensorflow10monitoring7CounterILi0EE3NewIJRA44_KcRA62_S4_EEEPS2_DpOT_
   fun:_Z41__static_initialization_and_destruction_0ii
   fun:_GLOBAL__sub_I_metrics.cc
}
{
   <tensorflow_full>
   Memcheck:Leak
   match-leak-kinds: reachable
   fun:_Znwm
   fun:_ZN10tensorflow10monitoring18CollectionRegistry8RegisterEPKNS0_17AbstractMetricDefERKSt8functionIFvNS0_21MetricCollectorGetterEEE
   fun:_ZN10tensorflow10monitoring7CounterILi0EEC1ERKNS0_9MetricDefILNS0_10MetricKindE1ExLi0EEE
   fun:_ZN10tensorflow10monitoring7CounterILi0EE3NewIJRA38_KcRA67_S4_EEEPS2_DpOT_
   fun:_Z41__static_initialization_and_destruction_0ii
   fun:_GLOBAL__sub_I_metrics.cc
}
{
   <tensorflow_full>
   Memcheck:Leak
   match-leak-kinds: reachable
   fun:_Znwm
   fun:_ZN9__gnu_cxx13new_allocatorIPN6google8protobuf7MessageEE8allocateEmPKv
   fun:_ZNSt16allocator_traitsISaIPN6google8protobuf7MessageEEE8allocateERS4_m
   fun:_ZNSt12_Vector_baseIPN6google8protobuf7MessageESaIS3_EE11_M_allocateEm
   fun:_ZNSt6vectorIPN6google8protobuf7MessageESaIS3_EE17_M_realloc_insertIJS3_EEEvN9__gnu_cxx17__normal_iteratorIPS3_S5_EEDpOT_
   fun:_ZNSt6vectorIPN6google8protobuf7MessageESaIS3_EE12emplace_backIJS3_EEEvDpOT_
   fun:_ZNSt6vectorIPN6google8protobuf7MessageESaIS3_EE9push_backEOS3_
   fun:_ZN6google8protobuf14DescriptorPool6Tables15AllocateMessageINS0_11FileOptionsEEEPT_S6_
   fun:_ZN6google8protobuf17DescriptorBuilder19AllocateOptionsImplINS0_14FileDescriptorEEEvRKNSt7__cxx1112basic_stringIcSt11char_traitsIcESaIcEEESB_RKNT_11OptionsTypeEPSC_RKSt6vectorIiSaIiEE
   fun:_ZN6google8protobuf17DescriptorBuilder15AllocateOptionsERKNS0_11FileOptionsEPNS0_14FileDescriptorE
   fun:_ZN6google8protobuf17DescriptorBuilder13BuildFileImplERKNS0_19FileDescriptorProtoE
   fun:_ZN6google8protobuf17DescriptorBuilder9BuildFileERKNS0_19FileDescriptorProtoE
}
{
   <tensorflow_full>
   Memcheck:Leak
   match-leak-kinds: reachable
   fun:_Znwm
   fun:_ZN9__gnu_cxx13new_allocatorIPSt9once_flagE8allocateEmPKv
   fun:_ZNSt16allocator_traitsISaIPSt9once_flagEE8allocateERS2_m
   fun:_ZNSt12_Vector_baseIPSt9once_flagSaIS1_EE11_M_allocateEm
   fun:_ZNSt6vectorIPSt9once_flagSaIS1_EE17_M_realloc_insertIJRKS1_EEEvN9__gnu_cxx17__normal_iteratorIPS1_S3_EEDpOT_
   fun:_ZNSt6vectorIPSt9once_flagSaIS1_EE9push_backERKS1_
   fun:_ZN6google8protobuf14DescriptorPool6Tables19AllocateOnceDynamicEv
   fun:_ZN6google8protobuf17DescriptorBuilder14CrossLinkFieldEPNS0_15FieldDescriptorERKNS0_20FieldDescriptorProtoE
   fun:_ZN6google8protobuf17DescriptorBuilder16CrossLinkMessageEPNS0_10DescriptorERKNS0_15DescriptorProtoE
   fun:_ZN6google8protobuf17DescriptorBuilder16CrossLinkMessageEPNS0_10DescriptorERKNS0_15DescriptorProtoE
   fun:_ZN6google8protobuf17DescriptorBuilder13CrossLinkFileEPNS0_14FileDescriptorERKNS0_19FileDescriptorProtoE
   fun:_ZN6google8protobuf17DescriptorBuilder13BuildFileImplERKNS0_19FileDescriptorProtoE
}
{
   <tensorflow_full>
   Memcheck:Leak
   match-leak-kinds: reachable
   fun:_Znwm
   fun:_ZN9__gnu_cxx13new_allocatorISt4pairIPKN6google8protobuf8MetadataES6_EE8allocateEmPKv
   fun:_ZNSt16allocator_traitsISaISt4pairIPKN6google8protobuf8MetadataES5_EEE8allocateERS7_m
   fun:_ZNSt12_Vector_baseISt4pairIPKN6google8protobuf8MetadataES5_ESaIS6_EE11_M_allocateEm
   fun:_ZNSt6vectorISt4pairIPKN6google8protobuf8MetadataES5_ESaIS6_EE17_M_realloc_insertIJS6_EEEvN9__gnu_cxx17__normal_iteratorIPS6_S8_EEDpOT_
   fun:_ZNSt6vectorISt4pairIPKN6google8protobuf8MetadataES5_ESaIS6_EE12emplace_backIJS6_EEEvDpOT_
   fun:_ZNSt6vectorISt4pairIPKN6google8protobuf8MetadataES5_ESaIS6_EE9push_backEOS6_
   fun:_ZN6google8protobuf12_GLOBAL__N_113MetadataOwner8AddArrayEPKNS0_8MetadataES5_
   fun:_ZN6google8protobuf12_GLOBAL__N_121AssignDescriptorsImplEPKNS0_8internal15DescriptorTableE
   fun:_ZSt13__invoke_implIvRFvPKN6google8protobuf8internal15DescriptorTableEEJRS5_EET_St14__invoke_otherOT0_DpOT1_
   fun:_ZSt8__invokeIRFvPKN6google8protobuf8internal15DescriptorTableEEJRS5_EENSt15__invoke_resultIT_JDpT0_EE4typeEOSA_DpOSB_
   fun:_ZZSt9call_onceIRFvPKN6google8protobuf8internal15DescriptorTableEEJRS5_EEvRSt9once_flagOT_DpOT0_ENKUlvE_clEv
}
{
   <tensorflow_full>
   Memcheck:Leak
   match-leak-kinds: possible
   fun:_Znwm
   fun:_ZN10tensorflow12_GLOBAL__N_18PosixEnv11StartThreadERKNS_13ThreadOptionsERKNSt7__cxx1112basic_stringIcSt11char_traitsIcESaIcEEESt8functionIFvvEE
   fun:_ZN10tensorflow6thread16EigenEnvironment12CreateThreadESt8functionIFvvEE
   fun:_ZN5Eigen15ThreadPoolTemplIN10tensorflow6thread16EigenEnvironmentEEC1EibS3_
   fun:_ZN10tensorflow6thread10ThreadPoolC1EPNS_3EnvERKNS_13ThreadOptionsERKNSt7__cxx1112basic_stringIcSt11char_traitsIcESaIcEEEibPN5Eigen9AllocatorE
   fun:_ZN10tensorflow6thread10ThreadPoolC1EPNS_3EnvERKNSt7__cxx1112basic_stringIcSt11char_traitsIcESaIcEEEi
   fun:_ZN10tensorflow12_GLOBAL__N_121GraphRunnerThreadPoolEv
   fun:_ZN10tensorflow12_GLOBAL__N_123SingleThreadedCpuDeviceC1EPNS_3EnvE
   fun:_ZN10tensorflow26NewSingleThreadedCpuDeviceEPNS_3EnvE
   fun:_ZN10tensorflow11GraphRunnerC1EPNS_3EnvE
   fun:_ZN10tensorflow12ShapeRefinerC1EiPKNS_19OpRegistryInterfaceE
   fun:_ZN10tensorflow22ConvertGraphDefToGraphERKNS_23GraphConstructorOptionsERKNS_8GraphDefEPNS_5GraphE
}
{
   <tensorflow_full>
   Memcheck:Leak
   match-leak-kinds: reachable
   fun:_Znwm
   fun:_ZNSt7__cxx1112basic_stringIcSt11char_traitsIcESaIcEE12_M_constructIPcEEvT_S7_St20forward_iterator_tag
   fun:_ZNSt4pairIKNSt7__cxx1112basic_stringIcSt11char_traitsIcESaIcEEESt8functionIFN10tensorflow6StatusERKNS8_9AttrSliceEPNS8_11FunctionDefEEEEC1EOSH_
   fun:_ZN9__gnu_cxx13new_allocatorINSt8__detail10_Hash_nodeISt4pairIKNSt7__cxx1112basic_stringIcSt11char_traitsIcESaIcEEESt8functionIFN10tensorflow6StatusERKNSC_9AttrSliceEPNSC_11FunctionDefEEEELb1EEEE9constructISL_JSL_EEEvPT_DpOT0_
   fun:_ZNSt16allocator_traitsISaINSt8__detail10_Hash_nodeISt4pairIKNSt7__cxx1112basic_stringIcSt11char_traitsIcESaIcEEESt8functionIFN10tensorflow6StatusERKNSB_9AttrSliceEPNSB_11FunctionDefEEEELb1EEEEE9constructISK_JSK_EEEvRSM_PT_DpOT0_
   fun:_ZNSt8__detail16_Hashtable_allocISaINS_10_Hash_nodeISt4pairIKNSt7__cxx1112basic_stringIcSt11char_traitsIcESaIcEEESt8functionIFN10tensorflow6StatusERKNSB_9AttrSliceEPNSB_11FunctionDefEEEELb1EEEEE16_M_allocate_nodeIJSK_EEEPSL_DpOT_
   fun:_ZNSt10_HashtableINSt7__cxx1112basic_stringIcSt11char_traitsIcESaIcEEESt4pairIKS5_St8functionIFN10tensorflow6StatusERKNS9_9AttrSliceEPNS9_11FunctionDefEEEESaISI_ENSt8__detail10_Select1stESt8equal_toIS5_ESt4hashIS5_ENSK_18_Mod_range_hashingENSK_20_Default_ranged_hashENSK_20_Prime_rehash_policyENSK_17_Hashtable_traitsILb1ELb0ELb1EEEE10_M_emplaceIJSI_EEES6_INSK_14_Node_iteratorISI_Lb0ELb1EEEbESt17integral_constantIbLb1EEDpOT_
   fun:_ZNSt8__detail7_InsertINSt7__cxx1112basic_stringIcSt11char_traitsIcESaIcEEESt4pairIKS6_St8functionIFN10tensorflow6StatusERKNSA_9AttrSliceEPNSA_11FunctionDefEEEESaISJ_ENS_10_Select1stESt8equal_toIS6_ESt4hashIS6_ENS_18_Mod_range_hashingENS_20_Default_ranged_hashENS_20_Prime_rehash_policyENS_17_Hashtable_traitsILb1ELb0ELb1EEELb0EE6insertISJ_vEES7_INS_14_Node_iteratorISJ_Lb0ELb1EEEbEOT_
   fun:_ZNSt13unordered_mapINSt7__cxx1112basic_stringIcSt11char_traitsIcESaIcEEESt8functionIFN10tensorflow6StatusERKNS7_9AttrSliceEPNS7_11FunctionDefEEESt4hashIS5_ESt8equal_toIS5_ESaISt4pairIKS5_SF_EEE6insertEOSM_
   fun:_ZN10tensorflow8gradient10RegisterOpERKNSt7__cxx1112basic_stringIcSt11char_traitsIcESaIcEEESt8functionIFNS_6StatusERKNS_9AttrSliceEPNS_11FunctionDefEEE
   fun:_Z41__static_initialization_and_destruction_0ii
   fun:_GLOBAL__sub_I_array_grad.cc
}
{
   <tensorflow_full>
   Memcheck:Leak
   match-leak-kinds: reachable
   fun:_Znwm
   fun:_ZNSt7__cxx1112basic_stringIcSt11char_traitsIcESaIcEE12_M_constructIPcEEvT_S7_St20forward_iterator_tag
   fun:_ZN10tensorflow10monitoring17AbstractMetricDefC1ERKS1_
   fun:_ZN10tensorflow10monitoring9MetricDefILNS0_10MetricKindE1ExLi1EEC1ERKS3_
   fun:_ZN10tensorflow10monitoring7CounterILi1EEC1ERKNS0_9MetricDefILNS0_10MetricKindE1ExLi1EEE
   fun:_ZN10tensorflow10monitoring7CounterILi1EE3NewIJRA26_KcRA17_S4_RA5_S4_EEEPS2_DpOT_
   fun:_Z41__static_initialization_and_destruction_0ii
   fun:_GLOBAL__sub_I_metrics.cc
}
{
   <tensorflow_full>
   Memcheck:Leak
   match-leak-kinds: reachable
   fun:_Znwm
   fun:_ZNSt7__cxx1112basic_stringIcSt11char_traitsIcESaIcEE12_M_constructIPcEEvT_S7_St20forward_iterator_tag
   fun:_ZN10tensorflow6thread16EigenEnvironmentC1ERKS1_
   fun:_ZN5Eigen15ThreadPoolTemplIN10tensorflow6thread16EigenEnvironmentEEC1EibS3_
   fun:_ZN10tensorflow6thread10ThreadPoolC1EPNS_3EnvERKNS_13ThreadOptionsERKNSt7__cxx1112basic_stringIcSt11char_traitsIcESaIcEEEibPN5Eigen9AllocatorE
   fun:_ZN10tensorflow11LocalDevice19EigenThreadPoolInfoC1ERKNS_14SessionOptionsEiPNS_9AllocatorE
   fun:_ZN10tensorflow11LocalDeviceC1ERKNS_14SessionOptionsERKNS_16DeviceAttributesE
   fun:_ZN10tensorflow16ThreadPoolDeviceC1ERKNS_14SessionOptionsERKNSt7__cxx1112basic_stringIcSt11char_traitsIcESaIcEEENS_3gtl7IntTypeINS_10Bytes_tag_ExEERKNS_14DeviceLocalityEPNS_9AllocatorE
   fun:_ZSt11make_uniqueIN10tensorflow16ThreadPoolDeviceEJRKNS0_14SessionOptionsERNSt7__cxx1112basic_stringIcSt11char_traitsIcESaIcEEENS0_3gtl7IntTypeINS0_10Bytes_tag_ExEENS0_14DeviceLocalityEPNS0_9AllocatorEEENSt9_MakeUniqIT_E15__single_objectEDpOT0_
   fun:_ZN10tensorflow23ThreadPoolDeviceFactory13CreateDevicesERKNS_14SessionOptionsERKNSt7__cxx1112basic_stringIcSt11char_traitsIcESaIcEEEPSt6vectorISt10unique_ptrINS_6DeviceESt14default_deleteISE_EESaISH_EE
   fun:_ZN10tensorflow13DeviceFactory10AddDevicesERKNS_14SessionOptionsERKNSt7__cxx1112basic_stringIcSt11char_traitsIcESaIcEEEPSt6vectorISt10unique_ptrINS_6DeviceESt14default_deleteISE_EESaISH_EE
   fun:_ZN10tensorflow20DirectSessionFactory10NewSessionERKNS_14SessionOptionsEPPNS_7SessionE
}
{
   <tensorflow_full>
   Memcheck:Leak
   match-leak-kinds: reachable
   fun:_Znwm
   fun:_ZNSt7__cxx1112basic_stringIcSt11char_traitsIcESaIcEE12_M_constructIPcEEvT_S7_St20forward_iterator_tag
   fun:_ZNSt4pairIKNSt7__cxx1112basic_stringIcSt11char_traitsIcESaIcEEESt8functionIFN10tensorflow6StatusERKNS8_9AttrSliceEPNS8_11FunctionDefEEEEC1EOSH_
   fun:_ZN9__gnu_cxx13new_allocatorINSt8__detail10_Hash_nodeISt4pairIKNSt7__cxx1112basic_stringIcSt11char_traitsIcESaIcEEESt8functionIFN10tensorflow6StatusERKNSC_9AttrSliceEPNSC_11FunctionDefEEEELb1EEEE9constructISL_JSL_EEEvPT_DpOT0_
   fun:_ZNSt16allocator_traitsISaINSt8__detail10_Hash_nodeISt4pairIKNSt7__cxx1112basic_stringIcSt11char_traitsIcESaIcEEESt8functionIFN10tensorflow6StatusERKNSB_9AttrSliceEPNSB_11FunctionDefEEEELb1EEEEE9constructISK_JSK_EEEvRSM_PT_DpOT0_
   fun:_ZNSt8__detail16_Hashtable_allocISaINS_10_Hash_nodeISt4pairIKNSt7__cxx1112basic_stringIcSt11char_traitsIcESaIcEEESt8functionIFN10tensorflow6StatusERKNSB_9AttrSliceEPNSB_11FunctionDefEEEELb1EEEEE16_M_allocate_nodeIJSK_EEEPSL_DpOT_
   fun:_ZNSt10_HashtableINSt7__cxx1112basic_stringIcSt11char_traitsIcESaIcEEESt4pairIKS5_St8functionIFN10tensorflow6StatusERKNS9_9AttrSliceEPNS9_11FunctionDefEEEESaISI_ENSt8__detail10_Select1stESt8equal_toIS5_ESt4hashIS5_ENSK_18_Mod_range_hashingENSK_20_Default_ranged_hashENSK_20_Prime_rehash_policyENSK_17_Hashtable_traitsILb1ELb0ELb1EEEE10_M_emplaceIJSI_EEES6_INSK_14_Node_iteratorISI_Lb0ELb1EEEbESt17integral_constantIbLb1EEDpOT_
   fun:_ZNSt8__detail7_InsertINSt7__cxx1112basic_stringIcSt11char_traitsIcESaIcEEESt4pairIKS6_St8functionIFN10tensorflow6StatusERKNSA_9AttrSliceEPNSA_11FunctionDefEEEESaISJ_ENS_10_Select1stESt8equal_toIS6_ESt4hashIS6_ENS_18_Mod_range_hashingENS_20_Default_ranged_hashENS_20_Prime_rehash_policyENS_17_Hashtable_traitsILb1ELb0ELb1EEELb0EE6insertISJ_vEES7_INS_14_Node_iteratorISJ_Lb0ELb1EEEbEOT_
   fun:_ZNSt13unordered_mapINSt7__cxx1112basic_stringIcSt11char_traitsIcESaIcEEESt8functionIFN10tensorflow6StatusERKNS7_9AttrSliceEPNS7_11FunctionDefEEESt4hashIS5_ESt8equal_toIS5_ESaISt4pairIKS5_SF_EEE6insertEOSM_
   fun:_ZN10tensorflow8gradient10RegisterOpERKNSt7__cxx1112basic_stringIcSt11char_traitsIcESaIcEEESt8functionIFNS_6StatusERKNS_9AttrSliceEPNS_11FunctionDefEEE
   fun:_Z41__static_initialization_and_destruction_0ii
   fun:_GLOBAL__sub_I_math_grad.cc
}
{
   <tensorflow_full>
   Memcheck:Leak
   match-leak-kinds: reachable
   fun:_Znwm
   fun:_ZNSt7__cxx1112basic_stringIcSt11char_traitsIcESaIcEE12_M_constructIPcEEvT_S7_St20forward_iterator_tag
   fun:_ZN10tensorflow3gtl8internal7FlatRepINSt7__cxx1112basic_stringIcSt11char_traitsIcESaIcEEENS0_7FlatSetIS8_NS_4hashIS8_vEESt8equal_toIS8_EE6BucketESB_SD_E12FindOrInsertIRKS8_EENSG_12SearchResultEOT_
   fun:_ZN10tensorflow3gtl7FlatSetINSt7__cxx1112basic_stringIcSt11char_traitsIcESaIcEEENS_4hashIS7_vEESt8equal_toIS7_EE6InsertIRKS7_EESt4pairINSC_14const_iteratorEbEOT_
   fun:_ZN10tensorflow3gtl7FlatSetINSt7__cxx1112basic_stringIcSt11char_traitsIcESaIcEEENS_4hashIS7_vEESt8equal_toIS7_EE6insertERKS7_
   fun:_ZN10tensorflow3gtl7FlatSetINSt7__cxx1112basic_stringIcSt11char_traitsIcESaIcEEENS_4hashIS7_vEESt8equal_toIS7_EE6insertIPKS7_EEvT_SG_
   fun:_ZN10tensorflow3gtl7FlatSetINSt7__cxx1112basic_stringIcSt11char_traitsIcESaIcEEENS_4hashIS7_vEESt8equal_toIS7_EEC1IPKS7_EET_SG_mRKS9_RKSB_
   fun:_ZN10tensorflow3gtl7FlatSetINSt7__cxx1112basic_stringIcSt11char_traitsIcESaIcEEENS_4hashIS7_vEESt8equal_toIS7_EEC1ESt16initializer_listIS7_EmRKS9_RKSB_
   fun:_ZN10tensorflow8grappler17IsValuePreservingERKNS_7NodeDefE
   fun:_ZNK10tensorflow8grappler12_GLOBAL__N_133ReorderCastLikeAndValuePreserving11IsSupportedEPKNS_7NodeDefE
   fun:_ZN10tensorflow8grappler27GraphOptimizerStagePipelineINSt7__cxx1112basic_stringIcSt11char_traitsIcESaIcEEEE20PassThroughAllStagesEPNS_7NodeDefEPS7_
   fun:_ZN10tensorflow8grappler19ArithmeticOptimizer21SimplifyArithmeticOpsEb
}
{
   <tensorflow_full>
   Memcheck:Leak
   match-leak-kinds: reachable
   fun:_Znwm
   fun:_ZNSt7__cxx1112basic_stringIcSt11char_traitsIcESaIcEE12_M_constructIPcEEvT_S7_St20forward_iterator_tag
   fun:_ZZN10tensorflow35variant_op_registry_fn_registration34UnaryVariantDeviceCopyRegistrationINS_6TensorEEC4ENS_26VariantDeviceCopyDirectionERKNS_9TypeIndexERKSt8functionIFNS_6StatusERKS2_PS2_S8_IFS9_SB_SC_EEEEENUlRKNS_7VariantEPSJ_SE_E_C1ERKSN_
   fun:_ZNSt14_Function_base13_Base_managerIZN10tensorflow35variant_op_registry_fn_registration34UnaryVariantDeviceCopyRegistrationINS1_6TensorEEC4ENS1_26VariantDeviceCopyDirectionERKNS1_9TypeIndexERKSt8functionIFNS1_6StatusERKS4_PS4_SA_IFSB_SD_SE_EEEEEUlRKNS1_7VariantEPSL_SG_E_E8_M_cloneERSt9_Any_dataRKSR_St17integral_constantIbLb0EE
   fun:_ZNSt14_Function_base13_Base_managerIZN10tensorflow35variant_op_registry_fn_registration34UnaryVariantDeviceCopyRegistrationINS1_6TensorEEC4ENS1_26VariantDeviceCopyDirectionERKNS1_9TypeIndexERKSt8functionIFNS1_6StatusERKS4_PS4_SA_IFSB_SD_SE_EEEEEUlRKNS1_7VariantEPSL_SG_E_E10_M_managerERSt9_Any_dataRKSR_St18_Manager_operation
   fun:_ZNSt8functionIFN10tensorflow6StatusERKNS0_7VariantEPS2_S_IFS1_RKNS0_6TensorEPS6_EEEEC1ERKSD_
   fun:_ZN10tensorflow3gtl7FlatMapISt4pairINS_26VariantDeviceCopyDirectionENS_9TypeIndexEESt8functionIFNS_6StatusERKNS_7VariantEPS8_S6_IFS7_RKNS_6TensorEPSC_EEEENS_22UnaryVariantOpRegistry8PairHashESt8equal_toIS5_EE6Bucket7InitValIRKSJ_EEvjOT_
   fun:_ZN10tensorflow3gtl7FlatMapISt4pairINS_26VariantDeviceCopyDirectionENS_9TypeIndexEESt8functionIFNS_6StatusERKNS_7VariantEPS8_S6_IFS7_RKNS_6TensorEPSC_EEEENS_22UnaryVariantOpRegistry8PairHashESt8equal_toIS5_EE6InsertIRKS5_RKSJ_EES2_INSO_8iteratorEbEOT_OT0_
   fun:_ZN10tensorflow3gtl7FlatMapISt4pairINS_26VariantDeviceCopyDirectionENS_9TypeIndexEESt8functionIFNS_6StatusERKNS_7VariantEPS8_S6_IFS7_RKNS_6TensorEPSC_EEEENS_22UnaryVariantOpRegistry8PairHashESt8equal_toIS5_EE6insertIS2_IS5_SJ_EEES2_INSO_8iteratorEbERKT_
   fun:_ZN10tensorflow22UnaryVariantOpRegistry20RegisterDeviceCopyFnENS_26VariantDeviceCopyDirectionERKNS_9TypeIndexERKSt8functionIFNS_6StatusERKNS_7VariantEPS7_S5_IFS6_RKNS_6TensorEPSB_EEEE
   fun:_ZN10tensorflow35variant_op_registry_fn_registration34UnaryVariantDeviceCopyRegistrationINS_6TensorEEC1ENS_26VariantDeviceCopyDirectionERKNS_9TypeIndexERKSt8functionIFNS_6StatusERKS2_PS2_S8_IFS9_SB_SC_EEEE
   fun:_Z41__static_initialization_and_destruction_0ii
}
{
   <tensorflow_full>
   Memcheck:Leak
   match-leak-kinds: reachable
   fun:_Znwm
   fun:_ZNSt7__cxx1112basic_stringIcSt11char_traitsIcESaIcEE12_M_constructIPcEEvT_S7_St20forward_iterator_tag
   fun:_ZN10tensorflow10monitoring17AbstractMetricDefC1ERKS1_
   fun:_ZN10tensorflow10monitoring9MetricDefILNS0_10MetricKindE1ExLi1EEC1ERKS3_
   fun:_ZN10tensorflow10monitoring7CounterILi1EEC1ERKNS0_9MetricDefILNS0_10MetricKindE1ExLi1EEE
   fun:_ZN10tensorflow10monitoring7CounterILi1EE3NewIJRA26_KcRA19_S4_RA5_S4_EEEPS2_DpOT_
   fun:_Z41__static_initialization_and_destruction_0ii
   fun:_GLOBAL__sub_I_metrics.cc
}
{
   <tensorflow_full>
   Memcheck:Leak
   match-leak-kinds: reachable
   fun:_Znwm
   fun:_ZNSt7__cxx1112basic_stringIcSt11char_traitsIcESaIcEE12_M_constructIPcEEvT_S7_St20forward_iterator_tag
   fun:_ZN9__gnu_cxx13new_allocatorINSt8__detail10_Hash_nodeINSt7__cxx1112basic_stringIcSt11char_traitsIcESaIcEEELb1EEEE9constructIS8_JRKS8_EEEvPT_DpOT0_
   fun:_ZNSt16allocator_traitsISaINSt8__detail10_Hash_nodeINSt7__cxx1112basic_stringIcSt11char_traitsIcESaIcEEELb1EEEEE9constructIS7_JRKS7_EEEvRS9_PT_DpOT0_
   fun:_ZNSt8__detail16_Hashtable_allocISaINS_10_Hash_nodeINSt7__cxx1112basic_stringIcSt11char_traitsIcESaIcEEELb1EEEEE16_M_allocate_nodeIJRKS7_EEEPS8_DpOT_
   fun:_ZNKSt8__detail10_AllocNodeISaINS_10_Hash_nodeINSt7__cxx1112basic_stringIcSt11char_traitsIcESaIcEEELb1EEEEEclIRKS7_EEPS8_OT_
   fun:_ZNSt10_HashtableINSt7__cxx1112basic_stringIcSt11char_traitsIcESaIcEEES5_SaIS5_ENSt8__detail9_IdentityESt8equal_toIS5_ESt4hashIS5_ENS7_18_Mod_range_hashingENS7_20_Default_ranged_hashENS7_20_Prime_rehash_policyENS7_17_Hashtable_traitsILb1ELb1ELb1EEEE9_M_insertIRKS5_NS7_10_AllocNodeISaINS7_10_Hash_nodeIS5_Lb1EEEEEEEESt4pairINS7_14_Node_iteratorIS5_Lb1ELb1EEEbEOT_RKT0_St17integral_constantIbLb1EEm
   fun:_ZNSt8__detail12_Insert_baseINSt7__cxx1112basic_stringIcSt11char_traitsIcESaIcEEES6_SaIS6_ENS_9_IdentityESt8equal_toIS6_ESt4hashIS6_ENS_18_Mod_range_hashingENS_20_Default_ranged_hashENS_20_Prime_rehash_policyENS_17_Hashtable_traitsILb1ELb1ELb1EEEE6insertERKS6_
   fun:_ZNSt13unordered_setINSt7__cxx1112basic_stringIcSt11char_traitsIcESaIcEEESt4hashIS5_ESt8equal_toIS5_ESaIS5_EE6insertERKS5_
   fun:_ZN10tensorflow22UnaryVariantOpRegistry24GetPersistentStringPieceERKNSt7__cxx1112basic_stringIcSt11char_traitsIcESaIcEEE
   fun:_ZN10tensorflow22UnaryVariantOpRegistry16RegisterDecodeFnERKNSt7__cxx1112basic_stringIcSt11char_traitsIcESaIcEEERKSt8functionIFbPNS_7VariantEEE
   fun:_ZN10tensorflow35variant_op_registry_fn_registration30UnaryVariantDecodeRegistrationINS_6TensorEEC1ERKNSt7__cxx1112basic_stringIcSt11char_traitsIcESaIcEEE
}
{
   <tensorflow_full>
   Memcheck:Leak
   match-leak-kinds: reachable
   fun:_Znwm
   fun:_ZNSt7__cxx1112basic_stringIcSt11char_traitsIcESaIcEE12_M_constructIPcEEvT_S7_St20forward_iterator_tag
   fun:_ZZN10tensorflow35variant_op_registry_fn_registration30UnaryVariantDecodeRegistrationINS_6TensorEEC4ERKNSt7__cxx1112basic_stringIcSt11char_traitsIcESaIcEEEENUlPNS_7VariantEE_C1ERKSE_
   fun:_ZNSt14_Function_base13_Base_managerIZN10tensorflow35variant_op_registry_fn_registration30UnaryVariantDecodeRegistrationINS1_6TensorEEC4ERKNSt7__cxx1112basic_stringIcSt11char_traitsIcESaIcEEEEUlPNS1_7VariantEE_E8_M_cloneERSt9_Any_dataRKSI_St17integral_constantIbLb0EE
   fun:_ZNSt14_Function_base13_Base_managerIZN10tensorflow35variant_op_registry_fn_registration30UnaryVariantDecodeRegistrationINS1_6TensorEEC4ERKNSt7__cxx1112basic_stringIcSt11char_traitsIcESaIcEEEEUlPNS1_7VariantEE_E10_M_managerERSt9_Any_dataRKSI_St18_Manager_operation
   fun:_ZNSt8functionIFbPN10tensorflow7VariantEEEC1ERKS4_
   fun:_ZN10tensorflow3gtl7FlatMapIN4absl14lts_2020_02_2511string_viewESt8functionIFbPNS_7VariantEEENS_4hashIS4_vEESt8equal_toIS4_EE6Bucket7InitValIRKS9_EEvjOT_
   fun:_ZN10tensorflow3gtl7FlatMapIN4absl14lts_2020_02_2511string_viewESt8functionIFbPNS_7VariantEEENS_4hashIS4_vEESt8equal_toIS4_EE6InsertIRKS4_RKS9_EESt4pairINSE_8iteratorEbEOT_OT0_
   fun:_ZN10tensorflow3gtl7FlatMapIN4absl14lts_2020_02_2511string_viewESt8functionIFbPNS_7VariantEEENS_4hashIS4_vEESt8equal_toIS4_EE6insertISt4pairIS4_S9_EEESG_INSE_8iteratorEbERKT_
   fun:_ZN10tensorflow22UnaryVariantOpRegistry16RegisterDecodeFnERKNSt7__cxx1112basic_stringIcSt11char_traitsIcESaIcEEERKSt8functionIFbPNS_7VariantEEE
   fun:_ZN10tensorflow35variant_op_registry_fn_registration30UnaryVariantDecodeRegistrationINS_6TensorEEC1ERKNSt7__cxx1112basic_stringIcSt11char_traitsIcESaIcEEE
   fun:_Z41__static_initialization_and_destruction_0ii
}
{
   <tensorflow_full>
   Memcheck:Leak
   match-leak-kinds: reachable
   fun:_Znwm
   fun:_ZNSt7__cxx1112basic_stringIcSt11char_traitsIcESaIcEE12_M_constructIPcEEvT_S7_St20forward_iterator_tag
   fun:_ZN10tensorflow10monitoring17AbstractMetricDefC1ERKS1_
   fun:_ZN10tensorflow10monitoring9MetricDefILNS0_10MetricKindE1ExLi1EEC1ERKS3_
   fun:_ZN10tensorflow10monitoring7CounterILi1EEC1ERKNS0_9MetricDefILNS0_10MetricKindE1ExLi1EEE
   fun:_ZN10tensorflow10monitoring7CounterILi1EE3NewIJRA29_KcRA20_S4_RA5_S4_EEEPS2_DpOT_
   fun:_Z41__static_initialization_and_destruction_0ii
   fun:_GLOBAL__sub_I_metrics.cc
}
{
   <tensorflow_full>
   Memcheck:Leak
   match-leak-kinds: reachable
   fun:_Znwm
   fun:_ZNSt7__cxx1112basic_stringIcSt11char_traitsIcESaIcEE12_M_constructIPcEEvT_S7_St20forward_iterator_tag
   fun:_ZNSt4pairIKNSt7__cxx1112basic_stringIcSt11char_traitsIcESaIcEEES_IPKviEEC1EOSA_
   fun:_ZN9__gnu_cxx13new_allocatorISt13_Rb_tree_nodeISt4pairIKNSt7__cxx1112basic_stringIcSt11char_traitsIcESaIcEEES2_IPKviEEEE9constructISD_JSD_EEEvPT_DpOT0_
   fun:_ZNSt16allocator_traitsISaISt13_Rb_tree_nodeISt4pairIKNSt7__cxx1112basic_stringIcSt11char_traitsIcESaIcEEES1_IPKviEEEEE9constructISC_JSC_EEEvRSE_PT_DpOT0_
   fun:_ZNSt8_Rb_treeINSt7__cxx1112basic_stringIcSt11char_traitsIcESaIcEEESt4pairIKS5_S6_IPKviEESt10_Select1stISB_ESt4lessIS5_ESaISB_EE17_M_construct_nodeIJSB_EEEvPSt13_Rb_tree_nodeISB_EDpOT_
   fun:_ZNSt8_Rb_treeINSt7__cxx1112basic_stringIcSt11char_traitsIcESaIcEEESt4pairIKS5_S6_IPKviEESt10_Select1stISB_ESt4lessIS5_ESaISB_EE14_M_create_nodeIJSB_EEEPSt13_Rb_tree_nodeISB_EDpOT_
   fun:_ZNKSt8_Rb_treeINSt7__cxx1112basic_stringIcSt11char_traitsIcESaIcEEESt4pairIKS5_S6_IPKviEESt10_Select1stISB_ESt4lessIS5_ESaISB_EE11_Alloc_nodeclISB_EEPSt13_Rb_tree_nodeISB_EOT_
   fun:_ZNSt8_Rb_treeINSt7__cxx1112basic_stringIcSt11char_traitsIcESaIcEEESt4pairIKS5_S6_IPKviEESt10_Select1stISB_ESt4lessIS5_ESaISB_EE10_M_insert_ISB_NSH_11_Alloc_nodeEEESt17_Rb_tree_iteratorISB_EPSt18_Rb_tree_node_baseSN_OT_RT0_
   fun:_ZNSt8_Rb_treeINSt7__cxx1112basic_stringIcSt11char_traitsIcESaIcEEESt4pairIKS5_S6_IPKviEESt10_Select1stISB_ESt4lessIS5_ESaISB_EE16_M_insert_uniqueISB_EES6_ISt17_Rb_tree_iteratorISB_EbEOT_
   fun:_ZNSt3mapINSt7__cxx1112basic_stringIcSt11char_traitsIcESaIcEEESt4pairIPKviESt4lessIS5_ESaIS6_IKS5_S9_EEE6insertEOSD_
   fun:_ZN6google8protobuf24SimpleDescriptorDatabase15DescriptorIndexISt4pairIPKviEE9AddSymbolERKNSt7__cxx1112basic_stringIcSt11char_traitsIcESaIcEEES6_
}
{
   <tensorflow_full>
   Memcheck:Leak
   match-leak-kinds: reachable
   fun:_Znwm
   fun:_ZNSt7__cxx1112basic_stringIcSt11char_traitsIcESaIcEE12_M_constructIPcEEvT_S7_St20forward_iterator_tag
   fun:CreateInternal<std::__cxx11::basic_string<char>, const std::__cxx11::basic_string<char, std::char_traits<char>, std::allocator<char> >&>
   fun:DoCreateMaybeMessage<std::__cxx11::basic_string<char>, const std::__cxx11::basic_string<char, std::char_traits<char>, std::allocator<char> >&>
   fun:CreateMaybeMessage<std::__cxx11::basic_string<char>, const std::__cxx11::basic_string<char, std::char_traits<char>, std::allocator<char> >&>
   fun:CreateNoMessage<std::__cxx11::basic_string<char>, const std::__cxx11::basic_string<char, std::char_traits<char>, std::allocator<char> >&>
   fun:Create<std::__cxx11::basic_string<char>, const std::__cxx11::basic_string<char, std::char_traits<char>, std::allocator<char> >&>
   fun:_ZN6google8protobuf8internal14ArenaStringPtr14CreateInstanceEPNS0_5ArenaEPKNSt7__cxx1112basic_stringIcSt11char_traitsIcESaIcEEE
   fun:_ZN6google8protobuf8internal14ArenaStringPtr3SetEPKNSt7__cxx1112basic_stringIcSt11char_traitsIcESaIcEEERS9_PNS0_5ArenaE
   fun:_ZN10tensorflow12OpDef_ArgDef18set_type_list_attrEPKcm
   fun:_ZN10tensorflow12_GLOBAL__N_121FinalizeInputOrOutputEN4absl14lts_2020_02_2511string_viewEbPNS_5OpDefEPSt6vectorINSt7__cxx1112basic_stringIcSt11char_traitsIcESaIcEEESaISC_EE
   fun:_ZNK10tensorflow12OpDefBuilder8FinalizeEPNS_18OpRegistrationDataE
   fun:_ZZN10tensorflow11register_op20OpDefBuilderReceiverC4ERKNS0_19OpDefBuilderWrapperILb1EEEENKUlPNS_18OpRegistrationDataEE_clES7_
   fun:_ZNSt17_Function_handlerIFN10tensorflow6StatusEPNS0_18OpRegistrationDataEEZNS0_11register_op20OpDefBuilderReceiverC4ERKNS5_19OpDefBuilderWrapperILb1EEEEUlS3_E_E9_M_invokeERKSt9_Any_dataOS3_
   fun:_ZNKSt8functionIFN10tensorflow6StatusEPNS0_18OpRegistrationDataEEEclES3_
   fun:_ZNK10tensorflow10OpRegistry21RegisterAlreadyLockedERKSt8functionIFNS_6StatusEPNS_18OpRegistrationDataEEE
   fun:_ZNK10tensorflow10OpRegistry16MustCallDeferredEv
}
{
   <tensorflow_full>
   Memcheck:Leak
   match-leak-kinds: reachable
   fun:_Znwm
   fun:_ZNSt7__cxx1112basic_stringIcSt11char_traitsIcESaIcEE12_M_constructIPcEEvT_S7_St20forward_iterator_tag
   fun:_ZNSt4pairIKNSt7__cxx1112basic_stringIcSt11char_traitsIcESaIcEEESt8functionIFN10tensorflow6StatusERKNS8_9AttrSliceEPNS8_11FunctionDefEEEEC1EOSH_
   fun:_ZN9__gnu_cxx13new_allocatorINSt8__detail10_Hash_nodeISt4pairIKNSt7__cxx1112basic_stringIcSt11char_traitsIcESaIcEEESt8functionIFN10tensorflow6StatusERKNSC_9AttrSliceEPNSC_11FunctionDefEEEELb1EEEE9constructISL_JSL_EEEvPT_DpOT0_
   fun:_ZNSt16allocator_traitsISaINSt8__detail10_Hash_nodeISt4pairIKNSt7__cxx1112basic_stringIcSt11char_traitsIcESaIcEEESt8functionIFN10tensorflow6StatusERKNSB_9AttrSliceEPNSB_11FunctionDefEEEELb1EEEEE9constructISK_JSK_EEEvRSM_PT_DpOT0_
   fun:_ZNSt8__detail16_Hashtable_allocISaINS_10_Hash_nodeISt4pairIKNSt7__cxx1112basic_stringIcSt11char_traitsIcESaIcEEESt8functionIFN10tensorflow6StatusERKNSB_9AttrSliceEPNSB_11FunctionDefEEEELb1EEEEE16_M_allocate_nodeIJSK_EEEPSL_DpOT_
   fun:_ZNSt10_HashtableINSt7__cxx1112basic_stringIcSt11char_traitsIcESaIcEEESt4pairIKS5_St8functionIFN10tensorflow6StatusERKNS9_9AttrSliceEPNS9_11FunctionDefEEEESaISI_ENSt8__detail10_Select1stESt8equal_toIS5_ESt4hashIS5_ENSK_18_Mod_range_hashingENSK_20_Default_ranged_hashENSK_20_Prime_rehash_policyENSK_17_Hashtable_traitsILb1ELb0ELb1EEEE10_M_emplaceIJSI_EEES6_INSK_14_Node_iteratorISI_Lb0ELb1EEEbESt17integral_constantIbLb1EEDpOT_
   fun:_ZNSt8__detail7_InsertINSt7__cxx1112basic_stringIcSt11char_traitsIcESaIcEEESt4pairIKS6_St8functionIFN10tensorflow6StatusERKNSA_9AttrSliceEPNSA_11FunctionDefEEEESaISJ_ENS_10_Select1stESt8equal_toIS6_ESt4hashIS6_ENS_18_Mod_range_hashingENS_20_Default_ranged_hashENS_20_Prime_rehash_policyENS_17_Hashtable_traitsILb1ELb0ELb1EEELb0EE6insertISJ_vEES7_INS_14_Node_iteratorISJ_Lb0ELb1EEEbEOT_
   fun:_ZNSt13unordered_mapINSt7__cxx1112basic_stringIcSt11char_traitsIcESaIcEEESt8functionIFN10tensorflow6StatusERKNS7_9AttrSliceEPNS7_11FunctionDefEEESt4hashIS5_ESt8equal_toIS5_ESaISt4pairIKS5_SF_EEE6insertEOSM_
   fun:_ZN10tensorflow8gradient10RegisterOpERKNSt7__cxx1112basic_stringIcSt11char_traitsIcESaIcEEESt8functionIFNS_6StatusERKNS_9AttrSliceEPNS_11FunctionDefEEE
   fun:_Z41__static_initialization_and_destruction_0ii
   fun:_GLOBAL__sub_I_stateless_random_grad.cc
}
{
   <tensorflow_full>
   Memcheck:Leak
   match-leak-kinds: reachable
   fun:_Znwm
   fun:_ZNSt7__cxx1112basic_stringIcSt11char_traitsIcESaIcEE12_M_constructIPcEEvT_S7_St20forward_iterator_tag
   fun:_ZN10tensorflow10monitoring17AbstractMetricDefC1ERKS1_
   fun:_ZN10tensorflow10monitoring9MetricDefILNS0_10MetricKindE1ExLi1EEC1ERKS3_
   fun:_ZN10tensorflow10monitoring7CounterILi1EEC1ERKNS0_9MetricDefILNS0_10MetricKindE1ExLi1EEE
   fun:_ZN10tensorflow10monitoring7CounterILi1EE3NewIJRA30_KcRA21_S4_RA5_S4_EEEPS2_DpOT_
   fun:_Z41__static_initialization_and_destruction_0ii
   fun:_GLOBAL__sub_I_metrics.cc
}
{
   <tensorflow_full>
   Memcheck:Leak
   match-leak-kinds: reachable
   fun:_Znwm
   fun:_ZNSt7__cxx1112basic_stringIcSt11char_traitsIcESaIcEE12_M_constructIPcEEvT_S7_St20forward_iterator_tag
   fun:_ZN10tensorflow3gtl8internal7FlatRepINSt7__cxx1112basic_stringIcSt11char_traitsIcESaIcEEENS0_7FlatSetIS8_NS_4hashIS8_vEESt8equal_toIS8_EE6BucketESB_SD_E12FindOrInsertIRKS8_EENSG_12SearchResultEOT_
   fun:_ZN10tensorflow3gtl7FlatSetINSt7__cxx1112basic_stringIcSt11char_traitsIcESaIcEEENS_4hashIS7_vEESt8equal_toIS7_EE6InsertIRKS7_EESt4pairINSC_14const_iteratorEbEOT_
   fun:_ZN10tensorflow3gtl7FlatSetINSt7__cxx1112basic_stringIcSt11char_traitsIcESaIcEEENS_4hashIS7_vEESt8equal_toIS7_EE6insertERKS7_
   fun:_ZN10tensorflow3gtl7FlatSetINSt7__cxx1112basic_stringIcSt11char_traitsIcESaIcEEENS_4hashIS7_vEESt8equal_toIS7_EE6insertIPKS7_EEvT_SG_
   fun:_ZN10tensorflow3gtl7FlatSetINSt7__cxx1112basic_stringIcSt11char_traitsIcESaIcEEENS_4hashIS7_vEESt8equal_toIS7_EEC1IPKS7_EET_SG_mRKS9_RKSB_
   fun:_ZN10tensorflow3gtl7FlatSetINSt7__cxx1112basic_stringIcSt11char_traitsIcESaIcEEENS_4hashIS7_vEESt8equal_toIS7_EEC1ESt16initializer_listIS7_EmRKS9_RKSB_
   fun:_ZN10tensorflow8grappler33IsValueAndOrderAndShapePreservingERKNS_7NodeDefE
   fun:_ZN10tensorflow8grappler25IsValueAndOrderPreservingERKNS_7NodeDefE
   fun:_ZN10tensorflow8grappler17IsValuePreservingERKNS_7NodeDefE
   fun:_ZNK10tensorflow8grappler12_GLOBAL__N_133ReorderCastLikeAndValuePreserving11IsSupportedEPKNS_7NodeDefE
}
{
   <tensorflow_full>
   Memcheck:Leak
   match-leak-kinds: reachable
   fun:_Znwm
   fun:_ZNSt7__cxx1112basic_stringIcSt11char_traitsIcESaIcEE12_M_constructIPcEEvT_S7_St20forward_iterator_tag
   fun:_ZN6google8protobuf14DescriptorPool6Tables14AllocateStringERKNSt7__cxx1112basic_stringIcSt11char_traitsIcESaIcEEE
   fun:_ZN6google8protobuf17DescriptorBuilder21BuildFieldOrExtensionERKNS0_20FieldDescriptorProtoEPKNS0_10DescriptorEPNS0_15FieldDescriptorEb
   fun:_ZN6google8protobuf17DescriptorBuilder10BuildFieldERKNS0_20FieldDescriptorProtoEPKNS0_10DescriptorEPNS0_15FieldDescriptorE
   fun:_ZN6google8protobuf17DescriptorBuilder12BuildMessageERKNS0_15DescriptorProtoEPKNS0_10DescriptorEPS5_
   fun:_ZN6google8protobuf17DescriptorBuilder13BuildFileImplERKNS0_19FileDescriptorProtoE
   fun:_ZN6google8protobuf17DescriptorBuilder9BuildFileERKNS0_19FileDescriptorProtoE
   fun:_ZNK6google8protobuf14DescriptorPool21BuildFileFromDatabaseERKNS0_19FileDescriptorProtoE
   fun:_ZNK6google8protobuf14DescriptorPool29TryFindFileInFallbackDatabaseERKNSt7__cxx1112basic_stringIcSt11char_traitsIcESaIcEEE
   fun:_ZNK6google8protobuf14DescriptorPool14FindFileByNameERKNSt7__cxx1112basic_stringIcSt11char_traitsIcESaIcEEE
   fun:_ZN6google8protobuf12_GLOBAL__N_121AssignDescriptorsImplEPKNS0_8internal15DescriptorTableE
}
{
   <tensorflow_full>
   Memcheck:Leak
   match-leak-kinds: reachable
   fun:_Znwm
   fun:_ZNSt7__cxx1112basic_stringIcSt11char_traitsIcESaIcEE12_M_constructIPcEEvT_S7_St20forward_iterator_tag
   fun:_ZN6google8protobuf14DescriptorPool6Tables14AllocateStringERKNSt7__cxx1112basic_stringIcSt11char_traitsIcESaIcEEE
   fun:_ZN6google8protobuf17DescriptorBuilder12BuildMessageERKNS0_15DescriptorProtoEPKNS0_10DescriptorEPS5_
   fun:_ZN6google8protobuf17DescriptorBuilder12BuildMessageERKNS0_15DescriptorProtoEPKNS0_10DescriptorEPS5_
   fun:_ZN6google8protobuf17DescriptorBuilder13BuildFileImplERKNS0_19FileDescriptorProtoE
   fun:_ZN6google8protobuf17DescriptorBuilder9BuildFileERKNS0_19FileDescriptorProtoE
   fun:_ZNK6google8protobuf14DescriptorPool21BuildFileFromDatabaseERKNS0_19FileDescriptorProtoE
   fun:_ZNK6google8protobuf14DescriptorPool29TryFindFileInFallbackDatabaseERKNSt7__cxx1112basic_stringIcSt11char_traitsIcESaIcEEE
   fun:_ZNK6google8protobuf14DescriptorPool14FindFileByNameERKNSt7__cxx1112basic_stringIcSt11char_traitsIcESaIcEEE
   fun:_ZN6google8protobuf12_GLOBAL__N_121AssignDescriptorsImplEPKNS0_8internal15DescriptorTableE
   fun:_ZSt13__invoke_implIvRFvPKN6google8protobuf8internal15DescriptorTableEEJRS5_EET_St14__invoke_otherOT0_DpOT1_
}
{
   <tensorflow_full>
   Memcheck:Leak
   match-leak-kinds: reachable
   fun:_Znwm
   fun:_ZNSt7__cxx1112basic_stringIcSt11char_traitsIcESaIcEE12_M_constructIPcEEvT_S7_St20forward_iterator_tag
   fun:_ZN6google8protobuf14DescriptorPool6Tables14AllocateStringERKNSt7__cxx1112basic_stringIcSt11char_traitsIcESaIcEEE
   fun:_ZN6google8protobuf17DescriptorBuilder14CrossLinkFieldEPNS0_15FieldDescriptorERKNS0_20FieldDescriptorProtoE
   fun:_ZN6google8protobuf17DescriptorBuilder16CrossLinkMessageEPNS0_10DescriptorERKNS0_15DescriptorProtoE
   fun:_ZN6google8protobuf17DescriptorBuilder16CrossLinkMessageEPNS0_10DescriptorERKNS0_15DescriptorProtoE
   fun:_ZN6google8protobuf17DescriptorBuilder13CrossLinkFileEPNS0_14FileDescriptorERKNS0_19FileDescriptorProtoE
   fun:_ZN6google8protobuf17DescriptorBuilder13BuildFileImplERKNS0_19FileDescriptorProtoE
   fun:_ZN6google8protobuf17DescriptorBuilder9BuildFileERKNS0_19FileDescriptorProtoE
   fun:_ZNK6google8protobuf14DescriptorPool21BuildFileFromDatabaseERKNS0_19FileDescriptorProtoE
   fun:_ZNK6google8protobuf14DescriptorPool29TryFindFileInFallbackDatabaseERKNSt7__cxx1112basic_stringIcSt11char_traitsIcESaIcEEE
   fun:_ZNK6google8protobuf14DescriptorPool14FindFileByNameERKNSt7__cxx1112basic_stringIcSt11char_traitsIcESaIcEEE
}
{
   <tensorflow_full>
   Memcheck:Leak
   match-leak-kinds: reachable
   fun:_Znwm
   fun:_ZN10tensorflow8profiler12_GLOBAL__N_112GetFactoriesEv
   fun:_ZN10tensorflow8profiler23RegisterProfilerFactoryEPFSt10unique_ptrINS0_17ProfilerInterfaceESt14default_deleteIS2_EERKNS_14ProfileOptionsEE
   fun:_ZNK10tensorflow8profilerUlvE_clEv
   fun:_Z41__static_initialization_and_destruction_0ii
   fun:_GLOBAL__sub_I_host_tracer.cc
}
{
   <tensorflow_full>
   Memcheck:Leak
   match-leak-kinds: reachable
   fun:_Znwm
   fun:_ZN10tensorflow12_GLOBAL__N_125MutableCollectiveRegistryEv
   fun:_ZN10tensorflow18CollectiveRegistry8RegisterERKNSt7__cxx1112basic_stringIcSt11char_traitsIcESaIcEEESt8functionIFPNS_33CollectiveImplementationInterfaceEvEE
   fun:_ZN10tensorflow22CollectiveRegistrationC1ERKNSt7__cxx1112basic_stringIcSt11char_traitsIcESaIcEEESt8functionIFPNS_33CollectiveImplementationInterfaceEvEE
   fun:_Z41__static_initialization_and_destruction_0ii
   fun:_GLOBAL__sub_I_hierarchical_tree_broadcaster.cc
}
{
   <tensorflow_full>
   Memcheck:Leak
   match-leak-kinds: reachable
   fun:_Znwm
   fun:_ZN10tensorflow31NewThreadPoolFromSessionOptionsERKNS_14SessionOptionsE
   fun:_ZN10tensorflow12_GLOBAL__N_116GlobalThreadPoolERKNS_14SessionOptionsE
   fun:_ZN10tensorflow13DirectSessionC1ERKNS_14SessionOptionsEPKNS_9DeviceMgrEPNS_20DirectSessionFactoryE
   fun:_ZN10tensorflow20DirectSessionFactory10NewSessionERKNS_14SessionOptionsEPPNS_7SessionE
   fun:_ZN10tensorflow10NewSessionERKNS_14SessionOptionsEPPNS_7SessionE
   fun:_ZN12TFModelState4initEPKc
   fun:DS_CreateModel
   fun:main
}
{
   <tensorflow_full>
   Memcheck:Leak
   match-leak-kinds: reachable
   fun:_Znwm
   fun:_ZN10tensorflow6thread10ThreadPoolC1EPNS_3EnvERKNS_13ThreadOptionsERKNSt7__cxx1112basic_stringIcSt11char_traitsIcESaIcEEEibPN5Eigen9AllocatorE
   fun:_ZN10tensorflow31NewThreadPoolFromSessionOptionsERKNS_14SessionOptionsE
   fun:_ZN10tensorflow12_GLOBAL__N_116GlobalThreadPoolERKNS_14SessionOptionsE
   fun:_ZN10tensorflow13DirectSessionC1ERKNS_14SessionOptionsEPKNS_9DeviceMgrEPNS_20DirectSessionFactoryE
   fun:_ZN10tensorflow20DirectSessionFactory10NewSessionERKNS_14SessionOptionsEPPNS_7SessionE
   fun:_ZN10tensorflow10NewSessionERKNS_14SessionOptionsEPPNS_7SessionE
   fun:_ZN12TFModelState4initEPKc
   fun:DS_CreateModel
   fun:main
}
{
   <tensorflow_full>
   Memcheck:Leak
   match-leak-kinds: reachable
   fun:_Znwm
   fun:_ZN10tensorflow12_GLOBAL__N_121GraphRunnerThreadPoolEv
   fun:_ZN10tensorflow12_GLOBAL__N_123SingleThreadedCpuDeviceC1EPNS_3EnvE
   fun:_ZN10tensorflow26NewSingleThreadedCpuDeviceEPNS_3EnvE
   fun:_ZN10tensorflow11GraphRunnerC1EPNS_3EnvE
   fun:_ZN10tensorflow12ShapeRefinerC1EiPKNS_19OpRegistryInterfaceE
   fun:_ZN10tensorflow22ConvertGraphDefToGraphERKNS_23GraphConstructorOptionsERKNS_8GraphDefEPNS_5GraphE
   fun:_ZN10tensorflow19GraphExecutionState16MakeForBaseGraphEONS_8GraphDefERKNS_26GraphExecutionStateOptionsEPSt10unique_ptrIS0_St14default_deleteIS0_EE
   fun:_ZN10tensorflow13DirectSession12ExtendLockedENS_8GraphDefE
   fun:_ZN10tensorflow13DirectSession6CreateEONS_8GraphDefE
   fun:_ZN10tensorflow13DirectSession6CreateERKNS_8GraphDefE
   fun:_ZN12TFModelState4initEPKc
}
{
   <tensorflow_full>
   Memcheck:Leak
   match-leak-kinds: reachable
   fun:_Znwm
   fun:_ZN10tensorflow6thread10ThreadPoolC1EPNS_3EnvERKNS_13ThreadOptionsERKNSt7__cxx1112basic_stringIcSt11char_traitsIcESaIcEEEibPN5Eigen9AllocatorE
   fun:_ZN10tensorflow6thread10ThreadPoolC1EPNS_3EnvERKNSt7__cxx1112basic_stringIcSt11char_traitsIcESaIcEEEi
   fun:_ZN10tensorflow12_GLOBAL__N_121GraphRunnerThreadPoolEv
   fun:_ZN10tensorflow12_GLOBAL__N_123SingleThreadedCpuDeviceC1EPNS_3EnvE
   fun:_ZN10tensorflow26NewSingleThreadedCpuDeviceEPNS_3EnvE
   fun:_ZN10tensorflow11GraphRunnerC1EPNS_3EnvE
   fun:_ZN10tensorflow12ShapeRefinerC1EiPKNS_19OpRegistryInterfaceE
   fun:_ZN10tensorflow22ConvertGraphDefToGraphERKNS_23GraphConstructorOptionsERKNS_8GraphDefEPNS_5GraphE
   fun:_ZN10tensorflow19GraphExecutionState16MakeForBaseGraphEONS_8GraphDefERKNS_26GraphExecutionStateOptionsEPSt10unique_ptrIS0_St14default_deleteIS0_EE
   fun:_ZN10tensorflow13DirectSession12ExtendLockedENS_8GraphDefE
   fun:_ZN10tensorflow13DirectSession6CreateEONS_8GraphDefE
}
{
   <tensorflow_full>
   Memcheck:Leak
   match-leak-kinds: reachable
   fun:_Znwm
   fun:_ZN10tensorflow9AttrSliceC1Ev
   fun:_ZN10tensorflow8grappler5utils8internal16NodeViewInternalINS1_16MutableFaninViewENS1_17MutableFanoutViewENS1_16MutableGraphViewELb0EEC1Ev
   fun:_ZN10tensorflow8grappler5utils15MutableNodeViewC1Ev
   fun:_ZSt10_ConstructIN10tensorflow8grappler5utils15MutableNodeViewEJEEvPT_DpOT0_
   fun:_ZNSt27__uninitialized_default_n_1ILb0EE18__uninit_default_nIPN10tensorflow8grappler5utils15MutableNodeViewEmEET_S7_T0_
   fun:_ZSt25__uninitialized_default_nIPN10tensorflow8grappler5utils15MutableNodeViewEmET_S5_T0_
   fun:_ZSt27__uninitialized_default_n_aIPN10tensorflow8grappler5utils15MutableNodeViewEmS3_ET_S5_T0_RSaIT1_E
   fun:_ZNSt6vectorIN10tensorflow8grappler5utils15MutableNodeViewESaIS3_EE21_M_default_initializeEm
   fun:_ZNSt6vectorIN10tensorflow8grappler5utils15MutableNodeViewESaIS3_EEC1EmRKS4_
   fun:_ZN10tensorflow8grappler5utils16MutableGraphView17SortTopologicallyEbN4absl14lts_2020_02_254SpanIKNS2_21TopologicalDependencyEEE
   fun:_ZN10tensorflow8grappler8Remapper8OptimizeEPNS0_7ClusterERKNS0_12GrapplerItemEPNS_8GraphDefE
}
{
   <tensorflow_full>
   Memcheck:Leak
   match-leak-kinds: reachable
   fun:_Znwm
   fun:_ZN10tensorflow12_GLOBAL__N_125GetCustomCreatorSingletonEv
   fun:_ZN10tensorflow29GetDefaultCustomKernelCreatorEv
   fun:_ZN10tensorflow13DirectSession15CreateExecutorsERKNS_15CallableOptionsEPSt10unique_ptrINS0_16ExecutorsAndKeysESt14default_deleteIS5_EEPS4_INS0_12FunctionInfoES6_ISA_EEPNS0_12RunStateArgsE
   fun:_ZN10tensorflow13DirectSession20GetOrCreateExecutorsEN4absl14lts_2020_02_254SpanIKNSt7__cxx1112basic_stringIcSt11char_traitsIcESaIcEEEEESB_SB_PPNS0_16ExecutorsAndKeysEPNS0_12RunStateArgsE
   fun:_ZN10tensorflow13DirectSession3RunERKNS_10RunOptionsERKSt6vectorISt4pairINSt7__cxx1112basic_stringIcSt11char_traitsIcESaIcEEENS_6TensorEESaISD_EERKS4_ISB_SaISB_EESL_PS4_ISC_SaISC_EEPNS_11RunMetadataERKNS_6thread17ThreadPoolOptionsE
   fun:_ZN10tensorflow13DirectSession3RunERKNS_10RunOptionsERKSt6vectorISt4pairINSt7__cxx1112basic_stringIcSt11char_traitsIcESaIcEEENS_6TensorEESaISD_EERKS4_ISB_SaISB_EESL_PS4_ISC_SaISC_EEPNS_11RunMetadataE
   fun:_ZN10tensorflow13DirectSession3RunERKSt6vectorISt4pairINSt7__cxx1112basic_stringIcSt11char_traitsIcESaIcEEENS_6TensorEESaISA_EERKS1_IS8_SaIS8_EESI_PS1_IS9_SaIS9_EE
   fun:_ZN12TFModelState4initEPKc
   fun:DS_CreateModel
   fun:main
}
{
   <tensorflow_full>
   Memcheck:Leak
   match-leak-kinds: reachable
   fun:_Znwm
   fun:_ZN9__gnu_cxx13new_allocatorIPNSt8__detail15_Hash_node_baseEE8allocateEmPKv
   fun:_ZNSt16allocator_traitsISaIPNSt8__detail15_Hash_node_baseEEE8allocateERS3_m
   fun:_ZNSt8__detail16_Hashtable_allocISaINS_10_Hash_nodeINSt7__cxx1112basic_stringIcSt11char_traitsIcESaIcEEELb1EEEEE19_M_allocate_bucketsEm
   fun:_ZNSt10_HashtableINSt7__cxx1112basic_stringIcSt11char_traitsIcESaIcEEES5_SaIS5_ENSt8__detail9_IdentityESt8equal_toIS5_ESt4hashIS5_ENS7_18_Mod_range_hashingENS7_20_Default_ranged_hashENS7_20_Prime_rehash_policyENS7_17_Hashtable_traitsILb1ELb1ELb1EEEE19_M_allocate_bucketsEm
   fun:_ZNSt10_HashtableINSt7__cxx1112basic_stringIcSt11char_traitsIcESaIcEEES5_SaIS5_ENSt8__detail9_IdentityESt8equal_toIS5_ESt4hashIS5_ENS7_18_Mod_range_hashingENS7_20_Default_ranged_hashENS7_20_Prime_rehash_policyENS7_17_Hashtable_traitsILb1ELb1ELb1EEEEC1EmRKSC_RKSD_RKSE_RKSA_RKS8_RKS6_
   fun:_ZNSt10_HashtableINSt7__cxx1112basic_stringIcSt11char_traitsIcESaIcEEES5_SaIS5_ENSt8__detail9_IdentityESt8equal_toIS5_ESt4hashIS5_ENS7_18_Mod_range_hashingENS7_20_Default_ranged_hashENS7_20_Prime_rehash_policyENS7_17_Hashtable_traitsILb1ELb1ELb1EEEEC1EmRKSC_RKSA_RKS6_
   fun:_ZNSt13unordered_setINSt7__cxx1112basic_stringIcSt11char_traitsIcESaIcEEESt4hashIS5_ESt8equal_toIS5_ESaIS5_EEC1EmRKS7_RKS9_RKSA_
   fun:_ZN6google8protobuf14DescriptorPool6TablesC1Ev
   fun:_ZN6google8protobuf14DescriptorPoolC1EPNS0_18DescriptorDatabaseEPNS1_14ErrorCollectorE
   fun:_ZN6google8protobuf12_GLOBAL__N_116NewGeneratedPoolEv
   fun:_ZN6google8protobuf14DescriptorPool23internal_generated_poolEv
}
{
   <tensorflow_full>
   Memcheck:Leak
   match-leak-kinds: reachable
   fun:_Znwm
   fun:_ZN9__gnu_cxx13new_allocatorIPNSt8__detail15_Hash_node_baseEE8allocateEmPKv
   fun:_ZNSt16allocator_traitsISaIPNSt8__detail15_Hash_node_baseEEE8allocateERS3_m
   fun:_ZNSt8__detail16_Hashtable_allocISaINS_10_Hash_nodeIPKN6google8protobuf10DescriptorELb0EEEEE19_M_allocate_bucketsEm
   fun:_ZNSt10_HashtableIPKN6google8protobuf10DescriptorES4_SaIS4_ENSt8__detail9_IdentityESt8equal_toIS4_ESt4hashIS4_ENS6_18_Mod_range_hashingENS6_20_Default_ranged_hashENS6_20_Prime_rehash_policyENS6_17_Hashtable_traitsILb0ELb1ELb1EEEE19_M_allocate_bucketsEm
   fun:_ZNSt10_HashtableIPKN6google8protobuf10DescriptorES4_SaIS4_ENSt8__detail9_IdentityESt8equal_toIS4_ESt4hashIS4_ENS6_18_Mod_range_hashingENS6_20_Default_ranged_hashENS6_20_Prime_rehash_policyENS6_17_Hashtable_traitsILb0ELb1ELb1EEEEC1EmRKSB_RKSC_RKSD_RKS9_RKS7_RKS5_
   fun:_ZNSt10_HashtableIPKN6google8protobuf10DescriptorES4_SaIS4_ENSt8__detail9_IdentityESt8equal_toIS4_ESt4hashIS4_ENS6_18_Mod_range_hashingENS6_20_Default_ranged_hashENS6_20_Prime_rehash_policyENS6_17_Hashtable_traitsILb0ELb1ELb1EEEEC1EmRKSB_RKS9_RKS5_
   fun:_ZNSt13unordered_setIPKN6google8protobuf10DescriptorESt4hashIS4_ESt8equal_toIS4_ESaIS4_EEC1EmRKS6_RKS8_RKS9_
   fun:_ZN6google8protobuf14DescriptorPool6TablesC1Ev
   fun:_ZN6google8protobuf14DescriptorPoolC1EPNS0_18DescriptorDatabaseEPNS1_14ErrorCollectorE
   fun:_ZN6google8protobuf12_GLOBAL__N_116NewGeneratedPoolEv
   fun:_ZN6google8protobuf14DescriptorPool23internal_generated_poolEv
}
{
   <tensorflow_full>
   Memcheck:Leak
   match-leak-kinds: reachable
   fun:_Znwm
   fun:_ZN9__gnu_cxx13new_allocatorIPNSt8__detail15_Hash_node_baseEE8allocateEmPKv
   fun:_ZNSt16allocator_traitsISaIPNSt8__detail15_Hash_node_baseEEE8allocateERS3_m
   fun:_ZNSt8__detail16_Hashtable_allocISaINS_10_Hash_nodeISt4pairIKPKcPKN6google8protobuf14FileDescriptorEELb1EEEEE19_M_allocate_bucketsEm
   fun:_ZNSt10_HashtableIPKcSt4pairIKS1_PKN6google8protobuf14FileDescriptorEESaIS9_ENSt8__detail10_Select1stENS5_5streqENS5_4hashIS1_EENSB_18_Mod_range_hashingENSB_20_Default_ranged_hashENSB_20_Prime_rehash_policyENSB_17_Hashtable_traitsILb1ELb0ELb1EEEE19_M_allocate_bucketsEm
   fun:_ZNSt10_HashtableIPKcSt4pairIKS1_PKN6google8protobuf14FileDescriptorEESaIS9_ENSt8__detail10_Select1stENS5_5streqENS5_4hashIS1_EENSB_18_Mod_range_hashingENSB_20_Default_ranged_hashENSB_20_Prime_rehash_policyENSB_17_Hashtable_traitsILb1ELb0ELb1EEEEC1EmRKSF_RKSG_RKSH_RKSD_RKSC_RKSA_
   fun:_ZNSt10_HashtableIPKcSt4pairIKS1_PKN6google8protobuf14FileDescriptorEESaIS9_ENSt8__detail10_Select1stENS5_5streqENS5_4hashIS1_EENSB_18_Mod_range_hashingENSB_20_Default_ranged_hashENSB_20_Prime_rehash_policyENSB_17_Hashtable_traitsILb1ELb0ELb1EEEEC1EmRKSF_RKSD_RKSA_
   fun:_ZNSt13unordered_mapIPKcPKN6google8protobuf14FileDescriptorENS3_4hashIS1_EENS3_5streqESaISt4pairIKS1_S6_EEEC1EmRKS8_RKS9_RKSD_
   fun:_ZN6google8protobuf14DescriptorPool6TablesC1Ev
   fun:_ZN6google8protobuf14DescriptorPoolC1EPNS0_18DescriptorDatabaseEPNS1_14ErrorCollectorE
   fun:_ZN6google8protobuf12_GLOBAL__N_116NewGeneratedPoolEv
   fun:_ZN6google8protobuf14DescriptorPool23internal_generated_poolEv
}
{
   <tensorflow_full>
   Memcheck:Leak
   match-leak-kinds: reachable
   fun:_Znwm
   fun:_ZN9__gnu_cxx13new_allocatorIPNSt8__detail15_Hash_node_baseEE8allocateEmPKv
   fun:_ZNSt16allocator_traitsISaIPNSt8__detail15_Hash_node_baseEEE8allocateERS3_m
   fun:_ZNSt8__detail16_Hashtable_allocISaINS_10_Hash_nodeISt4pairIKS2_IPKvPKcEPKN6google8protobuf15FieldDescriptorEELb1EEEEE19_M_allocate_bucketsEm
   fun:_ZNSt10_HashtableISt4pairIPKvPKcES0_IKS5_PKN6google8protobuf15FieldDescriptorEESaISC_ENSt8__detail10_Select1stENS8_12_GLOBAL__N_122PointerStringPairEqualENSG_21PointerStringPairHashENSE_18_Mod_range_hashingENSE_20_Default_ranged_hashENSE_20_Prime_rehash_policyENSE_17_Hashtable_traitsILb1ELb0ELb1EEEE19_M_allocate_bucketsEm
   fun:_ZNSt10_HashtableISt4pairIPKvPKcES0_IKS5_PKN6google8protobuf15FieldDescriptorEESaISC_ENSt8__detail10_Select1stENS8_12_GLOBAL__N_122PointerStringPairEqualENSG_21PointerStringPairHashENSE_18_Mod_range_hashingENSE_20_Default_ranged_hashENSE_20_Prime_rehash_policyENSE_17_Hashtable_traitsILb1ELb0ELb1EEEEC1EmRKSI_RKSJ_RKSK_RKSH_RKSF_RKSD_
   fun:_ZNSt10_HashtableISt4pairIPKvPKcES0_IKS5_PKN6google8protobuf15FieldDescriptorEESaISC_ENSt8__detail10_Select1stENS8_12_GLOBAL__N_122PointerStringPairEqualENSG_21PointerStringPairHashENSE_18_Mod_range_hashingENSE_20_Default_ranged_hashENSE_20_Prime_rehash_policyENSE_17_Hashtable_traitsILb1ELb0ELb1EEEEC1EmRKSI_RKSH_RKSD_
   fun:_ZNSt13unordered_mapISt4pairIPKvPKcEPKN6google8protobuf15FieldDescriptorENS7_12_GLOBAL__N_121PointerStringPairHashENSB_22PointerStringPairEqualESaIS0_IKS5_SA_EEEC1EmRKSC_RKSD_RKSG_
   fun:_ZN6google8protobuf20FileDescriptorTablesC1Ev
   fun:_ZN6google8protobuf14DescriptorPool6Tables18AllocateFileTablesEv
   fun:_ZN6google8protobuf17DescriptorBuilder13BuildFileImplERKNS0_19FileDescriptorProtoE
   fun:_ZN6google8protobuf17DescriptorBuilder9BuildFileERKNS0_19FileDescriptorProtoE
}
{
   <tensorflow_full>
   Memcheck:Leak
   match-leak-kinds: reachable
   fun:_Znwm
   fun:_ZN9__gnu_cxx13new_allocatorIPNSt8__detail15_Hash_node_baseEE8allocateEmPKv
   fun:_ZNSt16allocator_traitsISaIPNSt8__detail15_Hash_node_baseEEE8allocateERS3_m
   fun:_ZNSt8__detail16_Hashtable_allocISaINS_10_Hash_nodeISt4pairIKS2_IPKN6google8protobuf14EnumDescriptorEiEPKNS4_19EnumValueDescriptorEELb1EEEEE19_M_allocate_bucketsEm
   fun:_ZNSt10_HashtableISt4pairIPKN6google8protobuf14EnumDescriptorEiES0_IKS6_PKNS2_19EnumValueDescriptorEESaISB_ENSt8__detail10_Select1stESt8equal_toIS6_ENS2_12_GLOBAL__N_122PointerIntegerPairHashIS6_EENSD_18_Mod_range_hashingENSD_20_Default_ranged_hashENSD_20_Prime_rehash_policyENSD_17_Hashtable_traitsILb1ELb0ELb1EEEE19_M_allocate_bucketsEm
   fun:_ZNSt10_HashtableISt4pairIPKN6google8protobuf14EnumDescriptorEiES0_IKS6_PKNS2_19EnumValueDescriptorEESaISB_ENSt8__detail10_Select1stESt8equal_toIS6_ENS2_12_GLOBAL__N_122PointerIntegerPairHashIS6_EENSD_18_Mod_range_hashingENSD_20_Default_ranged_hashENSD_20_Prime_rehash_policyENSD_17_Hashtable_traitsILb1ELb0ELb1EEEEC1EmRKSJ_RKSK_RKSL_RKSG_RKSE_RKSC_
   fun:_ZNSt10_HashtableISt4pairIPKN6google8protobuf14EnumDescriptorEiES0_IKS6_PKNS2_19EnumValueDescriptorEESaISB_ENSt8__detail10_Select1stESt8equal_toIS6_ENS2_12_GLOBAL__N_122PointerIntegerPairHashIS6_EENSD_18_Mod_range_hashingENSD_20_Default_ranged_hashENSD_20_Prime_rehash_policyENSD_17_Hashtable_traitsILb1ELb0ELb1EEEEC1EmRKSJ_RKSG_RKSC_
   fun:_ZNSt13unordered_mapISt4pairIPKN6google8protobuf14EnumDescriptorEiEPKNS2_19EnumValueDescriptorENS2_12_GLOBAL__N_122PointerIntegerPairHashIS6_EESt8equal_toIS6_ESaIS0_IKS6_S9_EEEC1EmRKSC_RKSE_RKSH_
   fun:_ZN6google8protobuf20FileDescriptorTablesC1Ev
   fun:_ZN6google8protobuf14DescriptorPool6Tables18AllocateFileTablesEv
   fun:_ZN6google8protobuf17DescriptorBuilder13BuildFileImplERKNS0_19FileDescriptorProtoE
   fun:_ZN6google8protobuf17DescriptorBuilder9BuildFileERKNS0_19FileDescriptorProtoE
}
{
   <tensorflow_full>
   Memcheck:Leak
   match-leak-kinds: reachable
   fun:_Znwm
   fun:_ZN9__gnu_cxx13new_allocatorIPNSt8__detail15_Hash_node_baseEE8allocateEmPKv
   fun:_ZNSt16allocator_traitsISaIPNSt8__detail15_Hash_node_baseEEE8allocateERS3_m
   fun:_ZNSt8__detail16_Hashtable_allocISaINS_10_Hash_nodeISt4pairIKNSt7__cxx1112basic_stringIcSt11char_traitsIcESaIcEEEPKN6google8protobuf23SourceCodeInfo_LocationEELb1EEEEE19_M_allocate_bucketsEm
   fun:_ZNSt10_HashtableINSt7__cxx1112basic_stringIcSt11char_traitsIcESaIcEEESt4pairIKS5_PKN6google8protobuf23SourceCodeInfo_LocationEESaISD_ENSt8__detail10_Select1stESt8equal_toIS5_ESt4hashIS5_ENSF_18_Mod_range_hashingENSF_20_Default_ranged_hashENSF_20_Prime_rehash_policyENSF_17_Hashtable_traitsILb1ELb0ELb1EEEE19_M_allocate_bucketsEm
   fun:_ZNSt10_HashtableINSt7__cxx1112basic_stringIcSt11char_traitsIcESaIcEEESt4pairIKS5_PKN6google8protobuf23SourceCodeInfo_LocationEESaISD_ENSt8__detail10_Select1stESt8equal_toIS5_ESt4hashIS5_ENSF_18_Mod_range_hashingENSF_20_Default_ranged_hashENSF_20_Prime_rehash_policyENSF_17_Hashtable_traitsILb1ELb0ELb1EEEEC1EmRKSK_RKSL_RKSM_RKSI_RKSG_RKSE_
   fun:_ZNSt10_HashtableINSt7__cxx1112basic_stringIcSt11char_traitsIcESaIcEEESt4pairIKS5_PKN6google8protobuf23SourceCodeInfo_LocationEESaISD_ENSt8__detail10_Select1stESt8equal_toIS5_ESt4hashIS5_ENSF_18_Mod_range_hashingENSF_20_Default_ranged_hashENSF_20_Prime_rehash_policyENSF_17_Hashtable_traitsILb1ELb0ELb1EEEEC1EmRKSK_RKSI_RKSE_
   fun:_ZNSt13unordered_mapINSt7__cxx1112basic_stringIcSt11char_traitsIcESaIcEEEPKN6google8protobuf23SourceCodeInfo_LocationESt4hashIS5_ESt8equal_toIS5_ESaISt4pairIKS5_SA_EEEC1EmRKSC_RKSE_RKSI_
   fun:_ZN6google8protobuf20FileDescriptorTablesC1Ev
   fun:_ZN6google8protobuf14DescriptorPool6Tables18AllocateFileTablesEv
   fun:_ZN6google8protobuf17DescriptorBuilder13BuildFileImplERKNS0_19FileDescriptorProtoE
   fun:_ZN6google8protobuf17DescriptorBuilder9BuildFileERKNS0_19FileDescriptorProtoE
}
{
   <tensorflow_full>
   Memcheck:Leak
   match-leak-kinds: reachable
   fun:_Znwm
   fun:_ZN9__gnu_cxx13new_allocatorINSt8__detail10_Hash_nodeISt4pairIKmmELb0EEEE8allocateEmPKv
   fun:_ZNSt16allocator_traitsISaINSt8__detail10_Hash_nodeISt4pairIKmmELb0EEEEE8allocateERS6_m
   fun:_ZNSt8__detail16_Hashtable_allocISaINS_10_Hash_nodeISt4pairIKmmELb0EEEEE16_M_allocate_nodeIJRKSt21piecewise_construct_tSt5tupleIJOmEESC_IJEEEEEPS5_DpOT_
   fun:_ZNSt8__detail9_Map_baseImSt4pairIKmmESaIS3_ENS_10_Select1stESt8equal_toImESt4hashImENS_18_Mod_range_hashingENS_20_Default_ranged_hashENS_20_Prime_rehash_policyENS_17_Hashtable_traitsILb0ELb0ELb1EEELb1EEixEOm
   fun:_ZNSt13unordered_mapImmSt4hashImESt8equal_toImESaISt4pairIKmmEEEixEOm
   fun:_ZN5Xbyak13MmapAllocator5allocEm
   fun:_ZN5Xbyak9CodeArrayC1EmPvPNS_9AllocatorE
   fun:_ZN5Xbyak13CodeGeneratorC1EmPvPNS_9AllocatorE
   fun:_ZN6mkldnn4impl3cpu13jit_generatorC1EPvm
   fun:_ZN6mkldnn4impl3cpu25jit_avx2_f32_copy_an_kernC1Ev
   fun:_ZZN6mkldnn4impl3cpu11gemm_info_tIfffE8jit_initEvENKUlvE_clEv
}
{
   <tensorflow_full>
   Memcheck:Leak
   match-leak-kinds: reachable
   fun:_Znwm
   fun:_ZN9__gnu_cxx13new_allocatorINSt8__detail10_Hash_nodeISt4pairIKmmELb0EEEE8allocateEmPKv
   fun:_ZNSt16allocator_traitsISaINSt8__detail10_Hash_nodeISt4pairIKmmELb0EEEEE8allocateERS6_m
   fun:_ZNSt8__detail16_Hashtable_allocISaINS_10_Hash_nodeISt4pairIKmmELb0EEEEE16_M_allocate_nodeIJRKSt21piecewise_construct_tSt5tupleIJOmEESC_IJEEEEEPS5_DpOT_
   fun:_ZNSt8__detail9_Map_baseImSt4pairIKmmESaIS3_ENS_10_Select1stESt8equal_toImESt4hashImENS_18_Mod_range_hashingENS_20_Default_ranged_hashENS_20_Prime_rehash_policyENS_17_Hashtable_traitsILb0ELb0ELb1EEELb1EEixEOm
   fun:_ZNSt13unordered_mapImmSt4hashImESt8equal_toImESaISt4pairIKmmEEEixEOm
   fun:_ZN5Xbyak13MmapAllocator5allocEm
   fun:_ZN5Xbyak9CodeArrayC1EmPvPNS_9AllocatorE
   fun:_ZN5Xbyak13CodeGeneratorC1EmPvPNS_9AllocatorE
   fun:_ZN6mkldnn4impl3cpu13jit_generatorC1EPvm
   fun:_ZN6mkldnn4impl3cpu25jit_avx2_f32_copy_at_kernC1Ev
   fun:_ZZN6mkldnn4impl3cpu11gemm_info_tIfffE8jit_initEvENKUlvE_clEv
}
{
   <tensorflow_full>
   Memcheck:Leak
   match-leak-kinds: reachable
   fun:_Znwm
   fun:_ZN9__gnu_cxx13new_allocatorINSt8__detail10_Hash_nodeISt4pairIKmmELb0EEEE8allocateEmPKv
   fun:_ZNSt16allocator_traitsISaINSt8__detail10_Hash_nodeISt4pairIKmmELb0EEEEE8allocateERS6_m
   fun:_ZNSt8__detail16_Hashtable_allocISaINS_10_Hash_nodeISt4pairIKmmELb0EEEEE16_M_allocate_nodeIJRKSt21piecewise_construct_tSt5tupleIJOmEESC_IJEEEEEPS5_DpOT_
   fun:_ZNSt8__detail9_Map_baseImSt4pairIKmmESaIS3_ENS_10_Select1stESt8equal_toImESt4hashImENS_18_Mod_range_hashingENS_20_Default_ranged_hashENS_20_Prime_rehash_policyENS_17_Hashtable_traitsILb0ELb0ELb1EEELb1EEixEOm
   fun:_ZNSt13unordered_mapImmSt4hashImESt8equal_toImESaISt4pairIKmmEEEixEOm
   fun:_ZN5Xbyak13MmapAllocator5allocEm
   fun:_ZN5Xbyak9CodeArrayC1EmPvPNS_9AllocatorE
   fun:_ZN5Xbyak13CodeGeneratorC1EmPvPNS_9AllocatorE
   fun:_ZN6mkldnn4impl3cpu13jit_generatorC1EPvm
   fun:_ZN6mkldnn4impl3cpu25jit_avx2_f32_copy_bn_kernC1Ev
   fun:_ZZN6mkldnn4impl3cpu11gemm_info_tIfffE8jit_initEvENKUlvE_clEv
}
{
   <tensorflow_full>
   Memcheck:Leak
   match-leak-kinds: reachable
   fun:_Znwm
   fun:_ZN9__gnu_cxx13new_allocatorINSt8__detail10_Hash_nodeISt4pairIKmmELb0EEEE8allocateEmPKv
   fun:_ZNSt16allocator_traitsISaINSt8__detail10_Hash_nodeISt4pairIKmmELb0EEEEE8allocateERS6_m
   fun:_ZNSt8__detail16_Hashtable_allocISaINS_10_Hash_nodeISt4pairIKmmELb0EEEEE16_M_allocate_nodeIJRKSt21piecewise_construct_tSt5tupleIJOmEESC_IJEEEEEPS5_DpOT_
   fun:_ZNSt8__detail9_Map_baseImSt4pairIKmmESaIS3_ENS_10_Select1stESt8equal_toImESt4hashImENS_18_Mod_range_hashingENS_20_Default_ranged_hashENS_20_Prime_rehash_policyENS_17_Hashtable_traitsILb0ELb0ELb1EEELb1EEixEOm
   fun:_ZNSt13unordered_mapImmSt4hashImESt8equal_toImESaISt4pairIKmmEEEixEOm
   fun:_ZN5Xbyak13MmapAllocator5allocEm
   fun:_ZN5Xbyak9CodeArrayC1EmPvPNS_9AllocatorE
   fun:_ZN5Xbyak13CodeGeneratorC1EmPvPNS_9AllocatorE
   fun:_ZN6mkldnn4impl3cpu13jit_generatorC1EPvm
   fun:_ZN6mkldnn4impl3cpu25jit_avx2_f32_copy_bt_kernC1Ev
   fun:_ZZN6mkldnn4impl3cpu11gemm_info_tIfffE8jit_initEvENKUlvE_clEv
}
{
   <tensorflow_full>
   Memcheck:Leak
   match-leak-kinds: indirect
   fun:_Znwm
   fun:_ZN10tensorflow11LocalDevice19EigenThreadPoolInfoC1ERKNS_14SessionOptionsEiPNS_9AllocatorE
   fun:_ZN10tensorflow11LocalDeviceC1ERKNS_14SessionOptionsERKNS_16DeviceAttributesE
   fun:_ZN10tensorflow16ThreadPoolDeviceC1ERKNS_14SessionOptionsERKNSt7__cxx1112basic_stringIcSt11char_traitsIcESaIcEEENS_3gtl7IntTypeINS_10Bytes_tag_ExEERKNS_14DeviceLocalityEPNS_9AllocatorE
   fun:_ZSt11make_uniqueIN10tensorflow16ThreadPoolDeviceEJRKNS0_14SessionOptionsERNSt7__cxx1112basic_stringIcSt11char_traitsIcESaIcEEENS0_3gtl7IntTypeINS0_10Bytes_tag_ExEENS0_14DeviceLocalityEPNS0_9AllocatorEEENSt9_MakeUniqIT_E15__single_objectEDpOT0_
   fun:_ZN10tensorflow23ThreadPoolDeviceFactory13CreateDevicesERKNS_14SessionOptionsERKNSt7__cxx1112basic_stringIcSt11char_traitsIcESaIcEEEPSt6vectorISt10unique_ptrINS_6DeviceESt14default_deleteISE_EESaISH_EE
   fun:_ZN10tensorflow13DeviceFactory10AddDevicesERKNS_14SessionOptionsERKNSt7__cxx1112basic_stringIcSt11char_traitsIcESaIcEEEPSt6vectorISt10unique_ptrINS_6DeviceESt14default_deleteISE_EESaISH_EE
   fun:_ZN10tensorflow20DirectSessionFactory10NewSessionERKNS_14SessionOptionsEPPNS_7SessionE
   fun:_ZN10tensorflow10NewSessionERKNS_14SessionOptionsEPPNS_7SessionE
   fun:_ZN12TFModelState4initEPKc
   fun:DS_CreateModel
   fun:main
}
{
   <tensorflow_full>
   Memcheck:Leak
   match-leak-kinds: indirect
   fun:_Znwm
   fun:_ZN10tensorflow6thread10ThreadPoolC1EPNS_3EnvERKNS_13ThreadOptionsERKNSt7__cxx1112basic_stringIcSt11char_traitsIcESaIcEEEibPN5Eigen9AllocatorE
   fun:_ZN10tensorflow11LocalDevice19EigenThreadPoolInfoC1ERKNS_14SessionOptionsEiPNS_9AllocatorE
   fun:_ZN10tensorflow11LocalDeviceC1ERKNS_14SessionOptionsERKNS_16DeviceAttributesE
   fun:_ZN10tensorflow16ThreadPoolDeviceC1ERKNS_14SessionOptionsERKNSt7__cxx1112basic_stringIcSt11char_traitsIcESaIcEEENS_3gtl7IntTypeINS_10Bytes_tag_ExEERKNS_14DeviceLocalityEPNS_9AllocatorE
   fun:_ZSt11make_uniqueIN10tensorflow16ThreadPoolDeviceEJRKNS0_14SessionOptionsERNSt7__cxx1112basic_stringIcSt11char_traitsIcESaIcEEENS0_3gtl7IntTypeINS0_10Bytes_tag_ExEENS0_14DeviceLocalityEPNS0_9AllocatorEEENSt9_MakeUniqIT_E15__single_objectEDpOT0_
   fun:_ZN10tensorflow23ThreadPoolDeviceFactory13CreateDevicesERKNS_14SessionOptionsERKNSt7__cxx1112basic_stringIcSt11char_traitsIcESaIcEEEPSt6vectorISt10unique_ptrINS_6DeviceESt14default_deleteISE_EESaISH_EE
   fun:_ZN10tensorflow13DeviceFactory10AddDevicesERKNS_14SessionOptionsERKNSt7__cxx1112basic_stringIcSt11char_traitsIcESaIcEEEPSt6vectorISt10unique_ptrINS_6DeviceESt14default_deleteISE_EESaISH_EE
   fun:_ZN10tensorflow20DirectSessionFactory10NewSessionERKNS_14SessionOptionsEPPNS_7SessionE
   fun:_ZN10tensorflow10NewSessionERKNS_14SessionOptionsEPPNS_7SessionE
   fun:_ZN12TFModelState4initEPKc
   fun:DS_CreateModel
}
{
   <tensorflow_full>
   Memcheck:Leak
   match-leak-kinds: reachable
   fun:_Znwm
   fun:_ZNSt7__cxx1112basic_stringIcSt11char_traitsIcESaIcEE12_M_constructIPcEEvT_S7_St20forward_iterator_tag
   fun:_ZN10tensorflow12_GLOBAL__N_116RegistrationInfoC1ERKNSt7__cxx1112basic_stringIcSt11char_traitsIcESaIcEEESt8functionIFPNS_33CollectiveImplementationInterfaceEvEE
   fun:_ZN9__gnu_cxx13new_allocatorIN10tensorflow12_GLOBAL__N_116RegistrationInfoEE9constructIS3_JRKNSt7__cxx1112basic_stringIcSt11char_traitsIcESaIcEEESt8functionIFPNS1_33CollectiveImplementationInterfaceEvEEEEEvPT_DpOT0_
   fun:_ZNSt16allocator_traitsISaIN10tensorflow12_GLOBAL__N_116RegistrationInfoEEE9constructIS2_JRKNSt7__cxx1112basic_stringIcSt11char_traitsIcESaIcEEESt8functionIFPNS0_33CollectiveImplementationInterfaceEvEEEEEvRS3_PT_DpOT0_
   fun:_ZNSt6vectorIN10tensorflow12_GLOBAL__N_116RegistrationInfoESaIS2_EE17_M_realloc_insertIJRKNSt7__cxx1112basic_stringIcSt11char_traitsIcESaIcEEESt8functionIFPNS0_33CollectiveImplementationInterfaceEvEEEEEvN9__gnu_cxx17__normal_iteratorIPS2_S4_EEDpOT_
   fun:_ZNSt6vectorIN10tensorflow12_GLOBAL__N_116RegistrationInfoESaIS2_EE12emplace_backIJRKNSt7__cxx1112basic_stringIcSt11char_traitsIcESaIcEEESt8functionIFPNS0_33CollectiveImplementationInterfaceEvEEEEEvDpOT_
   fun:_ZN10tensorflow18CollectiveRegistry8RegisterERKNSt7__cxx1112basic_stringIcSt11char_traitsIcESaIcEEESt8functionIFPNS_33CollectiveImplementationInterfaceEvEE
   fun:_ZN10tensorflow22CollectiveRegistrationC1ERKNSt7__cxx1112basic_stringIcSt11char_traitsIcESaIcEEESt8functionIFPNS_33CollectiveImplementationInterfaceEvEE
   fun:_Z41__static_initialization_and_destruction_0ii
}
{
   <tensorflow_full>
   Memcheck:Leak
   match-leak-kinds: reachable
   fun:_Znwm
   fun:_ZNSt7__cxx1112basic_stringIcSt11char_traitsIcESaIcEE12_M_constructIPcEEvT_S7_St20forward_iterator_tag
   fun:_ZN10tensorflow10monitoring17AbstractMetricDefC1ERKS1_
   fun:_ZN10tensorflow10monitoring9MetricDefILNS0_10MetricKindE1ExLi0EEC1ERKS3_
   fun:_ZN10tensorflow10monitoring7CounterILi0EEC1ERKNS0_9MetricDefILNS0_10MetricKindE1ExLi0EEE
   fun:_ZN10tensorflow10monitoring7CounterILi0EE3NewIJRA28_KcRA85_S4_EEEPS2_DpOT_
   fun:_Z41__static_initialization_and_destruction_0ii
}
{
   <tensorflow_full>
   Memcheck:Leak
   match-leak-kinds: reachable
   fun:_Znwm
   fun:_ZNSt7__cxx1112basic_stringIcSt11char_traitsIcESaIcEE12_M_constructIPcEEvT_S7_St20forward_iterator_tag
   fun:_ZN10tensorflow10monitoring17AbstractMetricDefC1ERKS1_
   fun:_ZN10tensorflow10monitoring9MetricDefILNS0_10MetricKindE1ExLi1EEC1ERKS3_
   fun:_ZN10tensorflow10monitoring7CounterILi1EEC1ERKNS0_9MetricDefILNS0_10MetricKindE1ExLi1EEE
   fun:_ZN10tensorflow10monitoring7CounterILi1EE3NewIJRA28_KcRA53_S4_RA5_S4_EEEPS2_DpOT_
   fun:_Z41__static_initialization_and_destruction_0ii
}
{
   <tensorflow_full>
   Memcheck:Leak
   match-leak-kinds: reachable
   fun:_Znwm
   fun:_ZNSt7__cxx1112basic_stringIcSt11char_traitsIcESaIcEE9_M_assignERKS4_
   fun:_ZNSt7__cxx1112basic_stringIcSt11char_traitsIcESaIcEEaSERKS4_
   fun:_ZN10tensorflow21GraphOptimizationPass8set_nameERKNSt7__cxx1112basic_stringIcSt11char_traitsIcESaIcEEE
   fun:_ZN10tensorflow25optimization_registration28OptimizationPassRegistrationC1ENS_24OptimizationPassRegistry8GroupingEiSt10unique_ptrINS_21GraphOptimizationPassESt14default_deleteIS5_EENSt7__cxx1112basic_stringIcSt11char_traitsIcESaIcEEE
   fun:_Z41__static_initialization_and_destruction_0ii
}
{
   <tensorflow_full>
   Memcheck:Leak
   match-leak-kinds: reachable
   fun:_Znwm
   fun:_ZNSt7__cxx1112basic_stringIcSt11char_traitsIcESaIcEE9_M_assignERKS4_
   fun:_ZNSt7__cxx1112basic_stringIcSt11char_traitsIcESaIcEEaSERKS4_
   fun:_ZN10tensorflow21GraphOptimizationPass8set_nameERKNSt7__cxx1112basic_stringIcSt11char_traitsIcESaIcEEE
   fun:_ZN10tensorflow25optimization_registration28OptimizationPassRegistrationC1ENS_24OptimizationPassRegistry8GroupingEiSt10unique_ptrINS_21GraphOptimizationPassESt14default_deleteIS5_EENSt7__cxx1112basic_stringIcSt11char_traitsIcESaIcEEE
   fun:_Z41__static_initialization_and_destruction_0ii
}
{
   <tensorflow_full>
   Memcheck:Leak
   match-leak-kinds: reachable
   fun:_Znwm
   fun:_ZNSt7__cxx1112basic_stringIcSt11char_traitsIcESaIcEE9_M_assignERKS4_
   fun:_ZNSt7__cxx1112basic_stringIcSt11char_traitsIcESaIcEEaSERKS4_
   fun:_ZN10tensorflow21GraphOptimizationPass8set_nameERKNSt7__cxx1112basic_stringIcSt11char_traitsIcESaIcEEE
   fun:_ZN10tensorflow25optimization_registration28OptimizationPassRegistrationC1ENS_24OptimizationPassRegistry8GroupingEiSt10unique_ptrINS_21GraphOptimizationPassESt14default_deleteIS5_EENSt7__cxx1112basic_stringIcSt11char_traitsIcESaIcEEE
   fun:_Z41__static_initialization_and_destruction_0ii
}
{
   <tensorflow_full>
   Memcheck:Leak
   match-leak-kinds: reachable
   fun:_Znwm
   fun:_ZNSt7__cxx1112basic_stringIcSt11char_traitsIcESaIcEE12_M_constructIPcEEvT_S7_St20forward_iterator_tag
   fun:_ZN10tensorflow10monitoring17AbstractMetricDefC1ERKS1_
   fun:_ZN10tensorflow10monitoring9MetricDefILNS0_10MetricKindE0EbLi0EEC1ERKS3_
   fun:_ZN10tensorflow10monitoring5GaugeIbLi0EEC1ERKNS0_9MetricDefILNS0_10MetricKindE0EbLi0EEE
   fun:_ZN10tensorflow10monitoring5GaugeIbLi0EE3NewIJRA33_KcRA31_S4_EEEPS2_DpOT_
   fun:_Z41__static_initialization_and_destruction_0ii
}
{
   <tensorflow_full>
   Memcheck:Leak
   match-leak-kinds: reachable
   fun:_Znwm
   fun:_ZNSt7__cxx1112basic_stringIcSt11char_traitsIcESaIcEE12_M_constructIPcEEvT_S7_St20forward_iterator_tag
   fun:_ZN10tensorflow10monitoring17AbstractMetricDefC1ERKS1_
   fun:_ZN10tensorflow10monitoring9MetricDefILNS0_10MetricKindE1ExLi0EEC1ERKS3_
   fun:_ZN10tensorflow10monitoring7CounterILi0EEC1ERKNS0_9MetricDefILNS0_10MetricKindE1ExLi0EEE
   fun:_ZN10tensorflow10monitoring7CounterILi0EE3NewIJRA31_KcRA59_S4_EEEPS2_DpOT_
   fun:_Z41__static_initialization_and_destruction_0ii
}
{
   <tensorflow_full>
   Memcheck:Leak
   match-leak-kinds: reachable
   fun:_Znwm
   fun:_ZNSt7__cxx1112basic_stringIcSt11char_traitsIcESaIcEE12_M_constructIPcEEvT_S7_St20forward_iterator_tag
   fun:_ZN10tensorflow10monitoring17AbstractMetricDefC1ERKS1_
   fun:_ZN10tensorflow10monitoring9MetricDefILNS0_10MetricKindE1ExLi0EEC1ERKS3_
   fun:_ZN10tensorflow10monitoring7CounterILi0EEC1ERKNS0_9MetricDefILNS0_10MetricKindE1ExLi0EEE
   fun:_ZN10tensorflow10monitoring7CounterILi0EE3NewIJRA31_KcRA67_S4_EEEPS2_DpOT_
   fun:_Z41__static_initialization_and_destruction_0ii
}
{
   <tensorflow_full>
   Memcheck:Leak
   match-leak-kinds: reachable
   fun:_Znwm
   fun:_ZNSt7__cxx1112basic_stringIcSt11char_traitsIcESaIcEE9_M_assignERKS4_
   fun:_ZNSt7__cxx1112basic_stringIcSt11char_traitsIcESaIcEEaSERKS4_
   fun:_ZN10tensorflow24AllocatorFactoryRegistry8RegisterEPKciRKNSt7__cxx1112basic_stringIcSt11char_traitsIcESaIcEEEiPNS_16AllocatorFactoryE
   fun:_ZN10tensorflow28AllocatorFactoryRegistrationC1EPKciRKNSt7__cxx1112basic_stringIcSt11char_traitsIcESaIcEEEiPNS_16AllocatorFactoryE
   fun:_Z41__static_initialization_and_destruction_0ii
}
{
   <tensorflow_full>
   Memcheck:Leak
   match-leak-kinds: reachable
   fun:_Znwm
   fun:_ZNSt7__cxx1112basic_stringIcSt11char_traitsIcESaIcEE9_M_assignERKS4_
   fun:_ZNSt7__cxx1112basic_stringIcSt11char_traitsIcESaIcEE6assignERKS4_
   fun:_ZN10tensorflow19AttrValue_ListValue5add_sERKNSt7__cxx1112basic_stringIcSt11char_traitsIcESaIcEEE
   fun:_ZN10tensorflow12_GLOBAL__N_112FinalizeAttrEN4absl14lts_2020_02_2511string_viewEPNS_5OpDefEPSt6vectorINSt7__cxx1112basic_stringIcSt11char_traitsIcESaIcEEESaISC_EE
   fun:_ZNK10tensorflow12OpDefBuilder8FinalizeEPNS_18OpRegistrationDataE
   fun:_ZZN10tensorflow11register_op20OpDefBuilderReceiverC4ERKNS0_19OpDefBuilderWrapperILb1EEEENKUlPNS_18OpRegistrationDataEE_clES7_
   fun:_ZNSt17_Function_handlerIFN10tensorflow6StatusEPNS0_18OpRegistrationDataEEZNS0_11register_op20OpDefBuilderReceiverC4ERKNS5_19OpDefBuilderWrapperILb1EEEEUlS3_E_E9_M_invokeERKSt9_Any_dataOS3_
   fun:_ZNKSt8functionIFN10tensorflow6StatusEPNS0_18OpRegistrationDataEEEclES3_
   fun:_ZNK10tensorflow10OpRegistry21RegisterAlreadyLockedERKSt8functionIFNS_6StatusEPNS_18OpRegistrationDataEEE
   fun:_ZNK10tensorflow10OpRegistry16MustCallDeferredEv
   fun:_ZNK10tensorflow10OpRegistry10LookUpSlowERKNSt7__cxx1112basic_stringIcSt11char_traitsIcESaIcEEE
}
{
   <tensorflow_full>
   Memcheck:Leak
   match-leak-kinds: reachable
   fun:_Znwm
   fun:_ZNSt7__cxx1112basic_stringIcSt11char_traitsIcESaIcEE9_M_mutateEmmPKcm
   fun:_ZNSt7__cxx1112basic_stringIcSt11char_traitsIcESaIcEE14_M_replace_auxEmmmc
   fun:_ZN4absl14lts_2020_02_2516strings_internal25ResizeUninitializedTraitsINSt7__cxx1112basic_stringIcSt11char_traitsIcESaIcEEEvE6ResizeEPS8_m
   fun:_ZN4absl14lts_2020_02_2516strings_internal28STLStringResizeUninitializedINSt7__cxx1112basic_stringIcSt11char_traitsIcESaIcEEEvEEvPT_m
   fun:_ZN4absl14lts_2020_02_2512_GLOBAL__N_117CUnescapeInternalENS0_11string_viewEbPNSt7__cxx1112basic_stringIcSt11char_traitsIcESaIcEEES9_
   fun:_ZN4absl14lts_2020_02_259CUnescapeENS0_11string_viewEPNSt7__cxx1112basic_stringIcSt11char_traitsIcESaIcEEES8_
   fun:_ZN10tensorflow7strings34ProtoParseStringLiteralFromScannerEPNS0_7ScannerEPNSt7__cxx1112basic_stringIcSt11char_traitsIcESaIcEEE
   fun:_ZN10tensorflow8internal21ProtoParseFromScannerEPNS_7strings7ScannerEbbPNS_9AttrValueE
   fun:_ZN10tensorflow20ProtoParseFromStringERKNSt7__cxx1112basic_stringIcSt11char_traitsIcESaIcEEEPNS_9AttrValueE
   fun:_ZN10tensorflow14ParseAttrValueEN4absl14lts_2020_02_2511string_viewES2_PNS_9AttrValueE
   fun:_ZN10tensorflow12_GLOBAL__N_112FinalizeAttrEN4absl14lts_2020_02_2511string_viewEPNS_5OpDefEPSt6vectorINSt7__cxx1112basic_stringIcSt11char_traitsIcESaIcEEESaISC_EE
}
{
   <tensorflow_full>
   Memcheck:Leak
   match-leak-kinds: reachable
   fun:_Znwm
   fun:_ZNSt7__cxx1112basic_stringIcSt11char_traitsIcESaIcEE9_M_mutateEmmPKcm
   fun:_ZNSt7__cxx1112basic_stringIcSt11char_traitsIcESaIcEE14_M_replace_auxEmmmc
   fun:_ZN6google8protobuf6StrCatB5cxx11ERKNS0_7strings8AlphaNumES4_S4_
   fun:_ZN6google8protobuf17DescriptorBuilder18AllocateNameStringERKNSt7__cxx1112basic_stringIcSt11char_traitsIcESaIcEEES9_
   fun:_ZN6google8protobuf17DescriptorBuilder12BuildMessageERKNS0_15DescriptorProtoEPKNS0_10DescriptorEPS5_
   fun:_ZN6google8protobuf17DescriptorBuilder13BuildFileImplERKNS0_19FileDescriptorProtoE
   fun:_ZN6google8protobuf17DescriptorBuilder9BuildFileERKNS0_19FileDescriptorProtoE
   fun:_ZNK6google8protobuf14DescriptorPool21BuildFileFromDatabaseERKNS0_19FileDescriptorProtoE
   fun:_ZNK6google8protobuf14DescriptorPool29TryFindFileInFallbackDatabaseERKNSt7__cxx1112basic_stringIcSt11char_traitsIcESaIcEEE
   fun:_ZNK6google8protobuf14DescriptorPool14FindFileByNameERKNSt7__cxx1112basic_stringIcSt11char_traitsIcESaIcEEE
   fun:_ZN6google8protobuf12_GLOBAL__N_121AssignDescriptorsImplEPKNS0_8internal15DescriptorTableE
}
{
   <tensorflow_full>
   Memcheck:Leak
   match-leak-kinds: reachable
   fun:_Znwm
   fun:_ZNSt7__cxx1112basic_stringIcSt11char_traitsIcESaIcEE9_M_mutateEmmPKcm
   fun:_ZNSt7__cxx1112basic_stringIcSt11char_traitsIcESaIcEE14_M_replace_auxEmmmc
   fun:_ZN6google8protobuf28STLStringResizeUninitializedEPNSt7__cxx1112basic_stringIcSt11char_traitsIcESaIcEEEm
   fun:InternalReadStringInline
   fun:ReadBytesToString
   fun:_ZN6google8protobuf8internal14WireFormatLite9ReadBytesEPNS0_2io16CodedInputStreamEPNSt7__cxx1112basic_stringIcSt11char_traitsIcESaIcEEE
   fun:_ZN6google8protobuf8internal14WireFormatLite10ReadStringEPNS0_2io16CodedInputStreamEPNSt7__cxx1112basic_stringIcSt11char_traitsIcESaIcEEE
   fun:_ZN6google8protobuf11FileOptions27MergePartialFromCodedStreamEPNS0_2io16CodedInputStreamE
   fun:_ZN6google8protobuf8internal30InlineMergePartialEntireStreamEPNS0_2io16CodedInputStreamEPNS0_11MessageLiteEb
   fun:_ZN6google8protobuf8internal20MergePartialFromImplILb0EEEbNS0_11StringPieceEPNS0_11MessageLiteE
   fun:_ZN6google8protobuf11MessageLite9ParseFromILNS1_10ParseFlagsE1ENSt7__cxx1112basic_stringIcSt11char_traitsIcESaIcEEEEEbRKT0_
   fun:_ZN6google8protobuf11MessageLite15ParseFromStringERKNSt7__cxx1112basic_stringIcSt11char_traitsIcESaIcEEE
   fun:_ZN6google8protobuf17DescriptorBuilder19AllocateOptionsImplINS0_14FileDescriptorEEEvRKNSt7__cxx1112basic_stringIcSt11char_traitsIcESaIcEEESB_RKNT_11OptionsTypeEPSC_RKSt6vectorIiSaIiEE
}
{
   <tensorflow_full>
   Memcheck:Leak
   match-leak-kinds: reachable
   fun:_Znwm
   fun:_ZN9__gnu_cxx13new_allocatorISt10unique_ptrIN10tensorflow21GraphOptimizationPassESt14default_deleteIS3_EEE8allocateEmPKv
   fun:_ZNSt16allocator_traitsISaISt10unique_ptrIN10tensorflow21GraphOptimizationPassESt14default_deleteIS2_EEEE8allocateERS6_m
   fun:_ZNSt12_Vector_baseISt10unique_ptrIN10tensorflow21GraphOptimizationPassESt14default_deleteIS2_EESaIS5_EE11_M_allocateEm
   fun:_ZNSt6vectorISt10unique_ptrIN10tensorflow21GraphOptimizationPassESt14default_deleteIS2_EESaIS5_EE17_M_realloc_insertIJS5_EEEvN9__gnu_cxx17__normal_iteratorIPS5_S7_EEDpOT_
   fun:_ZNSt6vectorISt10unique_ptrIN10tensorflow21GraphOptimizationPassESt14default_deleteIS2_EESaIS5_EE12emplace_backIJS5_EEEvDpOT_
   fun:_ZNSt6vectorISt10unique_ptrIN10tensorflow21GraphOptimizationPassESt14default_deleteIS2_EESaIS5_EE9push_backEOS5_
   fun:_ZN10tensorflow24OptimizationPassRegistry8RegisterENS0_8GroupingEiSt10unique_ptrINS_21GraphOptimizationPassESt14default_deleteIS3_EE
   fun:_ZN10tensorflow25optimization_registration28OptimizationPassRegistrationC1ENS_24OptimizationPassRegistry8GroupingEiSt10unique_ptrINS_21GraphOptimizationPassESt14default_deleteIS5_EENSt7__cxx1112basic_stringIcSt11char_traitsIcESaIcEEE
   fun:_Z41__static_initialization_and_destruction_0ii
   fun:_GLOBAL__sub_I_parallel_concat_optimizer.cc
}
{
   <tensorflow_full>
   Memcheck:Leak
   match-leak-kinds: reachable
   fun:_Znwm
   fun:_Z41__static_initialization_and_destruction_0ii
}
{
   <tensorflow_full>
   Memcheck:Leak
   match-leak-kinds: reachable
   fun:_Znwm
   fun:_Z41__static_initialization_and_destruction_0ii
}
{
   <tensorflow_full>
   Memcheck:Leak
   match-leak-kinds: reachable
   fun:_Znwm
   fun:_ZNSt14_Function_base13_Base_managerIZN10tensorflow35variant_op_registry_fn_registration30UnaryVariantDecodeRegistrationINS1_4data12_GLOBAL__N_128WrappedDatasetVariantWrapperEEC4ERKNSt7__cxx1112basic_stringIcSt11char_traitsIcESaIcEEEEUlPNS1_7VariantEE_E8_M_cloneERSt9_Any_dataRKSK_St17integral_constantIbLb0EE
   fun:_ZNSt14_Function_base13_Base_managerIZN10tensorflow35variant_op_registry_fn_registration30UnaryVariantDecodeRegistrationINS1_4data12_GLOBAL__N_128WrappedDatasetVariantWrapperEEC4ERKNSt7__cxx1112basic_stringIcSt11char_traitsIcESaIcEEEEUlPNS1_7VariantEE_E10_M_managerERSt9_Any_dataRKSK_St18_Manager_operation
   fun:_ZNSt8functionIFbPN10tensorflow7VariantEEEC1ERKS4_
   fun:_ZN10tensorflow3gtl7FlatMapIN4absl14lts_2020_02_2511string_viewESt8functionIFbPNS_7VariantEEENS_4hashIS4_vEESt8equal_toIS4_EE6Bucket7InitValIRKS9_EEvjOT_
   fun:_ZN10tensorflow3gtl7FlatMapIN4absl14lts_2020_02_2511string_viewESt8functionIFbPNS_7VariantEEENS_4hashIS4_vEESt8equal_toIS4_EE6InsertIRKS4_RKS9_EESt4pairINSE_8iteratorEbEOT_OT0_
   fun:_ZN10tensorflow3gtl7FlatMapIN4absl14lts_2020_02_2511string_viewESt8functionIFbPNS_7VariantEEENS_4hashIS4_vEESt8equal_toIS4_EE6insertISt4pairIS4_S9_EEESG_INSE_8iteratorEbERKT_
   fun:_ZN10tensorflow22UnaryVariantOpRegistry16RegisterDecodeFnERKNSt7__cxx1112basic_stringIcSt11char_traitsIcESaIcEEERKSt8functionIFbPNS_7VariantEEE
   fun:_ZN10tensorflow35variant_op_registry_fn_registration30UnaryVariantDecodeRegistrationINS_4data12_GLOBAL__N_128WrappedDatasetVariantWrapperEEC1ERKNSt7__cxx1112basic_stringIcSt11char_traitsIcESaIcEEE
   fun:_Z41__static_initialization_and_destruction_0ii
   fun:_GLOBAL__sub_I_dataset.cc
}
{
   <tensorflow_full>
   Memcheck:Leak
   match-leak-kinds: reachable
   fun:_Znwm
   fun:_ZN9__gnu_cxx13new_allocatorINSt7__cxx1112basic_stringIcSt11char_traitsIcESaIcEEEE8allocateEmPKv
   fun:_ZNSt16allocator_traitsISaINSt7__cxx1112basic_stringIcSt11char_traitsIcESaIcEEEEE8allocateERS6_m
   fun:_ZNSt12_Vector_baseINSt7__cxx1112basic_stringIcSt11char_traitsIcESaIcEEESaIS5_EE11_M_allocateEm
   fun:_ZNSt12_Vector_baseINSt7__cxx1112basic_stringIcSt11char_traitsIcESaIcEEESaIS5_EE17_M_create_storageEm
   fun:_ZNSt12_Vector_baseINSt7__cxx1112basic_stringIcSt11char_traitsIcESaIcEEESaIS5_EEC1EmRKS6_
   fun:_ZNSt6vectorINSt7__cxx1112basic_stringIcSt11char_traitsIcESaIcEEESaIS5_EEC1ERKS7_
   fun:_ZN10tensorflow10monitoring17AbstractMetricDefC1ERKS1_
   fun:_ZN10tensorflow10monitoring9MetricDefILNS0_10MetricKindE1ExLi1EEC1ERKS3_
   fun:_ZN10tensorflow10monitoring7CounterILi1EEC1ERKNS0_9MetricDefILNS0_10MetricKindE1ExLi1EEE
   fun:_ZN10tensorflow10monitoring7CounterILi1EE3NewIJRA38_KcRA54_S4_RA5_S4_EEEPS2_DpOT_
   fun:_Z41__static_initialization_and_destruction_0ii
}
{
   <tensorflow_full>
   Memcheck:Leak
   match-leak-kinds: reachable
   fun:_Znwm
   fun:_ZN9__gnu_cxx13new_allocatorINSt7__cxx1112basic_stringIcSt11char_traitsIcESaIcEEEE8allocateEmPKv
   fun:_ZNSt16allocator_traitsISaINSt7__cxx1112basic_stringIcSt11char_traitsIcESaIcEEEEE8allocateERS6_m
   fun:_ZNSt12_Vector_baseINSt7__cxx1112basic_stringIcSt11char_traitsIcESaIcEEESaIS5_EE11_M_allocateEm
   fun:_ZNSt12_Vector_baseINSt7__cxx1112basic_stringIcSt11char_traitsIcESaIcEEESaIS5_EE17_M_create_storageEm
   fun:_ZNSt12_Vector_baseINSt7__cxx1112basic_stringIcSt11char_traitsIcESaIcEEESaIS5_EEC1EmRKS6_
   fun:_ZNSt6vectorINSt7__cxx1112basic_stringIcSt11char_traitsIcESaIcEEESaIS5_EEC1ERKS7_
   fun:_ZN10tensorflow10monitoring17AbstractMetricDefC1ERKS1_
   fun:_ZN10tensorflow10monitoring9MetricDefILNS0_10MetricKindE1ExLi1EEC1ERKS3_
   fun:_ZN10tensorflow10monitoring7CounterILi1EEC1ERKNS0_9MetricDefILNS0_10MetricKindE1ExLi1EEE
   fun:_ZN10tensorflow10monitoring7CounterILi1EE3NewIJRA26_KcRA19_S4_RA5_S4_EEEPS2_DpOT_
   fun:_Z41__static_initialization_and_destruction_0ii
}
{
   <tensorflow_full>
   Memcheck:Leak
   match-leak-kinds: reachable
   fun:_Znwm
   fun:_ZNSt7__cxx1112basic_stringIcSt11char_traitsIcESaIcEE12_M_constructIPcEEvT_S7_St20forward_iterator_tag
   fun:_ZN10tensorflow10monitoring17AbstractMetricDefC1ERKS1_
   fun:_ZN10tensorflow10monitoring9MetricDefILNS0_10MetricKindE1ExLi1EEC1ERKS3_
   fun:_ZN10tensorflow10monitoring7CounterILi1EEC1ERKNS0_9MetricDefILNS0_10MetricKindE1ExLi1EEE
   fun:_ZN10tensorflow10monitoring7CounterILi1EE3NewIJRA32_KcRA51_S4_RA5_S4_EEEPS2_DpOT_
   fun:_Z41__static_initialization_and_destruction_0ii
}
{
   <tensorflow_full>
   Memcheck:Leak
   match-leak-kinds: reachable
   fun:_Znwm
   fun:_ZN9__gnu_cxx13new_allocatorINSt7__cxx1112basic_stringIcSt11char_traitsIcESaIcEEEE8allocateEmPKv
   fun:_ZNSt16allocator_traitsISaINSt7__cxx1112basic_stringIcSt11char_traitsIcESaIcEEEEE8allocateERS6_m
   fun:_ZNSt12_Vector_baseINSt7__cxx1112basic_stringIcSt11char_traitsIcESaIcEEESaIS5_EE11_M_allocateEm
   fun:_ZNSt12_Vector_baseINSt7__cxx1112basic_stringIcSt11char_traitsIcESaIcEEESaIS5_EE17_M_create_storageEm
   fun:_ZNSt12_Vector_baseINSt7__cxx1112basic_stringIcSt11char_traitsIcESaIcEEESaIS5_EEC1EmRKS6_
   fun:_ZNSt6vectorINSt7__cxx1112basic_stringIcSt11char_traitsIcESaIcEEESaIS5_EEC1ERKS7_
   fun:_ZN10tensorflow10monitoring17AbstractMetricDefC1ERKS1_
   fun:_ZN10tensorflow10monitoring9MetricDefILNS0_10MetricKindE1ExLi1EEC1ERKS3_
   fun:_ZN10tensorflow10monitoring7CounterILi1EEC1ERKNS0_9MetricDefILNS0_10MetricKindE1ExLi1EEE
   fun:_ZN10tensorflow10monitoring7CounterILi1EE3NewIJRA32_KcRA51_S4_RA5_S4_EEEPS2_DpOT_
   fun:_Z41__static_initialization_and_destruction_0ii
}
{
   <tensorflow_full>
   Memcheck:Leak
   match-leak-kinds: reachable
   fun:_Znwm
   fun:_ZN9__gnu_cxx13new_allocatorINSt7__cxx1112basic_stringIcSt11char_traitsIcESaIcEEEE8allocateEmPKv
   fun:_ZNSt16allocator_traitsISaINSt7__cxx1112basic_stringIcSt11char_traitsIcESaIcEEEEE8allocateERS6_m
   fun:_ZNSt12_Vector_baseINSt7__cxx1112basic_stringIcSt11char_traitsIcESaIcEEESaIS5_EE11_M_allocateEm
   fun:_ZNSt12_Vector_baseINSt7__cxx1112basic_stringIcSt11char_traitsIcESaIcEEESaIS5_EE17_M_create_storageEm
   fun:_ZNSt12_Vector_baseINSt7__cxx1112basic_stringIcSt11char_traitsIcESaIcEEESaIS5_EEC1EmRKS6_
   fun:_ZNSt6vectorINSt7__cxx1112basic_stringIcSt11char_traitsIcESaIcEEESaIS5_EEC1ERKS7_
   fun:_ZN10tensorflow10monitoring17AbstractMetricDefC1ERKS1_
   fun:_ZN10tensorflow10monitoring9MetricDefILNS0_10MetricKindE1ExLi1EEC1ERKS3_
   fun:_ZN10tensorflow10monitoring7CounterILi1EEC1ERKNS0_9MetricDefILNS0_10MetricKindE1ExLi1EEE
   fun:_ZN10tensorflow10monitoring7CounterILi1EE3NewIJRA28_KcRA53_S4_RA5_S4_EEEPS2_DpOT_
   fun:_Z41__static_initialization_and_destruction_0ii
}
{
   <tensorflow_full>
   Memcheck:Leak
   match-leak-kinds: reachable
   fun:_Znwm
   fun:_ZN9__gnu_cxx13new_allocatorINSt7__cxx1112basic_stringIcSt11char_traitsIcESaIcEEEE8allocateEmPKv
   fun:_ZNSt16allocator_traitsISaINSt7__cxx1112basic_stringIcSt11char_traitsIcESaIcEEEEE8allocateERS6_m
   fun:_ZNSt12_Vector_baseINSt7__cxx1112basic_stringIcSt11char_traitsIcESaIcEEESaIS5_EE11_M_allocateEm
   fun:_ZNSt12_Vector_baseINSt7__cxx1112basic_stringIcSt11char_traitsIcESaIcEEESaIS5_EE17_M_create_storageEm
   fun:_ZNSt12_Vector_baseINSt7__cxx1112basic_stringIcSt11char_traitsIcESaIcEEESaIS5_EEC1EmRKS6_
   fun:_ZNSt6vectorINSt7__cxx1112basic_stringIcSt11char_traitsIcESaIcEEESaIS5_EEC1ERKS7_
   fun:_ZN10tensorflow10monitoring17AbstractMetricDefC1ERKS1_
   fun:_ZN10tensorflow10monitoring9MetricDefILNS0_10MetricKindE1ExLi1EEC1ERKS3_
   fun:_ZN10tensorflow10monitoring7CounterILi1EEC1ERKNS0_9MetricDefILNS0_10MetricKindE1ExLi1EEE
   fun:_ZN10tensorflow10monitoring7CounterILi1EE3NewIJRA26_KcRA17_S4_RA5_S4_EEEPS2_DpOT_
   fun:_Z41__static_initialization_and_destruction_0ii
}
{
   <tensorflow_full>
   Memcheck:Leak
   match-leak-kinds: reachable
   fun:_Znwm
   fun:_ZN9__gnu_cxx13new_allocatorINSt7__cxx1112basic_stringIcSt11char_traitsIcESaIcEEEE8allocateEmPKv
   fun:_ZNSt16allocator_traitsISaINSt7__cxx1112basic_stringIcSt11char_traitsIcESaIcEEEEE8allocateERS6_m
   fun:_ZNSt12_Vector_baseINSt7__cxx1112basic_stringIcSt11char_traitsIcESaIcEEESaIS5_EE11_M_allocateEm
   fun:_ZNSt12_Vector_baseINSt7__cxx1112basic_stringIcSt11char_traitsIcESaIcEEESaIS5_EE17_M_create_storageEm
   fun:_ZNSt12_Vector_baseINSt7__cxx1112basic_stringIcSt11char_traitsIcESaIcEEESaIS5_EEC1EmRKS6_
   fun:_ZNSt6vectorINSt7__cxx1112basic_stringIcSt11char_traitsIcESaIcEEESaIS5_EEC1ERKS7_
   fun:_ZN10tensorflow10monitoring17AbstractMetricDefC1ERKS1_
   fun:_ZN10tensorflow10monitoring9MetricDefILNS0_10MetricKindE1ExLi1EEC1ERKS3_
   fun:_ZN10tensorflow10monitoring7CounterILi1EEC1ERKNS0_9MetricDefILNS0_10MetricKindE1ExLi1EEE
   fun:_ZN10tensorflow10monitoring7CounterILi1EE3NewIJRA29_KcRA20_S4_RA5_S4_EEEPS2_DpOT_
   fun:_Z41__static_initialization_and_destruction_0ii
}
{
   <tensorflow_full>
   Memcheck:Leak
   match-leak-kinds: reachable
   fun:_Znwm
   fun:_ZN9__gnu_cxx13new_allocatorINSt7__cxx1112basic_stringIcSt11char_traitsIcESaIcEEEE8allocateEmPKv
   fun:_ZNSt16allocator_traitsISaINSt7__cxx1112basic_stringIcSt11char_traitsIcESaIcEEEEE8allocateERS6_m
   fun:_ZNSt12_Vector_baseINSt7__cxx1112basic_stringIcSt11char_traitsIcESaIcEEESaIS5_EE11_M_allocateEm
   fun:_ZNSt12_Vector_baseINSt7__cxx1112basic_stringIcSt11char_traitsIcESaIcEEESaIS5_EE17_M_create_storageEm
   fun:_ZNSt12_Vector_baseINSt7__cxx1112basic_stringIcSt11char_traitsIcESaIcEEESaIS5_EEC1EmRKS6_
   fun:_ZNSt6vectorINSt7__cxx1112basic_stringIcSt11char_traitsIcESaIcEEESaIS5_EEC1ERKS7_
   fun:_ZN10tensorflow10monitoring17AbstractMetricDefC1ERKS1_
   fun:_ZN10tensorflow10monitoring9MetricDefILNS0_10MetricKindE1ExLi1EEC1ERKS3_
   fun:_ZN10tensorflow10monitoring7CounterILi1EEC1ERKNS0_9MetricDefILNS0_10MetricKindE1ExLi1EEE
   fun:_ZN10tensorflow10monitoring7CounterILi1EE3NewIJRA30_KcRA21_S4_RA5_S4_EEEPS2_DpOT_
   fun:_Z41__static_initialization_and_destruction_0ii
}
{
   <tensorflow_full>
   Memcheck:Leak
   match-leak-kinds: reachable
   fun:_Znwm
   fun:_ZNSt7__cxx1112basic_stringIcSt11char_traitsIcESaIcEE12_M_constructIPcEEvT_S7_St20forward_iterator_tag
   fun:_ZN10tensorflow10monitoring17AbstractMetricDefC1ERKS1_
   fun:_ZN10tensorflow10monitoring9MetricDefILNS0_10MetricKindE1ExLi0EEC1ERKS3_
   fun:_ZN10tensorflow10monitoring7CounterILi0EEC1ERKNS0_9MetricDefILNS0_10MetricKindE1ExLi0EEE
   fun:_ZN10tensorflow10monitoring7CounterILi0EE3NewIJRA32_KcRA68_S4_EEEPS2_DpOT_
   fun:_Z41__static_initialization_and_destruction_0ii
}
{
   <tensorflow_full>
   Memcheck:Leak
   match-leak-kinds: reachable
   fun:_Znwm
   fun:_Z41__static_initialization_and_destruction_0ii
}
{
   <tensorflow_full>
   Memcheck:Leak
   match-leak-kinds: reachable
   fun:_Znwm
   fun:_ZNSt14_Function_base13_Base_managerIZN10tensorflow35variant_op_registry_fn_registration30UnaryVariantDecodeRegistrationINS1_6TensorEEC4ERKNSt7__cxx1112basic_stringIcSt11char_traitsIcESaIcEEEEUlPNS1_7VariantEE_E8_M_cloneERSt9_Any_dataRKSI_St17integral_constantIbLb0EE
   fun:_ZNSt14_Function_base13_Base_managerIZN10tensorflow35variant_op_registry_fn_registration30UnaryVariantDecodeRegistrationINS1_6TensorEEC4ERKNSt7__cxx1112basic_stringIcSt11char_traitsIcESaIcEEEEUlPNS1_7VariantEE_E10_M_managerERSt9_Any_dataRKSI_St18_Manager_operation
   fun:_ZNSt8functionIFbPN10tensorflow7VariantEEEC1ERKS4_
   fun:_ZN10tensorflow3gtl7FlatMapIN4absl14lts_2020_02_2511string_viewESt8functionIFbPNS_7VariantEEENS_4hashIS4_vEESt8equal_toIS4_EE6Bucket7InitValIRKS9_EEvjOT_
   fun:_ZN10tensorflow3gtl7FlatMapIN4absl14lts_2020_02_2511string_viewESt8functionIFbPNS_7VariantEEENS_4hashIS4_vEESt8equal_toIS4_EE6InsertIRKS4_RKS9_EESt4pairINSE_8iteratorEbEOT_OT0_
   fun:_ZN10tensorflow3gtl7FlatMapIN4absl14lts_2020_02_2511string_viewESt8functionIFbPNS_7VariantEEENS_4hashIS4_vEESt8equal_toIS4_EE6insertISt4pairIS4_S9_EEESG_INSE_8iteratorEbERKT_
   fun:_ZN10tensorflow22UnaryVariantOpRegistry16RegisterDecodeFnERKNSt7__cxx1112basic_stringIcSt11char_traitsIcESaIcEEERKSt8functionIFbPNS_7VariantEEE
   fun:_ZN10tensorflow35variant_op_registry_fn_registration30UnaryVariantDecodeRegistrationINS_6TensorEEC1ERKNSt7__cxx1112basic_stringIcSt11char_traitsIcESaIcEEE
   fun:_Z41__static_initialization_and_destruction_0ii
}
{
   <tensorflow_full>
   Memcheck:Leak
   match-leak-kinds: reachable
   fun:_Znwm
   fun:_ZNSt14_Function_base13_Base_managerIZN10tensorflow35variant_op_registry_fn_registration30UnaryVariantDecodeRegistrationIiEC4ERKNSt7__cxx1112basic_stringIcSt11char_traitsIcESaIcEEEEUlPNS1_7VariantEE_E8_M_cloneERSt9_Any_dataRKSH_St17integral_constantIbLb0EE
   fun:_ZNSt14_Function_base13_Base_managerIZN10tensorflow35variant_op_registry_fn_registration30UnaryVariantDecodeRegistrationIiEC4ERKNSt7__cxx1112basic_stringIcSt11char_traitsIcESaIcEEEEUlPNS1_7VariantEE_E10_M_managerERSt9_Any_dataRKSH_St18_Manager_operation
   fun:_ZNSt8functionIFbPN10tensorflow7VariantEEEC1ERKS4_
   fun:_ZN10tensorflow3gtl7FlatMapIN4absl14lts_2020_02_2511string_viewESt8functionIFbPNS_7VariantEEENS_4hashIS4_vEESt8equal_toIS4_EE6Bucket7InitValIRKS9_EEvjOT_
   fun:_ZN10tensorflow3gtl7FlatMapIN4absl14lts_2020_02_2511string_viewESt8functionIFbPNS_7VariantEEENS_4hashIS4_vEESt8equal_toIS4_EE6InsertIRKS4_RKS9_EESt4pairINSE_8iteratorEbEOT_OT0_
   fun:_ZN10tensorflow3gtl7FlatMapIN4absl14lts_2020_02_2511string_viewESt8functionIFbPNS_7VariantEEENS_4hashIS4_vEESt8equal_toIS4_EE6insertISt4pairIS4_S9_EEESG_INSE_8iteratorEbERKT_
   fun:_ZN10tensorflow22UnaryVariantOpRegistry16RegisterDecodeFnERKNSt7__cxx1112basic_stringIcSt11char_traitsIcESaIcEEERKSt8functionIFbPNS_7VariantEEE
   fun:_ZN10tensorflow35variant_op_registry_fn_registration30UnaryVariantDecodeRegistrationIiEC1ERKNSt7__cxx1112basic_stringIcSt11char_traitsIcESaIcEEE
   fun:_Z41__static_initialization_and_destruction_0ii
}
{
   <tensorflow_full>
   Memcheck:Leak
   match-leak-kinds: reachable
   fun:_Znwm
   fun:_ZNSt14_Function_base13_Base_managerIZN10tensorflow35variant_op_registry_fn_registration30UnaryVariantDecodeRegistrationIfEC4ERKNSt7__cxx1112basic_stringIcSt11char_traitsIcESaIcEEEEUlPNS1_7VariantEE_E8_M_cloneERSt9_Any_dataRKSH_St17integral_constantIbLb0EE
   fun:_ZNSt14_Function_base13_Base_managerIZN10tensorflow35variant_op_registry_fn_registration30UnaryVariantDecodeRegistrationIfEC4ERKNSt7__cxx1112basic_stringIcSt11char_traitsIcESaIcEEEEUlPNS1_7VariantEE_E10_M_managerERSt9_Any_dataRKSH_St18_Manager_operation
   fun:_ZNSt8functionIFbPN10tensorflow7VariantEEEC1ERKS4_
   fun:_ZN10tensorflow3gtl7FlatMapIN4absl14lts_2020_02_2511string_viewESt8functionIFbPNS_7VariantEEENS_4hashIS4_vEESt8equal_toIS4_EE6Bucket7InitValIRKS9_EEvjOT_
   fun:_ZN10tensorflow3gtl7FlatMapIN4absl14lts_2020_02_2511string_viewESt8functionIFbPNS_7VariantEEENS_4hashIS4_vEESt8equal_toIS4_EE6InsertIRKS4_RKS9_EESt4pairINSE_8iteratorEbEOT_OT0_
   fun:_ZN10tensorflow3gtl7FlatMapIN4absl14lts_2020_02_2511string_viewESt8functionIFbPNS_7VariantEEENS_4hashIS4_vEESt8equal_toIS4_EE6insertISt4pairIS4_S9_EEESG_INSE_8iteratorEbERKT_
   fun:_ZN10tensorflow22UnaryVariantOpRegistry16RegisterDecodeFnERKNSt7__cxx1112basic_stringIcSt11char_traitsIcESaIcEEERKSt8functionIFbPNS_7VariantEEE
   fun:_ZN10tensorflow35variant_op_registry_fn_registration30UnaryVariantDecodeRegistrationIfEC1ERKNSt7__cxx1112basic_stringIcSt11char_traitsIcESaIcEEE
   fun:_Z41__static_initialization_and_destruction_0ii
   fun:_GLOBAL__sub_I_variant_op_registry.cc
}
{
   <tensorflow_full>
   Memcheck:Leak
   match-leak-kinds: reachable
   fun:_Znwm
   fun:_ZNSt14_Function_base13_Base_managerIZN10tensorflow35variant_op_registry_fn_registration30UnaryVariantDecodeRegistrationIbEC4ERKNSt7__cxx1112basic_stringIcSt11char_traitsIcESaIcEEEEUlPNS1_7VariantEE_E8_M_cloneERSt9_Any_dataRKSH_St17integral_constantIbLb0EE
   fun:_ZNSt14_Function_base13_Base_managerIZN10tensorflow35variant_op_registry_fn_registration30UnaryVariantDecodeRegistrationIbEC4ERKNSt7__cxx1112basic_stringIcSt11char_traitsIcESaIcEEEEUlPNS1_7VariantEE_E10_M_managerERSt9_Any_dataRKSH_St18_Manager_operation
   fun:_ZNSt8functionIFbPN10tensorflow7VariantEEEC1ERKS4_
   fun:_ZN10tensorflow3gtl7FlatMapIN4absl14lts_2020_02_2511string_viewESt8functionIFbPNS_7VariantEEENS_4hashIS4_vEESt8equal_toIS4_EE6Bucket7InitValIRKS9_EEvjOT_
   fun:_ZN10tensorflow3gtl7FlatMapIN4absl14lts_2020_02_2511string_viewESt8functionIFbPNS_7VariantEEENS_4hashIS4_vEESt8equal_toIS4_EE6InsertIRKS4_RKS9_EESt4pairINSE_8iteratorEbEOT_OT0_
   fun:_ZN10tensorflow3gtl7FlatMapIN4absl14lts_2020_02_2511string_viewESt8functionIFbPNS_7VariantEEENS_4hashIS4_vEESt8equal_toIS4_EE6insertISt4pairIS4_S9_EEESG_INSE_8iteratorEbERKT_
   fun:_ZN10tensorflow22UnaryVariantOpRegistry16RegisterDecodeFnERKNSt7__cxx1112basic_stringIcSt11char_traitsIcESaIcEEERKSt8functionIFbPNS_7VariantEEE
   fun:_ZN10tensorflow35variant_op_registry_fn_registration30UnaryVariantDecodeRegistrationIbEC1ERKNSt7__cxx1112basic_stringIcSt11char_traitsIcESaIcEEE
   fun:_Z41__static_initialization_and_destruction_0ii
}
{
   <tensorflow_full>
   Memcheck:Leak
   match-leak-kinds: reachable
   fun:_Znwm
   fun:_ZNSt14_Function_base13_Base_managerIZN10tensorflow35variant_op_registry_fn_registration30UnaryVariantDecodeRegistrationIdEC4ERKNSt7__cxx1112basic_stringIcSt11char_traitsIcESaIcEEEEUlPNS1_7VariantEE_E8_M_cloneERSt9_Any_dataRKSH_St17integral_constantIbLb0EE
   fun:_ZNSt14_Function_base13_Base_managerIZN10tensorflow35variant_op_registry_fn_registration30UnaryVariantDecodeRegistrationIdEC4ERKNSt7__cxx1112basic_stringIcSt11char_traitsIcESaIcEEEEUlPNS1_7VariantEE_E10_M_managerERSt9_Any_dataRKSH_St18_Manager_operation
   fun:_ZNSt8functionIFbPN10tensorflow7VariantEEEC1ERKS4_
   fun:_ZN10tensorflow3gtl7FlatMapIN4absl14lts_2020_02_2511string_viewESt8functionIFbPNS_7VariantEEENS_4hashIS4_vEESt8equal_toIS4_EE6Bucket7InitValIRKS9_EEvjOT_
   fun:_ZN10tensorflow3gtl7FlatMapIN4absl14lts_2020_02_2511string_viewESt8functionIFbPNS_7VariantEEENS_4hashIS4_vEESt8equal_toIS4_EE6InsertIRKS4_RKS9_EESt4pairINSE_8iteratorEbEOT_OT0_
   fun:_ZN10tensorflow3gtl7FlatMapIN4absl14lts_2020_02_2511string_viewESt8functionIFbPNS_7VariantEEENS_4hashIS4_vEESt8equal_toIS4_EE6insertISt4pairIS4_S9_EEESG_INSE_8iteratorEbERKT_
   fun:_ZN10tensorflow22UnaryVariantOpRegistry16RegisterDecodeFnERKNSt7__cxx1112basic_stringIcSt11char_traitsIcESaIcEEERKSt8functionIFbPNS_7VariantEEE
   fun:_ZN10tensorflow35variant_op_registry_fn_registration30UnaryVariantDecodeRegistrationIdEC1ERKNSt7__cxx1112basic_stringIcSt11char_traitsIcESaIcEEE
   fun:_Z41__static_initialization_and_destruction_0ii
   fun:_GLOBAL__sub_I_variant_op_registry.cc
}
{
   <tensorflow_full>
   Memcheck:Leak
   match-leak-kinds: reachable
   fun:_Znwm
   fun:CreateInternal<std::__cxx11::basic_string<char>, const std::__cxx11::basic_string<char, std::char_traits<char>, std::allocator<char> >&>
   fun:DoCreateMaybeMessage<std::__cxx11::basic_string<char>, const std::__cxx11::basic_string<char, std::char_traits<char>, std::allocator<char> >&>
   fun:CreateMaybeMessage<std::__cxx11::basic_string<char>, const std::__cxx11::basic_string<char, std::char_traits<char>, std::allocator<char> >&>
   fun:CreateNoMessage<std::__cxx11::basic_string<char>, const std::__cxx11::basic_string<char, std::char_traits<char>, std::allocator<char> >&>
   fun:Create<std::__cxx11::basic_string<char>, const std::__cxx11::basic_string<char, std::char_traits<char>, std::allocator<char> >&>
   fun:_ZN6google8protobuf8internal14ArenaStringPtr14CreateInstanceEPNS0_5ArenaEPKNSt7__cxx1112basic_stringIcSt11char_traitsIcESaIcEEE
   fun:_ZN6google8protobuf8internal14ArenaStringPtr3SetEPKNSt7__cxx1112basic_stringIcSt11char_traitsIcESaIcEEERS9_PNS0_5ArenaE
   fun:_ZN10tensorflow5OpDef8set_nameERKNSt7__cxx1112basic_stringIcSt11char_traitsIcESaIcEEE
   fun:_ZN10tensorflow5OpDef9MergeFromERKS0_
   fun:_ZN10tensorflow5OpDef8CopyFromERKS0_
   fun:_ZN10tensorflow5OpDefaSERKS0_
   fun:_ZN10tensorflow18OpRegistrationDataaSERKS0_
   fun:_ZNK10tensorflow12OpDefBuilder8FinalizeEPNS_18OpRegistrationDataE
   fun:_ZZ23TF_RegisterOpDefinitionENKUlPN10tensorflow18OpRegistrationDataEE_clES1_
   fun:_ZNSt17_Function_handlerIFN10tensorflow6StatusEPNS0_18OpRegistrationDataEEZ23TF_RegisterOpDefinitionEUlS3_E_E9_M_invokeERKSt9_Any_dataOS3_
   fun:_ZNKSt8functionIFN10tensorflow6StatusEPNS0_18OpRegistrationDataEEEclES3_
}
{
   <tensorflow_full>
   Memcheck:Leak
   match-leak-kinds: reachable
   fun:_Znwm
   fun:CreateInternal<std::__cxx11::basic_string<char>, const std::__cxx11::basic_string<char, std::char_traits<char>, std::allocator<char> >&>
   fun:DoCreateMaybeMessage<std::__cxx11::basic_string<char>, const std::__cxx11::basic_string<char, std::char_traits<char>, std::allocator<char> >&>
   fun:CreateMaybeMessage<std::__cxx11::basic_string<char>, const std::__cxx11::basic_string<char, std::char_traits<char>, std::allocator<char> >&>
   fun:CreateNoMessage<std::__cxx11::basic_string<char>, const std::__cxx11::basic_string<char, std::char_traits<char>, std::allocator<char> >&>
   fun:Create<std::__cxx11::basic_string<char>, const std::__cxx11::basic_string<char, std::char_traits<char>, std::allocator<char> >&>
   fun:_ZN6google8protobuf8internal14ArenaStringPtr14CreateInstanceEPNS0_5ArenaEPKNSt7__cxx1112basic_stringIcSt11char_traitsIcESaIcEEE
   fun:_ZN6google8protobuf8internal14ArenaStringPtr3SetEPKNSt7__cxx1112basic_stringIcSt11char_traitsIcESaIcEEERS9_PNS0_5ArenaE
   fun:_ZN10tensorflow12OpDef_ArgDef8set_nameEPKcm
   fun:_ZN10tensorflow12_GLOBAL__N_121FinalizeInputOrOutputEN4absl14lts_2020_02_2511string_viewEbPNS_5OpDefEPSt6vectorINSt7__cxx1112basic_stringIcSt11char_traitsIcESaIcEEESaISC_EE
   fun:_ZNK10tensorflow12OpDefBuilder8FinalizeEPNS_18OpRegistrationDataE
   fun:_ZZ23TF_RegisterOpDefinitionENKUlPN10tensorflow18OpRegistrationDataEE_clES1_
   fun:_ZNSt17_Function_handlerIFN10tensorflow6StatusEPNS0_18OpRegistrationDataEEZ23TF_RegisterOpDefinitionEUlS3_E_E9_M_invokeERKSt9_Any_dataOS3_
   fun:_ZNKSt8functionIFN10tensorflow6StatusEPNS0_18OpRegistrationDataEEEclES3_
   fun:_ZNK10tensorflow10OpRegistry21RegisterAlreadyLockedERKSt8functionIFNS_6StatusEPNS_18OpRegistrationDataEEE
   fun:_ZNK10tensorflow10OpRegistry16MustCallDeferredEv
   fun:_ZNK10tensorflow10OpRegistry10LookUpSlowERKNSt7__cxx1112basic_stringIcSt11char_traitsIcESaIcEEE
}
{
   <tensorflow_full>
   Memcheck:Leak
   match-leak-kinds: reachable
   fun:_Znwm
   fun:CreateInternal<std::__cxx11::basic_string<char>, const std::__cxx11::basic_string<char, std::char_traits<char>, std::allocator<char> >&>
   fun:DoCreateMaybeMessage<std::__cxx11::basic_string<char>, const std::__cxx11::basic_string<char, std::char_traits<char>, std::allocator<char> >&>
   fun:CreateMaybeMessage<std::__cxx11::basic_string<char>, const std::__cxx11::basic_string<char, std::char_traits<char>, std::allocator<char> >&>
   fun:CreateNoMessage<std::__cxx11::basic_string<char>, const std::__cxx11::basic_string<char, std::char_traits<char>, std::allocator<char> >&>
   fun:Create<std::__cxx11::basic_string<char>, const std::__cxx11::basic_string<char, std::char_traits<char>, std::allocator<char> >&>
   fun:_ZN6google8protobuf8internal14ArenaStringPtr14CreateInstanceEPNS0_5ArenaEPKNSt7__cxx1112basic_stringIcSt11char_traitsIcESaIcEEE
   fun:_ZN6google8protobuf8internal14ArenaStringPtr3SetEPKNSt7__cxx1112basic_stringIcSt11char_traitsIcESaIcEEERS9_PNS0_5ArenaE
   fun:_ZN10tensorflow12OpDef_ArgDef13set_type_attrEPKcm
   fun:_ZN10tensorflow12_GLOBAL__N_121FinalizeInputOrOutputEN4absl14lts_2020_02_2511string_viewEbPNS_5OpDefEPSt6vectorINSt7__cxx1112basic_stringIcSt11char_traitsIcESaIcEEESaISC_EE
   fun:_ZNK10tensorflow12OpDefBuilder8FinalizeEPNS_18OpRegistrationDataE
   fun:_ZZ23TF_RegisterOpDefinitionENKUlPN10tensorflow18OpRegistrationDataEE_clES1_
   fun:_ZNSt17_Function_handlerIFN10tensorflow6StatusEPNS0_18OpRegistrationDataEEZ23TF_RegisterOpDefinitionEUlS3_E_E9_M_invokeERKSt9_Any_dataOS3_
   fun:_ZNKSt8functionIFN10tensorflow6StatusEPNS0_18OpRegistrationDataEEEclES3_
   fun:_ZNK10tensorflow10OpRegistry21RegisterAlreadyLockedERKSt8functionIFNS_6StatusEPNS_18OpRegistrationDataEEE
   fun:_ZNK10tensorflow10OpRegistry16MustCallDeferredEv
   fun:_ZNK10tensorflow10OpRegistry10LookUpSlowERKNSt7__cxx1112basic_stringIcSt11char_traitsIcESaIcEEE
}
{
   <tensorflow_full>
   Memcheck:Leak
   match-leak-kinds: reachable
   fun:_Znwm
   fun:_ZN10tensorflow12_GLOBAL__N_118GetKernelLabelAttrERKNS_9AttrSliceE
   fun:_ZN10tensorflow12_GLOBAL__N_122FindKernelRegistrationERKNS_10DeviceTypeEN4absl14lts_2020_02_2511string_viewEbRKNS_29NodeDef_ExperimentalDebugInfoES6_NS_9AttrSliceEPPKNS_18KernelRegistrationEPb
   fun:_ZN10tensorflow12_GLOBAL__N_122FindKernelRegistrationERKNS_10DeviceTypeERKNS_7NodeDefEPPKNS_18KernelRegistrationEPb
   fun:_ZN10tensorflow27SupportedDeviceTypesForNodeERKSt6vectorINS_10DeviceTypeESaIS1_EERKNS_7NodeDefEPN4absl14lts_2020_02_2513InlinedVectorISt4pairIS1_iELm4ESaISD_EEEPKNS_15DeviceNameUtils10ParsedNameE
   fun:_ZN10tensorflow6Member28SetParentAndSupportedDevicesERKNS_4NodeERKSt6vectorINS_10DeviceTypeESaIS5_EEPKNS_15DeviceNameUtils10ParsedNameE
   fun:_ZN10tensorflow15ColocationGraph16InitializeMemberERKNS_4NodeEPNS_6MemberE
   fun:_ZN10tensorflow15ColocationGraph17InitializeMembersEv
   fun:_ZN10tensorflow15ColocationGraph10InitializeEv
   fun:_ZN10tensorflow6Placer3RunEv
   fun:_ZN10tensorflow19GraphExecutionState13InitBaseGraphEOSt10unique_ptrINS_5GraphESt14default_deleteIS2_EE
   fun:_ZN10tensorflow19GraphExecutionState16MakeForBaseGraphEONS_8GraphDefERKNS_26GraphExecutionStateOptionsEPSt10unique_ptrIS0_St14default_deleteIS0_EE
}
{
   <tensorflow_full>
   Memcheck:Leak
   match-leak-kinds: reachable
   fun:_Znwm
   fun:_ZN9__gnu_cxx13new_allocatorIN6google8protobuf14DescriptorPool6Tables10CheckPointEE8allocateEmPKv
   fun:_ZNSt16allocator_traitsISaIN6google8protobuf14DescriptorPool6Tables10CheckPointEEE8allocateERS5_m
   fun:_ZNSt12_Vector_baseIN6google8protobuf14DescriptorPool6Tables10CheckPointESaIS4_EE11_M_allocateEm
   fun:_ZNSt6vectorIN6google8protobuf14DescriptorPool6Tables10CheckPointESaIS4_EE17_M_realloc_insertIJS4_EEEvN9__gnu_cxx17__normal_iteratorIPS4_S6_EEDpOT_
   fun:_ZNSt6vectorIN6google8protobuf14DescriptorPool6Tables10CheckPointESaIS4_EE12emplace_backIJS4_EEEvDpOT_
   fun:_ZNSt6vectorIN6google8protobuf14DescriptorPool6Tables10CheckPointESaIS4_EE9push_backEOS4_
   fun:_ZN6google8protobuf14DescriptorPool6Tables13AddCheckpointEv
   fun:_ZN6google8protobuf17DescriptorBuilder9BuildFileERKNS0_19FileDescriptorProtoE
   fun:_ZNK6google8protobuf14DescriptorPool21BuildFileFromDatabaseERKNS0_19FileDescriptorProtoE
   fun:_ZNK6google8protobuf14DescriptorPool29TryFindFileInFallbackDatabaseERKNSt7__cxx1112basic_stringIcSt11char_traitsIcESaIcEEE
   fun:_ZNK6google8protobuf14DescriptorPool14FindFileByNameERKNSt7__cxx1112basic_stringIcSt11char_traitsIcESaIcEEE
}
{
   <tensorflow_full>
   Memcheck:Leak
   match-leak-kinds: reachable
   fun:_Znwm
   fun:_ZN6google8protobuf14DescriptorPool6Tables14AllocateStringERKNSt7__cxx1112basic_stringIcSt11char_traitsIcESaIcEEE
   fun:_ZN6google8protobuf17DescriptorBuilder13BuildFileImplERKNS0_19FileDescriptorProtoE
   fun:_ZN6google8protobuf17DescriptorBuilder9BuildFileERKNS0_19FileDescriptorProtoE
   fun:_ZNK6google8protobuf14DescriptorPool21BuildFileFromDatabaseERKNS0_19FileDescriptorProtoE
   fun:_ZNK6google8protobuf14DescriptorPool29TryFindFileInFallbackDatabaseERKNSt7__cxx1112basic_stringIcSt11char_traitsIcESaIcEEE
   fun:_ZNK6google8protobuf14DescriptorPool14FindFileByNameERKNSt7__cxx1112basic_stringIcSt11char_traitsIcESaIcEEE
   fun:_ZN6google8protobuf12_GLOBAL__N_121AssignDescriptorsImplEPKNS0_8internal15DescriptorTableE
   fun:_ZSt13__invoke_implIvRFvPKN6google8protobuf8internal15DescriptorTableEEJRS5_EET_St14__invoke_otherOT0_DpOT1_
   fun:_ZSt8__invokeIRFvPKN6google8protobuf8internal15DescriptorTableEEJRS5_EENSt15__invoke_resultIT_JDpT0_EE4typeEOSA_DpOSB_
   fun:_ZZSt9call_onceIRFvPKN6google8protobuf8internal15DescriptorTableEEJRS5_EEvRSt9once_flagOT_DpOT0_ENKUlvE_clEv
   fun:_ZZSt9call_onceIRFvPKN6google8protobuf8internal15DescriptorTableEEJRS5_EEvRSt9once_flagOT_DpOT0_ENKUlvE0_clEv
}
{
   <tensorflow_full>
   Memcheck:Leak
   match-leak-kinds: reachable
   fun:_Znwm
   fun:_ZN9__gnu_cxx13new_allocatorINSt8__detail10_Hash_nodeISt4pairIKPKcPKN6google8protobuf14FileDescriptorEELb1EEEE8allocateEmPKv
   fun:_ZNSt16allocator_traitsISaINSt8__detail10_Hash_nodeISt4pairIKPKcPKN6google8protobuf14FileDescriptorEELb1EEEEE8allocateERSD_m
   fun:_ZNSt8__detail16_Hashtable_allocISaINS_10_Hash_nodeISt4pairIKPKcPKN6google8protobuf14FileDescriptorEELb1EEEEE16_M_allocate_nodeIJRKSB_EEEPSC_DpOT_
   fun:_ZNKSt8__detail10_AllocNodeISaINS_10_Hash_nodeISt4pairIKPKcPKN6google8protobuf14FileDescriptorEELb1EEEEEclIRKSB_EEPSC_OT_
   fun:_ZNSt10_HashtableIPKcSt4pairIKS1_PKN6google8protobuf14FileDescriptorEESaIS9_ENSt8__detail10_Select1stENS5_5streqENS5_4hashIS1_EENSB_18_Mod_range_hashingENSB_20_Default_ranged_hashENSB_20_Prime_rehash_policyENSB_17_Hashtable_traitsILb1ELb0ELb1EEEE9_M_insertIRKS9_NSB_10_AllocNodeISaINSB_10_Hash_nodeIS9_Lb1EEEEEEEES2_INSB_14_Node_iteratorIS9_Lb0ELb1EEEbEOT_RKT0_St17integral_constantIbLb1EEm
   fun:_ZNSt8__detail12_Insert_baseIPKcSt4pairIKS2_PKN6google8protobuf14FileDescriptorEESaISA_ENS_10_Select1stENS6_5streqENS6_4hashIS2_EENS_18_Mod_range_hashingENS_20_Default_ranged_hashENS_20_Prime_rehash_policyENS_17_Hashtable_traitsILb1ELb0ELb1EEEE6insertERKSA_
   fun:_ZNSt13unordered_mapIPKcPKN6google8protobuf14FileDescriptorENS3_4hashIS1_EENS3_5streqESaISt4pairIKS1_S6_EEE6insertERKSC_
   fun:_ZN6google8protobuf18InsertIfNotPresentISt13unordered_mapIPKcPKNS0_14FileDescriptorENS0_4hashIS4_EENS0_5streqESaISt4pairIKS4_S7_EEEEEbPT_RKNSG_10value_typeE
   fun:_ZN6google8protobuf18InsertIfNotPresentISt13unordered_mapIPKcPKNS0_14FileDescriptorENS0_4hashIS4_EENS0_5streqESaISt4pairIKS4_S7_EEEEEbPT_RKNSG_10value_type10first_typeERKNSI_11second_typeE
   fun:_ZN6google8protobuf14DescriptorPool6Tables7AddFileEPKNS0_14FileDescriptorE
   fun:_ZN6google8protobuf17DescriptorBuilder13BuildFileImplERKNS0_19FileDescriptorProtoE
}
{
   <tensorflow_full>
   Memcheck:Leak
   match-leak-kinds: reachable
   fun:_Znwm
   fun:_ZN6google8protobuf14DescriptorPool6Tables19AllocateEmptyStringB5cxx11Ev
   fun:_ZN6google8protobuf17DescriptorBuilder18AllocateNameStringERKNSt7__cxx1112basic_stringIcSt11char_traitsIcESaIcEEES9_
   fun:_ZN6google8protobuf17DescriptorBuilder12BuildMessageERKNS0_15DescriptorProtoEPKNS0_10DescriptorEPS5_
   fun:_ZN6google8protobuf17DescriptorBuilder13BuildFileImplERKNS0_19FileDescriptorProtoE
   fun:_ZN6google8protobuf17DescriptorBuilder9BuildFileERKNS0_19FileDescriptorProtoE
   fun:_ZNK6google8protobuf14DescriptorPool21BuildFileFromDatabaseERKNS0_19FileDescriptorProtoE
   fun:_ZNK6google8protobuf14DescriptorPool29TryFindFileInFallbackDatabaseERKNSt7__cxx1112basic_stringIcSt11char_traitsIcESaIcEEE
   fun:_ZNK6google8protobuf14DescriptorPool14FindFileByNameERKNSt7__cxx1112basic_stringIcSt11char_traitsIcESaIcEEE
   fun:_ZN6google8protobuf12_GLOBAL__N_121AssignDescriptorsImplEPKNS0_8internal15DescriptorTableE
   fun:_ZSt13__invoke_implIvRFvPKN6google8protobuf8internal15DescriptorTableEEJRS5_EET_St14__invoke_otherOT0_DpOT1_
   fun:_ZSt8__invokeIRFvPKN6google8protobuf8internal15DescriptorTableEEJRS5_EENSt15__invoke_resultIT_JDpT0_EE4typeEOSA_DpOSB_
}
{
   <tensorflow_full>
   Memcheck:Leak
   match-leak-kinds: reachable
   fun:_Znwm
   fun:_ZN6google8protobuf14DescriptorPool6Tables14AllocateStringERKNSt7__cxx1112basic_stringIcSt11char_traitsIcESaIcEEE
   fun:_ZN6google8protobuf17DescriptorBuilder12BuildMessageERKNS0_15DescriptorProtoEPKNS0_10DescriptorEPS5_
   fun:_ZN6google8protobuf17DescriptorBuilder13BuildFileImplERKNS0_19FileDescriptorProtoE
   fun:_ZN6google8protobuf17DescriptorBuilder9BuildFileERKNS0_19FileDescriptorProtoE
   fun:_ZNK6google8protobuf14DescriptorPool21BuildFileFromDatabaseERKNS0_19FileDescriptorProtoE
   fun:_ZNK6google8protobuf14DescriptorPool29TryFindFileInFallbackDatabaseERKNSt7__cxx1112basic_stringIcSt11char_traitsIcESaIcEEE
   fun:_ZNK6google8protobuf14DescriptorPool14FindFileByNameERKNSt7__cxx1112basic_stringIcSt11char_traitsIcESaIcEEE
   fun:_ZN6google8protobuf12_GLOBAL__N_121AssignDescriptorsImplEPKNS0_8internal15DescriptorTableE
   fun:_ZSt13__invoke_implIvRFvPKN6google8protobuf8internal15DescriptorTableEEJRS5_EET_St14__invoke_otherOT0_DpOT1_
   fun:_ZSt8__invokeIRFvPKN6google8protobuf8internal15DescriptorTableEEJRS5_EENSt15__invoke_resultIT_JDpT0_EE4typeEOSA_DpOSB_
   fun:_ZZSt9call_onceIRFvPKN6google8protobuf8internal15DescriptorTableEEJRS5_EEvRSt9once_flagOT_DpOT0_ENKUlvE_clEv
}
{
   <tensorflow_full>
   Memcheck:Leak
   match-leak-kinds: reachable
   fun:_Znwm
   fun:CreateInternal<std::__cxx11::basic_string<char>, const std::__cxx11::basic_string<char, std::char_traits<char>, std::allocator<char> >&>
   fun:DoCreateMaybeMessage<std::__cxx11::basic_string<char>, const std::__cxx11::basic_string<char, std::char_traits<char>, std::allocator<char> >&>
   fun:CreateMaybeMessage<std::__cxx11::basic_string<char>, const std::__cxx11::basic_string<char, std::char_traits<char>, std::allocator<char> >&>
   fun:CreateNoMessage<std::__cxx11::basic_string<char>, const std::__cxx11::basic_string<char, std::char_traits<char>, std::allocator<char> >&>
   fun:Create<std::__cxx11::basic_string<char>, const std::__cxx11::basic_string<char, std::char_traits<char>, std::allocator<char> >&>
   fun:_ZN6google8protobuf8internal14ArenaStringPtr14CreateInstanceEPNS0_5ArenaEPKNSt7__cxx1112basic_stringIcSt11char_traitsIcESaIcEEE
   fun:_ZN6google8protobuf8internal14ArenaStringPtr7MutableEPKNSt7__cxx1112basic_stringIcSt11char_traitsIcESaIcEEEPNS0_5ArenaE
   fun:_ZN6google8protobuf11FileOptions20mutable_java_packageB5cxx11Ev
   fun:_ZN6google8protobuf11FileOptions27MergePartialFromCodedStreamEPNS0_2io16CodedInputStreamE
   fun:_ZN6google8protobuf8internal30InlineMergePartialEntireStreamEPNS0_2io16CodedInputStreamEPNS0_11MessageLiteEb
   fun:_ZN6google8protobuf8internal20MergePartialFromImplILb0EEEbNS0_11StringPieceEPNS0_11MessageLiteE
   fun:_ZN6google8protobuf11MessageLite9ParseFromILNS1_10ParseFlagsE1ENSt7__cxx1112basic_stringIcSt11char_traitsIcESaIcEEEEEbRKT0_
   fun:_ZN6google8protobuf11MessageLite15ParseFromStringERKNSt7__cxx1112basic_stringIcSt11char_traitsIcESaIcEEE
   fun:_ZN6google8protobuf17DescriptorBuilder19AllocateOptionsImplINS0_14FileDescriptorEEEvRKNSt7__cxx1112basic_stringIcSt11char_traitsIcESaIcEEESB_RKNT_11OptionsTypeEPSC_RKSt6vectorIiSaIiEE
   fun:_ZN6google8protobuf17DescriptorBuilder15AllocateOptionsERKNS0_11FileOptionsEPNS0_14FileDescriptorE
   fun:_ZN6google8protobuf17DescriptorBuilder13BuildFileImplERKNS0_19FileDescriptorProtoE
}
{
   <tensorflow_full>
   Memcheck:Leak
   match-leak-kinds: reachable
   fun:_Znwm
   fun:CreateInternal<std::__cxx11::basic_string<char>, const std::__cxx11::basic_string<char, std::char_traits<char>, std::allocator<char> >&>
   fun:DoCreateMaybeMessage<std::__cxx11::basic_string<char>, const std::__cxx11::basic_string<char, std::char_traits<char>, std::allocator<char> >&>
   fun:CreateMaybeMessage<std::__cxx11::basic_string<char>, const std::__cxx11::basic_string<char, std::char_traits<char>, std::allocator<char> >&>
   fun:CreateNoMessage<std::__cxx11::basic_string<char>, const std::__cxx11::basic_string<char, std::char_traits<char>, std::allocator<char> >&>
   fun:Create<std::__cxx11::basic_string<char>, const std::__cxx11::basic_string<char, std::char_traits<char>, std::allocator<char> >&>
   fun:_ZN6google8protobuf8internal14ArenaStringPtr14CreateInstanceEPNS0_5ArenaEPKNSt7__cxx1112basic_stringIcSt11char_traitsIcESaIcEEE
   fun:_ZN6google8protobuf8internal14ArenaStringPtr7MutableEPKNSt7__cxx1112basic_stringIcSt11char_traitsIcESaIcEEEPNS0_5ArenaE
   fun:_ZN6google8protobuf11FileOptions28mutable_java_outer_classnameB5cxx11Ev
   fun:_ZN6google8protobuf11FileOptions27MergePartialFromCodedStreamEPNS0_2io16CodedInputStreamE
   fun:_ZN6google8protobuf8internal30InlineMergePartialEntireStreamEPNS0_2io16CodedInputStreamEPNS0_11MessageLiteEb
   fun:_ZN6google8protobuf8internal20MergePartialFromImplILb0EEEbNS0_11StringPieceEPNS0_11MessageLiteE
   fun:_ZN6google8protobuf11MessageLite9ParseFromILNS1_10ParseFlagsE1ENSt7__cxx1112basic_stringIcSt11char_traitsIcESaIcEEEEEbRKT0_
   fun:_ZN6google8protobuf11MessageLite15ParseFromStringERKNSt7__cxx1112basic_stringIcSt11char_traitsIcESaIcEEE
   fun:_ZN6google8protobuf17DescriptorBuilder19AllocateOptionsImplINS0_14FileDescriptorEEEvRKNSt7__cxx1112basic_stringIcSt11char_traitsIcESaIcEEESB_RKNT_11OptionsTypeEPSC_RKSt6vectorIiSaIiEE
   fun:_ZN6google8protobuf17DescriptorBuilder15AllocateOptionsERKNS0_11FileOptionsEPNS0_14FileDescriptorE
   fun:_ZN6google8protobuf17DescriptorBuilder13BuildFileImplERKNS0_19FileDescriptorProtoE
}
{
   <tensorflow_full>
   Memcheck:Leak
   match-leak-kinds: reachable
   fun:_Znwm
   fun:CreateInternal<std::__cxx11::basic_string<char>, const std::__cxx11::basic_string<char, std::char_traits<char>, std::allocator<char> >&>
   fun:DoCreateMaybeMessage<std::__cxx11::basic_string<char>, const std::__cxx11::basic_string<char, std::char_traits<char>, std::allocator<char> >&>
   fun:CreateMaybeMessage<std::__cxx11::basic_string<char>, const std::__cxx11::basic_string<char, std::char_traits<char>, std::allocator<char> >&>
   fun:CreateNoMessage<std::__cxx11::basic_string<char>, const std::__cxx11::basic_string<char, std::char_traits<char>, std::allocator<char> >&>
   fun:Create<std::__cxx11::basic_string<char>, const std::__cxx11::basic_string<char, std::char_traits<char>, std::allocator<char> >&>
   fun:_ZN6google8protobuf8internal14ArenaStringPtr14CreateInstanceEPNS0_5ArenaEPKNSt7__cxx1112basic_stringIcSt11char_traitsIcESaIcEEE
   fun:_ZN6google8protobuf8internal14ArenaStringPtr7MutableEPKNSt7__cxx1112basic_stringIcSt11char_traitsIcESaIcEEEPNS0_5ArenaE
   fun:_ZN6google8protobuf11FileOptions18mutable_go_packageB5cxx11Ev
   fun:_ZN6google8protobuf11FileOptions27MergePartialFromCodedStreamEPNS0_2io16CodedInputStreamE
   fun:_ZN6google8protobuf8internal30InlineMergePartialEntireStreamEPNS0_2io16CodedInputStreamEPNS0_11MessageLiteEb
   fun:_ZN6google8protobuf8internal20MergePartialFromImplILb0EEEbNS0_11StringPieceEPNS0_11MessageLiteE
   fun:_ZN6google8protobuf11MessageLite9ParseFromILNS1_10ParseFlagsE1ENSt7__cxx1112basic_stringIcSt11char_traitsIcESaIcEEEEEbRKT0_
   fun:_ZN6google8protobuf11MessageLite15ParseFromStringERKNSt7__cxx1112basic_stringIcSt11char_traitsIcESaIcEEE
   fun:_ZN6google8protobuf17DescriptorBuilder19AllocateOptionsImplINS0_14FileDescriptorEEEvRKNSt7__cxx1112basic_stringIcSt11char_traitsIcESaIcEEESB_RKNT_11OptionsTypeEPSC_RKSt6vectorIiSaIiEE
   fun:_ZN6google8protobuf17DescriptorBuilder15AllocateOptionsERKNS0_11FileOptionsEPNS0_14FileDescriptorE
   fun:_ZN6google8protobuf17DescriptorBuilder13BuildFileImplERKNS0_19FileDescriptorProtoE
}
{
   <tensorflow_full>
   Memcheck:Leak
   match-leak-kinds: reachable
   fun:_Znwm
   fun:_ZN6google8protobuf14DescriptorPool6Tables14AllocateStringERKNSt7__cxx1112basic_stringIcSt11char_traitsIcESaIcEEE
   fun:_ZN6google8protobuf17DescriptorBuilder14CrossLinkFieldEPNS0_15FieldDescriptorERKNS0_20FieldDescriptorProtoE
   fun:_ZN6google8protobuf17DescriptorBuilder16CrossLinkMessageEPNS0_10DescriptorERKNS0_15DescriptorProtoE
   fun:_ZN6google8protobuf17DescriptorBuilder16CrossLinkMessageEPNS0_10DescriptorERKNS0_15DescriptorProtoE
   fun:_ZN6google8protobuf17DescriptorBuilder13CrossLinkFileEPNS0_14FileDescriptorERKNS0_19FileDescriptorProtoE
   fun:_ZN6google8protobuf17DescriptorBuilder13BuildFileImplERKNS0_19FileDescriptorProtoE
   fun:_ZN6google8protobuf17DescriptorBuilder9BuildFileERKNS0_19FileDescriptorProtoE
   fun:_ZNK6google8protobuf14DescriptorPool21BuildFileFromDatabaseERKNS0_19FileDescriptorProtoE
   fun:_ZNK6google8protobuf14DescriptorPool29TryFindFileInFallbackDatabaseERKNSt7__cxx1112basic_stringIcSt11char_traitsIcESaIcEEE
   fun:_ZNK6google8protobuf14DescriptorPool14FindFileByNameERKNSt7__cxx1112basic_stringIcSt11char_traitsIcESaIcEEE
   fun:_ZN6google8protobuf12_GLOBAL__N_121AssignDescriptorsImplEPKNS0_8internal15DescriptorTableE
}
{
   <tensorflow_full>
   Memcheck:Leak
   match-leak-kinds: possible
   fun:malloc
   fun:_ZN5Eigen8internal23handmade_aligned_mallocEmm
   fun:_ZN5Eigen13MaxSizeVectorINS0_IjEEEC1Em
   fun:_ZN5Eigen15ThreadPoolTemplIN10tensorflow6thread16EigenEnvironmentEEC1EibS3_
   fun:_ZN10tensorflow6thread10ThreadPoolC1EPNS_3EnvERKNS_13ThreadOptionsERKNSt7__cxx1112basic_stringIcSt11char_traitsIcESaIcEEEibPN5Eigen9AllocatorE
   fun:_ZN10tensorflow6thread10ThreadPoolC1EPNS_3EnvERKNSt7__cxx1112basic_stringIcSt11char_traitsIcESaIcEEEi
   fun:_ZN10tensorflow12_GLOBAL__N_121GraphRunnerThreadPoolEv
   fun:_ZN10tensorflow12_GLOBAL__N_123SingleThreadedCpuDeviceC1EPNS_3EnvE
   fun:_ZN10tensorflow26NewSingleThreadedCpuDeviceEPNS_3EnvE
   fun:_ZN10tensorflow11GraphRunnerC1EPNS_3EnvE
   fun:_ZN10tensorflow12ShapeRefinerC1EiPKNS_19OpRegistryInterfaceE
   fun:_ZN10tensorflow22ConvertGraphDefToGraphERKNS_23GraphConstructorOptionsERKNS_8GraphDefEPNS_5GraphE
}
{
   <tensorflow_full>
   Memcheck:Leak
   match-leak-kinds: reachable
   fun:_Znwm
   fun:_ZNSt7__cxx1112basic_stringIcSt11char_traitsIcESaIcEE12_M_constructIPcEEvT_S7_St20forward_iterator_tag
   fun:_ZN10tensorflow10monitoring17AbstractMetricDefC1ERKS1_
   fun:_ZN10tensorflow10monitoring9MetricDefILNS0_10MetricKindE1ENS_14HistogramProtoELi0EEC1ERKS4_
   fun:_ZN10tensorflow10monitoring7SamplerILi0EEC1ERKNS0_9MetricDefILNS0_10MetricKindE1ENS_14HistogramProtoELi0EEESt10unique_ptrINS0_7BucketsESt14default_deleteISA_EE
   fun:_ZN10tensorflow10monitoring7SamplerILi0EE3NewERKNS0_9MetricDefILNS0_10MetricKindE1ENS_14HistogramProtoELi0EEESt10unique_ptrINS0_7BucketsESt14default_deleteISA_EE
   fun:_Z41__static_initialization_and_destruction_0ii
}
{
   <tensorflow_full>
   Memcheck:Leak
   match-leak-kinds: reachable
   fun:_Znwm
   fun:_ZNSt7__cxx1112basic_stringIcSt11char_traitsIcESaIcEE12_M_constructIPcEEvT_S7_St20forward_iterator_tag
   fun:_ZN10tensorflow10monitoring17AbstractMetricDefC1ERKS1_
   fun:_ZN10tensorflow10monitoring9MetricDefILNS0_10MetricKindE1ExLi0EEC1ERKS3_
   fun:_ZN10tensorflow10monitoring7CounterILi0EEC1ERKNS0_9MetricDefILNS0_10MetricKindE1ExLi0EEE
   fun:_ZN10tensorflow10monitoring7CounterILi0EE3NewIJRA34_KcRA91_S4_EEEPS2_DpOT_
   fun:_Z41__static_initialization_and_destruction_0ii
}
{
   <tensorflow_full>
   Memcheck:Leak
   match-leak-kinds: reachable
   fun:_Znwm
   fun:_ZNSt7__cxx1112basic_stringIcSt11char_traitsIcESaIcEE12_M_constructIPcEEvT_S7_St20forward_iterator_tag
   fun:_ZN10tensorflow10monitoring17AbstractMetricDefC1ERKS1_
   fun:_ZN10tensorflow10monitoring9MetricDefILNS0_10MetricKindE1ExLi0EEC1ERKS3_
   fun:_ZN10tensorflow10monitoring7CounterILi0EEC1ERKNS0_9MetricDefILNS0_10MetricKindE1ExLi0EEE
   fun:_ZN10tensorflow10monitoring7CounterILi0EE3NewIJRA35_KcRA281_S4_EEEPS2_DpOT_
   fun:_Z41__static_initialization_and_destruction_0ii
}
{
   <tensorflow_full>
   Memcheck:Leak
   match-leak-kinds: reachable
   fun:_Znwm
   fun:_ZNSt7__cxx1112basic_stringIcSt11char_traitsIcESaIcEE12_M_constructIPcEEvT_S7_St20forward_iterator_tag
   fun:_ZN6google8protobuf14DescriptorPool6Tables14AllocateStringERKNSt7__cxx1112basic_stringIcSt11char_traitsIcESaIcEEE
   fun:_ZN6google8protobuf17DescriptorBuilder21BuildFieldOrExtensionERKNS0_20FieldDescriptorProtoEPKNS0_10DescriptorEPNS0_15FieldDescriptorEb
   fun:_ZN6google8protobuf17DescriptorBuilder10BuildFieldERKNS0_20FieldDescriptorProtoEPKNS0_10DescriptorEPNS0_15FieldDescriptorE
   fun:_ZN6google8protobuf17DescriptorBuilder12BuildMessageERKNS0_15DescriptorProtoEPKNS0_10DescriptorEPS5_
   fun:_ZN6google8protobuf17DescriptorBuilder12BuildMessageERKNS0_15DescriptorProtoEPKNS0_10DescriptorEPS5_
   fun:_ZN6google8protobuf17DescriptorBuilder13BuildFileImplERKNS0_19FileDescriptorProtoE
   fun:_ZN6google8protobuf17DescriptorBuilder9BuildFileERKNS0_19FileDescriptorProtoE
   fun:_ZNK6google8protobuf14DescriptorPool21BuildFileFromDatabaseERKNS0_19FileDescriptorProtoE
   fun:_ZNK6google8protobuf14DescriptorPool29TryFindFileInFallbackDatabaseERKNSt7__cxx1112basic_stringIcSt11char_traitsIcESaIcEEE
   fun:_ZNK6google8protobuf14DescriptorPool14FindFileByNameERKNSt7__cxx1112basic_stringIcSt11char_traitsIcESaIcEEE
}
{
   <tensorflow_full>
   Memcheck:Leak
   match-leak-kinds: reachable
   fun:_Znwm
   fun:_ZNSt7__cxx1112basic_stringIcSt11char_traitsIcESaIcEE12_M_constructIPcEEvT_S7_St20forward_iterator_tag
   fun:_ZN10tensorflow10monitoring17AbstractMetricDefC1ERKS1_
   fun:_ZN10tensorflow10monitoring9MetricDefILNS0_10MetricKindE1ExLi0EEC1ERKS3_
   fun:_ZN10tensorflow10monitoring7CounterILi0EEC1ERKNS0_9MetricDefILNS0_10MetricKindE1ExLi0EEE
   fun:_ZN10tensorflow10monitoring7CounterILi0EE3NewIJRA37_KcRA58_S4_EEEPS2_DpOT_
   fun:_Z41__static_initialization_and_destruction_0ii
   fun:_GLOBAL__sub_I_direct_session.cc
}
{
   <tensorflow_full>
   Memcheck:Leak
   match-leak-kinds: reachable
   fun:_Znwm
   fun:_ZNSt7__cxx1112basic_stringIcSt11char_traitsIcESaIcEE12_M_constructIPcEEvT_S7_St20forward_iterator_tag
   fun:_ZN10tensorflow10monitoring17AbstractMetricDefC1ERKS1_
   fun:_ZN10tensorflow10monitoring9MetricDefILNS0_10MetricKindE1ExLi0EEC1ERKS3_
   fun:_ZN10tensorflow10monitoring7CounterILi0EEC1ERKNS0_9MetricDefILNS0_10MetricKindE1ExLi0EEE
   fun:_ZN10tensorflow10monitoring7CounterILi0EE3NewIJRA38_KcRA58_S4_EEEPS2_DpOT_
   fun:_Z41__static_initialization_and_destruction_0ii
   fun:_GLOBAL__sub_I_metrics.cc
}
{
   <tensorflow_full>
   Memcheck:Leak
   match-leak-kinds: reachable
   fun:_Znwm
   fun:_ZNSt7__cxx1112basic_stringIcSt11char_traitsIcESaIcEE12_M_constructIPcEEvT_S7_St20forward_iterator_tag
   fun:_ZN10tensorflow10monitoring17AbstractMetricDefC1ERKS1_
   fun:_ZN10tensorflow10monitoring9MetricDefILNS0_10MetricKindE1ExLi1EEC1ERKS3_
   fun:_ZN10tensorflow10monitoring7CounterILi1EEC1ERKNS0_9MetricDefILNS0_10MetricKindE1ExLi1EEE
   fun:_ZN10tensorflow10monitoring7CounterILi1EE3NewIJRA38_KcRA54_S4_RA5_S4_EEEPS2_DpOT_
   fun:_Z41__static_initialization_and_destruction_0ii
   fun:_GLOBAL__sub_I_metrics.cc
}
{
   <tensorflow_full>
   Memcheck:Leak
   match-leak-kinds: reachable
   fun:_Znwm
   fun:_ZNSt7__cxx1112basic_stringIcSt11char_traitsIcESaIcEE12_M_constructIPcEEvT_S7_St20forward_iterator_tag
   fun:_ZN10tensorflow10monitoring17AbstractMetricDefC1ERKS1_
   fun:_ZN10tensorflow10monitoring9MetricDefILNS0_10MetricKindE1ExLi0EEC1ERKS3_
   fun:_ZN10tensorflow10monitoring7CounterILi0EEC1ERKNS0_9MetricDefILNS0_10MetricKindE1ExLi0EEE
   fun:_ZN10tensorflow10monitoring7CounterILi0EE3NewIJRA38_KcRA67_S4_EEEPS2_DpOT_
   fun:_Z41__static_initialization_and_destruction_0ii
   fun:_GLOBAL__sub_I_metrics.cc
}
{
   <tensorflow_full>
   Memcheck:Leak
   match-leak-kinds: reachable
   fun:_Znwm
   fun:_ZNSt7__cxx1112basic_stringIcSt11char_traitsIcESaIcEE9_M_assignERKS4_
   fun:_ZNSt7__cxx1112basic_stringIcSt11char_traitsIcESaIcEEaSERKS4_
   fun:_ZN10tensorflow21GraphOptimizationPass8set_nameERKNSt7__cxx1112basic_stringIcSt11char_traitsIcESaIcEEE
   fun:_ZN10tensorflow25optimization_registration28OptimizationPassRegistrationC1ENS_24OptimizationPassRegistry8GroupingEiSt10unique_ptrINS_21GraphOptimizationPassESt14default_deleteIS5_EENSt7__cxx1112basic_stringIcSt11char_traitsIcESaIcEEE
   fun:_Z41__static_initialization_and_destruction_0ii
   fun:_GLOBAL__sub_I_isolate_placer_inspection_required_ops_pass.cc
}
{
   <tensorflow_full>
   Memcheck:Leak
   match-leak-kinds: reachable
   fun:_Znwm
   fun:_Z41__static_initialization_and_destruction_0ii
   fun:_GLOBAL__sub_I_accumulate_n_optimizer.cc
}
{
   <tensorflow_full>
   Memcheck:Leak
   match-leak-kinds: reachable
   fun:_Znwm
   fun:_Z41__static_initialization_and_destruction_0ii
   fun:_GLOBAL__sub_I_isolate_placer_inspection_required_ops_pass.cc
}
{
   <tensorflow_full>
   Memcheck:Leak
   match-leak-kinds: reachable
   fun:_Znwm
   fun:_Z41__static_initialization_and_destruction_0ii
   fun:_GLOBAL__sub_I_parallel_concat_optimizer.cc
}
{
   <tensorflow_full>
   Memcheck:Leak
   match-leak-kinds: reachable
   fun:_Znwm
   fun:_ZNSt7__cxx1112basic_stringIcSt11char_traitsIcESaIcEE12_M_constructIPcEEvT_S7_St20forward_iterator_tag
   fun:_ZN9__gnu_cxx13new_allocatorINSt8__detail10_Hash_nodeINSt7__cxx1112basic_stringIcSt11char_traitsIcESaIcEEELb1EEEE9constructIS8_JRKS8_EEEvPT_DpOT0_
   fun:_ZNSt16allocator_traitsISaINSt8__detail10_Hash_nodeINSt7__cxx1112basic_stringIcSt11char_traitsIcESaIcEEELb1EEEEE9constructIS7_JRKS7_EEEvRS9_PT_DpOT0_
   fun:_ZNSt8__detail16_Hashtable_allocISaINS_10_Hash_nodeINSt7__cxx1112basic_stringIcSt11char_traitsIcESaIcEEELb1EEEEE16_M_allocate_nodeIJRKS7_EEEPS8_DpOT_
   fun:_ZNKSt8__detail10_AllocNodeISaINS_10_Hash_nodeINSt7__cxx1112basic_stringIcSt11char_traitsIcESaIcEEELb1EEEEEclIRKS7_EEPS8_OT_
   fun:_ZNSt10_HashtableINSt7__cxx1112basic_stringIcSt11char_traitsIcESaIcEEES5_SaIS5_ENSt8__detail9_IdentityESt8equal_toIS5_ESt4hashIS5_ENS7_18_Mod_range_hashingENS7_20_Default_ranged_hashENS7_20_Prime_rehash_policyENS7_17_Hashtable_traitsILb1ELb1ELb1EEEE9_M_insertIRKS5_NS7_10_AllocNodeISaINS7_10_Hash_nodeIS5_Lb1EEEEEEEESt4pairINS7_14_Node_iteratorIS5_Lb1ELb1EEEbEOT_RKT0_St17integral_constantIbLb1EEm
   fun:_ZNSt8__detail12_Insert_baseINSt7__cxx1112basic_stringIcSt11char_traitsIcESaIcEEES6_SaIS6_ENS_9_IdentityESt8equal_toIS6_ESt4hashIS6_ENS_18_Mod_range_hashingENS_20_Default_ranged_hashENS_20_Prime_rehash_policyENS_17_Hashtable_traitsILb1ELb1ELb1EEEE6insertERKS6_
   fun:_ZNSt13unordered_setINSt7__cxx1112basic_stringIcSt11char_traitsIcESaIcEEESt4hashIS5_ESt8equal_toIS5_ESaIS5_EE6insertERKS5_
   fun:_ZN10tensorflow22UnaryVariantOpRegistry24GetPersistentStringPieceERKNSt7__cxx1112basic_stringIcSt11char_traitsIcESaIcEEE
   fun:_ZN10tensorflow22UnaryVariantOpRegistry16RegisterDecodeFnERKNSt7__cxx1112basic_stringIcSt11char_traitsIcESaIcEEERKSt8functionIFbPNS_7VariantEEE
   fun:_ZN10tensorflow35variant_op_registry_fn_registration30UnaryVariantDecodeRegistrationINS_4data12_GLOBAL__N_128WrappedDatasetVariantWrapperEEC1ERKNSt7__cxx1112basic_stringIcSt11char_traitsIcESaIcEEE
}
{
   <tensorflow_full>
   Memcheck:Leak
   match-leak-kinds: reachable
   fun:_Znwm
   fun:_ZNSt7__cxx1112basic_stringIcSt11char_traitsIcESaIcEE12_M_constructIPcEEvT_S7_St20forward_iterator_tag
   fun:_ZZN10tensorflow35variant_op_registry_fn_registration30UnaryVariantDecodeRegistrationINS_4data12_GLOBAL__N_128WrappedDatasetVariantWrapperEEC4ERKNSt7__cxx1112basic_stringIcSt11char_traitsIcESaIcEEEENUlPNS_7VariantEE_C1ERKSG_
   fun:_ZNSt14_Function_base13_Base_managerIZN10tensorflow35variant_op_registry_fn_registration30UnaryVariantDecodeRegistrationINS1_4data12_GLOBAL__N_128WrappedDatasetVariantWrapperEEC4ERKNSt7__cxx1112basic_stringIcSt11char_traitsIcESaIcEEEEUlPNS1_7VariantEE_E8_M_cloneERSt9_Any_dataRKSK_St17integral_constantIbLb0EE
   fun:_ZNSt14_Function_base13_Base_managerIZN10tensorflow35variant_op_registry_fn_registration30UnaryVariantDecodeRegistrationINS1_4data12_GLOBAL__N_128WrappedDatasetVariantWrapperEEC4ERKNSt7__cxx1112basic_stringIcSt11char_traitsIcESaIcEEEEUlPNS1_7VariantEE_E10_M_managerERSt9_Any_dataRKSK_St18_Manager_operation
   fun:_ZNSt8functionIFbPN10tensorflow7VariantEEEC1ERKS4_
   fun:_ZN10tensorflow3gtl7FlatMapIN4absl14lts_2020_02_2511string_viewESt8functionIFbPNS_7VariantEEENS_4hashIS4_vEESt8equal_toIS4_EE6Bucket7InitValIRKS9_EEvjOT_
   fun:_ZN10tensorflow3gtl7FlatMapIN4absl14lts_2020_02_2511string_viewESt8functionIFbPNS_7VariantEEENS_4hashIS4_vEESt8equal_toIS4_EE6InsertIRKS4_RKS9_EESt4pairINSE_8iteratorEbEOT_OT0_
   fun:_ZN10tensorflow3gtl7FlatMapIN4absl14lts_2020_02_2511string_viewESt8functionIFbPNS_7VariantEEENS_4hashIS4_vEESt8equal_toIS4_EE6insertISt4pairIS4_S9_EEESG_INSE_8iteratorEbERKT_
   fun:_ZN10tensorflow22UnaryVariantOpRegistry16RegisterDecodeFnERKNSt7__cxx1112basic_stringIcSt11char_traitsIcESaIcEEERKSt8functionIFbPNS_7VariantEEE
   fun:_ZN10tensorflow35variant_op_registry_fn_registration30UnaryVariantDecodeRegistrationINS_4data12_GLOBAL__N_128WrappedDatasetVariantWrapperEEC1ERKNSt7__cxx1112basic_stringIcSt11char_traitsIcESaIcEEE
   fun:_Z41__static_initialization_and_destruction_0ii
}
{
   <tensorflow_full>
   Memcheck:Leak
   match-leak-kinds: reachable
   fun:_Znwm
   fun:_ZN10tensorflow10monitoring7Buckets11ExponentialEddi
   fun:_Z41__static_initialization_and_destruction_0ii
   fun:_GLOBAL__sub_I_metrics.cc
}
{
   <tensorflow_full>
   Memcheck:Leak
   match-leak-kinds: reachable
   fun:_Znwm
   fun:_ZNSt7__cxx1112basic_stringIcSt11char_traitsIcESaIcEE12_M_constructIPcEEvT_S7_St20forward_iterator_tag
   fun:_ZN10tensorflow10monitoring17AbstractMetricDefC1ERKS1_
   fun:_ZN10tensorflow10monitoring9MetricDefILNS0_10MetricKindE1ExLi0EEC1ERKS3_
   fun:_ZN10tensorflow10monitoring7CounterILi0EEC1ERKNS0_9MetricDefILNS0_10MetricKindE1ExLi0EEE
   fun:_ZN10tensorflow10monitoring7CounterILi0EE3NewIJRA40_KcRA302_S4_EEEPS2_DpOT_
   fun:_Z41__static_initialization_and_destruction_0ii
   fun:_GLOBAL__sub_I_metrics.cc
}
{
   <tensorflow_full>
   Memcheck:Leak
   match-leak-kinds: reachable
   fun:_Znwm
   fun:_ZN9__gnu_cxx13new_allocatorISt13_Rb_tree_nodeISt4pairIKSt5arrayINSt7__cxx1112basic_stringIcSt11char_traitsIcESaIcEEELm0EEN10tensorflow10monitoring9GaugeCellIbEEEEE8allocateEmPKv
   fun:_ZNSt16allocator_traitsISaISt13_Rb_tree_nodeISt4pairIKSt5arrayINSt7__cxx1112basic_stringIcSt11char_traitsIcESaIcEEELm0EEN10tensorflow10monitoring9GaugeCellIbEEEEEE8allocateERSH_m
   fun:_ZNSt8_Rb_treeISt5arrayINSt7__cxx1112basic_stringIcSt11char_traitsIcESaIcEEELm0EESt4pairIKS7_N10tensorflow10monitoring9GaugeCellIbEEESt10_Select1stISE_ESt4lessIS7_ESaISE_EE11_M_get_nodeEv
   fun:_ZNSt8_Rb_treeISt5arrayINSt7__cxx1112basic_stringIcSt11char_traitsIcESaIcEEELm0EESt4pairIKS7_N10tensorflow10monitoring9GaugeCellIbEEESt10_Select1stISE_ESt4lessIS7_ESaISE_EE14_M_create_nodeIJRKSt21piecewise_construct_tSt5tupleIJRS9_EESP_IJObEEEEEPSt13_Rb_tree_nodeISE_EDpOT_
   fun:_ZNSt8_Rb_treeISt5arrayINSt7__cxx1112basic_stringIcSt11char_traitsIcESaIcEEELm0EESt4pairIKS7_N10tensorflow10monitoring9GaugeCellIbEEESt10_Select1stISE_ESt4lessIS7_ESaISE_EE17_M_emplace_uniqueIJRKSt21piecewise_construct_tSt5tupleIJRS9_EESP_IJObEEEEES8_ISt17_Rb_tree_iteratorISE_EbEDpOT_
   fun:_ZNSt3mapISt5arrayINSt7__cxx1112basic_stringIcSt11char_traitsIcESaIcEEELm0EEN10tensorflow10monitoring9GaugeCellIbEESt4lessIS7_ESaISt4pairIKS7_SB_EEE7emplaceIJRKSt21piecewise_construct_tSt5tupleIJRSF_EESN_IJObEEEEESE_ISt17_Rb_tree_iteratorISG_EbEDpOT_
   fun:_ZN10tensorflow10monitoring5GaugeIbLi0EE7GetCellIJEEEPNS0_9GaugeCellIbEEDpRKT_
   fun:_ZN10tensorflow10NewSessionERKNS_14SessionOptionsEPPNS_7SessionE
   fun:_ZN12TFModelState4initEPKc
   fun:DS_CreateModel
   fun:main
}
{
   <tensorflow_full>
   Memcheck:Leak
   match-leak-kinds: reachable
   fun:_Znwm
   fun:_ZN6google8protobuf8internal20RepeatedPtrFieldBase14InternalExtendEi
   fun:_ZN6google8protobuf8internal20RepeatedPtrFieldBase7ReserveEi
   fun:_ZN6google8protobuf8internal20RepeatedPtrFieldBase3AddINS0_16RepeatedPtrFieldIN10tensorflow13OpDef_AttrDefEE11TypeHandlerEEEPNT_4TypeESB_
   fun:_ZN6google8protobuf16RepeatedPtrFieldIN10tensorflow13OpDef_AttrDefEE3AddEv
   fun:_ZN10tensorflow5OpDef8add_attrEv
   fun:_ZN10tensorflow12_GLOBAL__N_112FinalizeAttrEN4absl14lts_2020_02_2511string_viewEPNS_5OpDefEPSt6vectorINSt7__cxx1112basic_stringIcSt11char_traitsIcESaIcEEESaISC_EE
   fun:_ZNK10tensorflow12OpDefBuilder8FinalizeEPNS_18OpRegistrationDataE
   fun:_ZZ23TF_RegisterOpDefinitionENKUlPN10tensorflow18OpRegistrationDataEE_clES1_
   fun:_ZNSt17_Function_handlerIFN10tensorflow6StatusEPNS0_18OpRegistrationDataEEZ23TF_RegisterOpDefinitionEUlS3_E_E9_M_invokeERKSt9_Any_dataOS3_
   fun:_ZNKSt8functionIFN10tensorflow6StatusEPNS0_18OpRegistrationDataEEEclES3_
   fun:_ZNK10tensorflow10OpRegistry21RegisterAlreadyLockedERKSt8functionIFNS_6StatusEPNS_18OpRegistrationDataEEE
}
{
   <tensorflow_full>
   Memcheck:Leak
   match-leak-kinds: reachable
   fun:_Znwm
   fun:_ZN6google8protobuf8internal20RepeatedPtrFieldBase14InternalExtendEi
   fun:_ZN6google8protobuf8internal20RepeatedPtrFieldBase7ReserveEi
   fun:_ZN6google8protobuf8internal20RepeatedPtrFieldBase3AddINS0_16RepeatedPtrFieldIN10tensorflow12OpDef_ArgDefEE11TypeHandlerEEEPNT_4TypeESB_
   fun:_ZN6google8protobuf16RepeatedPtrFieldIN10tensorflow12OpDef_ArgDefEE3AddEv
   fun:_ZN10tensorflow5OpDef13add_input_argEv
   fun:_ZN10tensorflow12_GLOBAL__N_121FinalizeInputOrOutputEN4absl14lts_2020_02_2511string_viewEbPNS_5OpDefEPSt6vectorINSt7__cxx1112basic_stringIcSt11char_traitsIcESaIcEEESaISC_EE
   fun:_ZNK10tensorflow12OpDefBuilder8FinalizeEPNS_18OpRegistrationDataE
   fun:_ZZ23TF_RegisterOpDefinitionENKUlPN10tensorflow18OpRegistrationDataEE_clES1_
   fun:_ZNSt17_Function_handlerIFN10tensorflow6StatusEPNS0_18OpRegistrationDataEEZ23TF_RegisterOpDefinitionEUlS3_E_E9_M_invokeERKSt9_Any_dataOS3_
   fun:_ZNKSt8functionIFN10tensorflow6StatusEPNS0_18OpRegistrationDataEEEclES3_
   fun:_ZNK10tensorflow10OpRegistry21RegisterAlreadyLockedERKSt8functionIFNS_6StatusEPNS_18OpRegistrationDataEEE
}
{
   <tensorflow_full>
   Memcheck:Leak
   match-leak-kinds: reachable
   fun:_Znwm
   fun:_ZN6google8protobuf8internal20RepeatedPtrFieldBase14InternalExtendEi
   fun:_ZN6google8protobuf8internal20RepeatedPtrFieldBase7ReserveEi
   fun:_ZN6google8protobuf8internal20RepeatedPtrFieldBase3AddINS0_16RepeatedPtrFieldIN10tensorflow12OpDef_ArgDefEE11TypeHandlerEEEPNT_4TypeESB_
   fun:_ZN6google8protobuf16RepeatedPtrFieldIN10tensorflow12OpDef_ArgDefEE3AddEv
   fun:_ZN10tensorflow5OpDef14add_output_argEv
   fun:_ZN10tensorflow12_GLOBAL__N_121FinalizeInputOrOutputEN4absl14lts_2020_02_2511string_viewEbPNS_5OpDefEPSt6vectorINSt7__cxx1112basic_stringIcSt11char_traitsIcESaIcEEESaISC_EE
   fun:_ZNK10tensorflow12OpDefBuilder8FinalizeEPNS_18OpRegistrationDataE
   fun:_ZZ23TF_RegisterOpDefinitionENKUlPN10tensorflow18OpRegistrationDataEE_clES1_
   fun:_ZNSt17_Function_handlerIFN10tensorflow6StatusEPNS0_18OpRegistrationDataEEZ23TF_RegisterOpDefinitionEUlS3_E_E9_M_invokeERKSt9_Any_dataOS3_
   fun:_ZNKSt8functionIFN10tensorflow6StatusEPNS0_18OpRegistrationDataEEEclES3_
   fun:_ZNK10tensorflow10OpRegistry21RegisterAlreadyLockedERKSt8functionIFNS_6StatusEPNS_18OpRegistrationDataEEE
}
{
   <tensorflow_full>
   Memcheck:Leak
   match-leak-kinds: reachable
   fun:_Znwm
   fun:_ZNSt14_Function_base13_Base_managerIZN10tensorflow6thread16EigenEnvironment12CreateThreadESt8functionIFvvEEEUlvE_E8_M_cloneERSt9_Any_dataRKS9_St17integral_constantIbLb0EE
   fun:_ZNSt14_Function_base13_Base_managerIZN10tensorflow6thread16EigenEnvironment12CreateThreadESt8functionIFvvEEEUlvE_E10_M_managerERSt9_Any_dataRKS9_St18_Manager_operation
   fun:_ZNSt8functionIFvvEEC1ERKS1_
   fun:_ZN10tensorflow12_GLOBAL__N_18PosixEnv11StartThreadERKNS_13ThreadOptionsERKNSt7__cxx1112basic_stringIcSt11char_traitsIcESaIcEEESt8functionIFvvEE
   fun:_ZN10tensorflow6thread16EigenEnvironment12CreateThreadESt8functionIFvvEE
   fun:_ZN5Eigen15ThreadPoolTemplIN10tensorflow6thread16EigenEnvironmentEEC1EibS3_
   fun:_ZN10tensorflow6thread10ThreadPoolC1EPNS_3EnvERKNS_13ThreadOptionsERKNSt7__cxx1112basic_stringIcSt11char_traitsIcESaIcEEEibPN5Eigen9AllocatorE
   fun:_ZN10tensorflow6thread10ThreadPoolC1EPNS_3EnvERKNSt7__cxx1112basic_stringIcSt11char_traitsIcESaIcEEEi
   fun:_ZN10tensorflow12_GLOBAL__N_121GraphRunnerThreadPoolEv
   fun:_ZN10tensorflow12_GLOBAL__N_123SingleThreadedCpuDeviceC1EPNS_3EnvE
   fun:_ZN10tensorflow26NewSingleThreadedCpuDeviceEPNS_3EnvE
}
{
   <tensorflow_full>
   Memcheck:Leak
   match-leak-kinds: reachable
   fun:_Znwm
   fun:_ZN6google8protobuf14DescriptorPoolC1EPNS0_18DescriptorDatabaseEPNS1_14ErrorCollectorE
   fun:_ZN6google8protobuf12_GLOBAL__N_116NewGeneratedPoolEv
   fun:_ZN6google8protobuf14DescriptorPool23internal_generated_poolEv
   fun:_ZN6google8protobuf12_GLOBAL__N_121AssignDescriptorsImplEPKNS0_8internal15DescriptorTableE
   fun:_ZSt13__invoke_implIvRFvPKN6google8protobuf8internal15DescriptorTableEEJRS5_EET_St14__invoke_otherOT0_DpOT1_
   fun:_ZSt8__invokeIRFvPKN6google8protobuf8internal15DescriptorTableEEJRS5_EENSt15__invoke_resultIT_JDpT0_EE4typeEOSA_DpOSB_
   fun:_ZZSt9call_onceIRFvPKN6google8protobuf8internal15DescriptorTableEEJRS5_EEvRSt9once_flagOT_DpOT0_ENKUlvE_clEv
   fun:_ZZSt9call_onceIRFvPKN6google8protobuf8internal15DescriptorTableEEJRS5_EEvRSt9once_flagOT_DpOT0_ENKUlvE0_clEv
   fun:_ZZSt9call_onceIRFvPKN6google8protobuf8internal15DescriptorTableEEJRS5_EEvRSt9once_flagOT_DpOT0_ENUlvE0_4_FUNEv
   fun:__pthread_once_slow
   fun:_ZL14__gthread_oncePiPFvvE
}
{
   <tensorflow_full>
   Memcheck:Leak
   match-leak-kinds: reachable
   fun:_Znwm
   fun:_ZN9__gnu_cxx13new_allocatorINSt8__detail10_Hash_nodeISt4pairIKPKcN6google8protobuf6SymbolEELb1EEEE8allocateEmPKv
   fun:_ZNSt16allocator_traitsISaINSt8__detail10_Hash_nodeISt4pairIKPKcN6google8protobuf6SymbolEELb1EEEEE8allocateERSB_m
   fun:_ZNSt8__detail16_Hashtable_allocISaINS_10_Hash_nodeISt4pairIKPKcN6google8protobuf6SymbolEELb1EEEEE16_M_allocate_nodeIJRKS9_EEEPSA_DpOT_
   fun:_ZNKSt8__detail10_AllocNodeISaINS_10_Hash_nodeISt4pairIKPKcN6google8protobuf6SymbolEELb1EEEEEclIRKS9_EEPSA_OT_
   fun:_ZNSt10_HashtableIPKcSt4pairIKS1_N6google8protobuf6SymbolEESaIS7_ENSt8__detail10_Select1stENS5_5streqENS5_4hashIS1_EENS9_18_Mod_range_hashingENS9_20_Default_ranged_hashENS9_20_Prime_rehash_policyENS9_17_Hashtable_traitsILb1ELb0ELb1EEEE9_M_insertIRKS7_NS9_10_AllocNodeISaINS9_10_Hash_nodeIS7_Lb1EEEEEEEES2_INS9_14_Node_iteratorIS7_Lb0ELb1EEEbEOT_RKT0_St17integral_constantIbLb1EEm
   fun:_ZNSt8__detail12_Insert_baseIPKcSt4pairIKS2_N6google8protobuf6SymbolEESaIS8_ENS_10_Select1stENS6_5streqENS6_4hashIS2_EENS_18_Mod_range_hashingENS_20_Default_ranged_hashENS_20_Prime_rehash_policyENS_17_Hashtable_traitsILb1ELb0ELb1EEEE6insertERKS8_
   fun:_ZNSt13unordered_mapIPKcN6google8protobuf6SymbolENS3_4hashIS1_EENS3_5streqESaISt4pairIKS1_S4_EEE6insertERKSA_
   fun:_ZN6google8protobuf18InsertIfNotPresentISt13unordered_mapIPKcNS0_6SymbolENS0_4hashIS4_EENS0_5streqESaISt4pairIKS4_S5_EEEEEbPT_RKNSE_10value_typeE
   fun:_ZN6google8protobuf18InsertIfNotPresentISt13unordered_mapIPKcNS0_6SymbolENS0_4hashIS4_EENS0_5streqESaISt4pairIKS4_S5_EEEEEbPT_RKNSE_10value_type10first_typeERKNSG_11second_typeE
   fun:_ZN6google8protobuf14DescriptorPool6Tables9AddSymbolERKNSt7__cxx1112basic_stringIcSt11char_traitsIcESaIcEEENS0_6SymbolE
   fun:_ZN6google8protobuf17DescriptorBuilder10AddPackageERKNSt7__cxx1112basic_stringIcSt11char_traitsIcESaIcEEERKNS0_7MessageEPKNS0_14FileDescriptorE
}
{
   <tensorflow_full>
   Memcheck:Leak
   match-leak-kinds: reachable
   fun:_Znwm
   fun:_ZN9__gnu_cxx13new_allocatorINSt8__detail10_Hash_nodeISt4pairIKS3_IPKN6google8protobuf10DescriptorEiEPKNS5_15FieldDescriptorEELb1EEEE8allocateEmPKv
   fun:_ZNSt16allocator_traitsISaINSt8__detail10_Hash_nodeISt4pairIKS2_IPKN6google8protobuf10DescriptorEiEPKNS4_15FieldDescriptorEELb1EEEEE8allocateERSF_m
   fun:_ZNSt8__detail16_Hashtable_allocISaINS_10_Hash_nodeISt4pairIKS2_IPKN6google8protobuf10DescriptorEiEPKNS4_15FieldDescriptorEELb1EEEEE16_M_allocate_nodeIJRKSD_EEEPSE_DpOT_
   fun:_ZNKSt8__detail10_AllocNodeISaINS_10_Hash_nodeISt4pairIKS2_IPKN6google8protobuf10DescriptorEiEPKNS4_15FieldDescriptorEELb1EEEEEclIRKSD_EEPSE_OT_
   fun:_ZNSt10_HashtableISt4pairIPKN6google8protobuf10DescriptorEiES0_IKS6_PKNS2_15FieldDescriptorEESaISB_ENSt8__detail10_Select1stESt8equal_toIS6_ENS2_12_GLOBAL__N_122PointerIntegerPairHashIS6_EENSD_18_Mod_range_hashingENSD_20_Default_ranged_hashENSD_20_Prime_rehash_policyENSD_17_Hashtable_traitsILb1ELb0ELb1EEEE9_M_insertIRKSB_NSD_10_AllocNodeISaINSD_10_Hash_nodeISB_Lb1EEEEEEEES0_INSD_14_Node_iteratorISB_Lb0ELb1EEEbEOT_RKT0_St17integral_constantIbLb1EEm
   fun:_ZNSt8__detail12_Insert_baseISt4pairIPKN6google8protobuf10DescriptorEiES1_IKS7_PKNS3_15FieldDescriptorEESaISC_ENS_10_Select1stESt8equal_toIS7_ENS3_12_GLOBAL__N_122PointerIntegerPairHashIS7_EENS_18_Mod_range_hashingENS_20_Default_ranged_hashENS_20_Prime_rehash_policyENS_17_Hashtable_traitsILb1ELb0ELb1EEEE6insertERKSC_
   fun:_ZNSt13unordered_mapISt4pairIPKN6google8protobuf10DescriptorEiEPKNS2_15FieldDescriptorENS2_12_GLOBAL__N_122PointerIntegerPairHashIS6_EESt8equal_toIS6_ESaIS0_IKS6_S9_EEE6insertERKSG_
   fun:_ZN6google8protobuf18InsertIfNotPresentISt13unordered_mapISt4pairIPKNS0_10DescriptorEiEPKNS0_15FieldDescriptorENS0_12_GLOBAL__N_122PointerIntegerPairHashIS7_EESt8equal_toIS7_ESaIS3_IKS7_SA_EEEEEbPT_RKNSK_10value_typeE
   fun:_ZN6google8protobuf18InsertIfNotPresentISt13unordered_mapISt4pairIPKNS0_10DescriptorEiEPKNS0_15FieldDescriptorENS0_12_GLOBAL__N_122PointerIntegerPairHashIS7_EESt8equal_toIS7_ESaIS3_IKS7_SA_EEEEEbPT_RKNSK_10value_type10first_typeERKNSM_11second_typeE
   fun:_ZN6google8protobuf20FileDescriptorTables16AddFieldByNumberEPKNS0_15FieldDescriptorE
   fun:_ZN6google8protobuf17DescriptorBuilder14CrossLinkFieldEPNS0_15FieldDescriptorERKNS0_20FieldDescriptorProtoE
}
{
   <tensorflow_full>
   Memcheck:Leak
   match-leak-kinds: reachable
   fun:_Znwm
   fun:_ZNSt7__cxx1112basic_stringIcSt11char_traitsIcESaIcEE12_M_constructIPcEEvT_S7_St20forward_iterator_tag
   fun:_ZN6google8protobuf14DescriptorPool6Tables14AllocateStringERKNSt7__cxx1112basic_stringIcSt11char_traitsIcESaIcEEE
   fun:_ZN6google8protobuf17DescriptorBuilder13BuildFileImplERKNS0_19FileDescriptorProtoE
   fun:_ZN6google8protobuf17DescriptorBuilder9BuildFileERKNS0_19FileDescriptorProtoE
   fun:_ZNK6google8protobuf14DescriptorPool21BuildFileFromDatabaseERKNS0_19FileDescriptorProtoE
   fun:_ZNK6google8protobuf14DescriptorPool29TryFindFileInFallbackDatabaseERKNSt7__cxx1112basic_stringIcSt11char_traitsIcESaIcEEE
   fun:_ZNK6google8protobuf14DescriptorPool14FindFileByNameERKNSt7__cxx1112basic_stringIcSt11char_traitsIcESaIcEEE
   fun:_ZN6google8protobuf12_GLOBAL__N_121AssignDescriptorsImplEPKNS0_8internal15DescriptorTableE
   fun:_ZSt13__invoke_implIvRFvPKN6google8protobuf8internal15DescriptorTableEEJRS5_EET_St14__invoke_otherOT0_DpOT1_
   fun:_ZSt8__invokeIRFvPKN6google8protobuf8internal15DescriptorTableEEJRS5_EENSt15__invoke_resultIT_JDpT0_EE4typeEOSA_DpOSB_
   fun:_ZZSt9call_onceIRFvPKN6google8protobuf8internal15DescriptorTableEEJRS5_EEvRSt9once_flagOT_DpOT0_ENKUlvE_clEv
}
{
   <tensorflow_full>
   Memcheck:Leak
   match-leak-kinds: reachable
   fun:_Znwm
   fun:_ZNSt7__cxx1112basic_stringIcSt11char_traitsIcESaIcEE12_M_constructIPcEEvT_S7_St20forward_iterator_tag
   fun:_ZN10tensorflow10monitoring17AbstractMetricDefC1ERKS1_
   fun:_ZN10tensorflow10monitoring9MetricDefILNS0_10MetricKindE1ExLi2EEC1ERKS3_
   fun:_ZN10tensorflow10monitoring7CounterILi2EEC1ERKNS0_9MetricDefILNS0_10MetricKindE1ExLi2EEE
   fun:_ZN10tensorflow10monitoring7CounterILi2EE3NewIJRA42_KcRA75_S4_RA5_S4_SA_EEEPS2_DpOT_
   fun:_Z41__static_initialization_and_destruction_0ii
   fun:_GLOBAL__sub_I_metrics.cc
}
{
   <tensorflow_full>
   Memcheck:Leak
   match-leak-kinds: reachable
   fun:_Znwm
   fun:_ZNSt7__cxx1112basic_stringIcSt11char_traitsIcESaIcEE12_M_constructIPcEEvT_S7_St20forward_iterator_tag
   fun:_ZN10tensorflow10monitoring17AbstractMetricDefC1ERKS1_
   fun:_ZN10tensorflow10monitoring9MetricDefILNS0_10MetricKindE1ExLi0EEC1ERKS3_
   fun:_ZN10tensorflow10monitoring7CounterILi0EEC1ERKNS0_9MetricDefILNS0_10MetricKindE1ExLi0EEE
   fun:_ZN10tensorflow10monitoring7CounterILi0EE3NewIJRA44_KcRA62_S4_EEEPS2_DpOT_
   fun:_Z41__static_initialization_and_destruction_0ii
   fun:_GLOBAL__sub_I_metrics.cc
}
{
   <tensorflow_full>
   Memcheck:Leak
   match-leak-kinds: reachable
   fun:_Znwm
   fun:CreateInternal<google::protobuf::Map<std::__cxx11::basic_string<char>, tensorflow::AttrValue>::InnerMap, unsigned int, google::protobuf::hash<std::__cxx11::basic_string<char, std::char_traits<char>, std::allocator<char> > >, google::protobuf::Map<std::__cxx11::basic_string<char>, tensorflow::AttrValue>::MapAllocator<google::protobuf::Map<std::__cxx11::basic_string<char>, tensorflow::AttrValue>::KeyValuePair> >
   fun:DoCreateMaybeMessage<google::protobuf::Map<std::__cxx11::basic_string<char>, tensorflow::AttrValue>::InnerMap, unsigned int, google::protobuf::hash<std::__cxx11::basic_string<char, std::char_traits<char>, std::allocator<char> > >, google::protobuf::Map<std::__cxx11::basic_string<char>, tensorflow::AttrValue>::MapAllocator<google::protobuf::Map<std::__cxx11::basic_string<char>, tensorflow::AttrValue>::KeyValuePair> >
   fun:CreateMaybeMessage<google::protobuf::Map<std::__cxx11::basic_string<char>, tensorflow::AttrValue>::InnerMap, unsigned int, google::protobuf::hash<std::__cxx11::basic_string<char, std::char_traits<char>, std::allocator<char> > >, google::protobuf::Map<std::__cxx11::basic_string<char>, tensorflow::AttrValue>::MapAllocator<google::protobuf::Map<std::__cxx11::basic_string<char>, tensorflow::AttrValue>::KeyValuePair> >
   fun:CreateNoMessage<google::protobuf::Map<std::__cxx11::basic_string<char>, tensorflow::AttrValue>::InnerMap, unsigned int, google::protobuf::hash<std::__cxx11::basic_string<char, std::char_traits<char>, std::allocator<char> > >, google::protobuf::Map<std::__cxx11::basic_string<char>, tensorflow::AttrValue>::MapAllocator<google::protobuf::Map<std::__cxx11::basic_string<char>, tensorflow::AttrValue>::KeyValuePair> >
   fun:Create<google::protobuf::Map<std::__cxx11::basic_string<char>, tensorflow::AttrValue>::InnerMap, unsigned int, google::protobuf::hash<std::__cxx11::basic_string<char, std::char_traits<char>, std::allocator<char> > >, google::protobuf::Map<std::__cxx11::basic_string<char>, tensorflow::AttrValue>::MapAllocator<google::protobuf::Map<std::__cxx11::basic_string<char>, tensorflow::AttrValue>::KeyValuePair> >
   fun:_ZN6google8protobuf3MapINSt7__cxx1112basic_stringIcSt11char_traitsIcESaIcEEEN10tensorflow9AttrValueEE4InitEv
   fun:_ZN6google8protobuf3MapINSt7__cxx1112basic_stringIcSt11char_traitsIcESaIcEEEN10tensorflow9AttrValueEEC1Ev
   fun:_ZN6google8protobuf8internal12MapFieldLiteIN10tensorflow31NameAttrList_AttrEntry_DoNotUseENSt7__cxx1112basic_stringIcSt11char_traitsIcESaIcEEENS3_9AttrValueELNS1_14WireFormatLite9FieldTypeE9ELSD_11ELi0EEC1Ev
   fun:_ZN6google8protobuf8internal8MapFieldIN10tensorflow31NameAttrList_AttrEntry_DoNotUseENSt7__cxx1112basic_stringIcSt11char_traitsIcESaIcEEENS3_9AttrValueELNS1_14WireFormatLite9FieldTypeE9ELSD_11ELi0EEC1Ev
   fun:_ZN10tensorflow12NameAttrListC1Ev
   fun:_ZL83InitDefaultsscc_info_AttrValue_tensorflow_2fcore_2fframework_2fattr_5fvalue_2eprotov
   fun:_ZN6google8protobuf8internal12_GLOBAL__N_111InitSCC_DFSEPNS1_11SCCInfoBaseE
   fun:_ZN6google8protobuf8internal12_GLOBAL__N_111InitSCC_DFSEPNS1_11SCCInfoBaseE
   fun:_ZN6google8protobuf8internal12_GLOBAL__N_111InitSCC_DFSEPNS1_11SCCInfoBaseE
   fun:_ZN6google8protobuf8internal11InitSCCImplEPNS1_11SCCInfoBaseE
   fun:_ZN6google8protobuf8internal7InitSCCEPNS1_11SCCInfoBaseE
}
{
   <tensorflow_full>
   Memcheck:Leak
   match-leak-kinds: reachable
   fun:_Znwm
   fun:_ZN10tensorflow24OptimizationPassRegistry6GlobalEv
   fun:_ZN10tensorflow25optimization_registration28OptimizationPassRegistrationC1ENS_24OptimizationPassRegistry8GroupingEiSt10unique_ptrINS_21GraphOptimizationPassESt14default_deleteIS5_EENSt7__cxx1112basic_stringIcSt11char_traitsIcESaIcEEE
   fun:_Z41__static_initialization_and_destruction_0ii
   fun:_GLOBAL__sub_I_accumulate_n_optimizer.cc
}
{
   <tensorflow_full>
   Memcheck:Leak
   match-leak-kinds: reachable
   fun:_Znwm
   fun:_Z41__static_initialization_and_destruction_0ii
   fun:_GLOBAL__sub_I_lower_functional_ops.cc
}
{
   <tensorflow_full>
   Memcheck:Leak
   match-leak-kinds: reachable
   fun:_Znwm
   fun:_ZN9__gnu_cxx13new_allocatorINSt8__detail10_Hash_nodeINSt7__cxx1112basic_stringIcSt11char_traitsIcESaIcEEELb1EEEE8allocateEmPKv
   fun:_ZNSt16allocator_traitsISaINSt8__detail10_Hash_nodeINSt7__cxx1112basic_stringIcSt11char_traitsIcESaIcEEELb1EEEEE8allocateERS9_m
   fun:_ZNSt8__detail16_Hashtable_allocISaINS_10_Hash_nodeINSt7__cxx1112basic_stringIcSt11char_traitsIcESaIcEEELb1EEEEE16_M_allocate_nodeIJRKS7_EEEPS8_DpOT_
   fun:_ZNKSt8__detail10_AllocNodeISaINS_10_Hash_nodeINSt7__cxx1112basic_stringIcSt11char_traitsIcESaIcEEELb1EEEEEclIRKS7_EEPS8_OT_
   fun:_ZNSt10_HashtableINSt7__cxx1112basic_stringIcSt11char_traitsIcESaIcEEES5_SaIS5_ENSt8__detail9_IdentityESt8equal_toIS5_ESt4hashIS5_ENS7_18_Mod_range_hashingENS7_20_Default_ranged_hashENS7_20_Prime_rehash_policyENS7_17_Hashtable_traitsILb1ELb1ELb1EEEE9_M_insertIRKS5_NS7_10_AllocNodeISaINS7_10_Hash_nodeIS5_Lb1EEEEEEEESt4pairINS7_14_Node_iteratorIS5_Lb1ELb1EEEbEOT_RKT0_St17integral_constantIbLb1EEm
   fun:_ZNSt8__detail12_Insert_baseINSt7__cxx1112basic_stringIcSt11char_traitsIcESaIcEEES6_SaIS6_ENS_9_IdentityESt8equal_toIS6_ESt4hashIS6_ENS_18_Mod_range_hashingENS_20_Default_ranged_hashENS_20_Prime_rehash_policyENS_17_Hashtable_traitsILb1ELb1ELb1EEEE6insertERKS6_
   fun:_ZNSt13unordered_setINSt7__cxx1112basic_stringIcSt11char_traitsIcESaIcEEESt4hashIS5_ESt8equal_toIS5_ESaIS5_EE6insertERKS5_
   fun:_ZN10tensorflow22UnaryVariantOpRegistry24GetPersistentStringPieceERKNSt7__cxx1112basic_stringIcSt11char_traitsIcESaIcEEE
   fun:_ZN10tensorflow22UnaryVariantOpRegistry16RegisterDecodeFnERKNSt7__cxx1112basic_stringIcSt11char_traitsIcESaIcEEERKSt8functionIFbPNS_7VariantEEE
   fun:_ZN10tensorflow35variant_op_registry_fn_registration30UnaryVariantDecodeRegistrationINS_4data12_GLOBAL__N_128WrappedDatasetVariantWrapperEEC1ERKNSt7__cxx1112basic_stringIcSt11char_traitsIcESaIcEEE
   fun:_Z41__static_initialization_and_destruction_0ii
}
{
   <tensorflow_full>
   Memcheck:Leak
   match-leak-kinds: reachable
   fun:_Znwm
   fun:_ZN10tensorflow4port12_GLOBAL__N_19CPUIDInfo10InitializeEv
   fun:_ZN4absl14lts_2020_02_2513base_internal8Callable6InvokeIRFvvEJEEEDTclcl7declvalIT_EEspcl7declvalIT0_EEEEOS6_DpOS7_
   fun:_ZN4absl14lts_2020_02_2513base_internal6InvokeIRFvvEJEEEDTclsrNS1_7InvokerIJT_DpT0_EE4typeE6Invokecl7declvalIS6_EEspcl7declvalIS7_EEEEOS6_DpOS7_
   fun:_ZN4absl14lts_2020_02_2513base_internal12CallOnceImplIRFvvEJEEEvPSt6atomicIjENS1_14SchedulingModeEOT_DpOT0_
   fun:_ZN4absl14lts_2020_02_259call_onceIRFvvEJEEEvRNS0_9once_flagEOT_DpOT0_
   fun:_ZN10tensorflow4port12_GLOBAL__N_113InitCPUIDInfoEv
   fun:_ZN10tensorflow4port12_GLOBAL__N_19CPUIDInfo11TestFeatureENS0_10CPUFeatureE
   fun:_ZN10tensorflow4port14TestCPUFeatureENS0_10CPUFeatureE
   fun:_ZN10tensorflow4port12_GLOBAL__N_117CheckFeatureOrDieENS0_10CPUFeatureERKNSt7__cxx1112basic_stringIcSt11char_traitsIcESaIcEEE
   fun:_ZN10tensorflow4port12_GLOBAL__N_115CPUFeatureGuardC1Ev
   fun:_Z41__static_initialization_and_destruction_0ii
}
{
   <tensorflow_full>
   Memcheck:Leak
   match-leak-kinds: reachable
   fun:_Znwm
   fun:CreateInternal<google::protobuf::Map<std::__cxx11::basic_string<char>, std::__cxx11::basic_string<char> >::InnerMap, unsigned int, google::protobuf::hash<std::__cxx11::basic_string<char, std::char_traits<char>, std::allocator<char> > >, google::protobuf::Map<std::__cxx11::basic_string<char>, std::__cxx11::basic_string<char> >::MapAllocator<google::protobuf::Map<std::__cxx11::basic_string<char>, std::__cxx11::basic_string<char> >::KeyValuePair> >
   fun:DoCreateMaybeMessage<google::protobuf::Map<std::__cxx11::basic_string<char>, std::__cxx11::basic_string<char> >::InnerMap, unsigned int, google::protobuf::hash<std::__cxx11::basic_string<char, std::char_traits<char>, std::allocator<char> > >, google::protobuf::Map<std::__cxx11::basic_string<char>, std::__cxx11::basic_string<char> >::MapAllocator<google::protobuf::Map<std::__cxx11::basic_string<char>, std::__cxx11::basic_string<char> >::KeyValuePair> >
   fun:CreateMaybeMessage<google::protobuf::Map<std::__cxx11::basic_string<char>, std::__cxx11::basic_string<char> >::InnerMap, unsigned int, google::protobuf::hash<std::__cxx11::basic_string<char, std::char_traits<char>, std::allocator<char> > >, google::protobuf::Map<std::__cxx11::basic_string<char>, std::__cxx11::basic_string<char> >::MapAllocator<google::protobuf::Map<std::__cxx11::basic_string<char>, std::__cxx11::basic_string<char> >::KeyValuePair> >
   fun:CreateNoMessage<google::protobuf::Map<std::__cxx11::basic_string<char>, std::__cxx11::basic_string<char> >::InnerMap, unsigned int, google::protobuf::hash<std::__cxx11::basic_string<char, std::char_traits<char>, std::allocator<char> > >, google::protobuf::Map<std::__cxx11::basic_string<char>, std::__cxx11::basic_string<char> >::MapAllocator<google::protobuf::Map<std::__cxx11::basic_string<char>, std::__cxx11::basic_string<char> >::KeyValuePair> >
   fun:Create<google::protobuf::Map<std::__cxx11::basic_string<char>, std::__cxx11::basic_string<char> >::InnerMap, unsigned int, google::protobuf::hash<std::__cxx11::basic_string<char, std::char_traits<char>, std::allocator<char> > >, google::protobuf::Map<std::__cxx11::basic_string<char>, std::__cxx11::basic_string<char> >::MapAllocator<google::protobuf::Map<std::__cxx11::basic_string<char>, std::__cxx11::basic_string<char> >::KeyValuePair> >
   fun:_ZN6google8protobuf3MapINSt7__cxx1112basic_stringIcSt11char_traitsIcESaIcEEES7_E4InitEv
   fun:_ZN6google8protobuf3MapINSt7__cxx1112basic_stringIcSt11char_traitsIcESaIcEEES7_EC1Ev
   fun:_ZN6google8protobuf8internal12MapFieldLiteIN10tensorflow42DeviceProperties_EnvironmentEntry_DoNotUseENSt7__cxx1112basic_stringIcSt11char_traitsIcESaIcEEESA_LNS1_14WireFormatLite9FieldTypeE9ELSC_9ELi0EEC1Ev
   fun:_ZN6google8protobuf8internal8MapFieldIN10tensorflow42DeviceProperties_EnvironmentEntry_DoNotUseENSt7__cxx1112basic_stringIcSt11char_traitsIcESaIcEEESA_LNS1_14WireFormatLite9FieldTypeE9ELSC_9ELi0EEC1Ev
   fun:_ZN10tensorflow16DevicePropertiesC1Ev
   fun:_ZL96InitDefaultsscc_info_DeviceProperties_tensorflow_2fcore_2fprotobuf_2fdevice_5fproperties_2eprotov
   fun:_ZN6google8protobuf8internal12_GLOBAL__N_111InitSCC_DFSEPNS1_11SCCInfoBaseE
   fun:_ZN6google8protobuf8internal12_GLOBAL__N_111InitSCC_DFSEPNS1_11SCCInfoBaseE
   fun:_ZN6google8protobuf8internal11InitSCCImplEPNS1_11SCCInfoBaseE
   fun:_ZN6google8protobuf8internal7InitSCCEPNS1_11SCCInfoBaseE
   fun:_ZN6google8protobuf12_GLOBAL__N_118AddDescriptorsImplEPKNS0_8internal15DescriptorTableE
}
{
   <tensorflow_full>
   Memcheck:Leak
   match-leak-kinds: reachable
   fun:_Znwm
   fun:CreateInternal<google::protobuf::Map<std::__cxx11::basic_string<char>, tensorflow::AttrValue>::InnerMap, unsigned int, google::protobuf::hash<std::__cxx11::basic_string<char, std::char_traits<char>, std::allocator<char> > >, google::protobuf::Map<std::__cxx11::basic_string<char>, tensorflow::AttrValue>::MapAllocator<google::protobuf::Map<std::__cxx11::basic_string<char>, tensorflow::AttrValue>::KeyValuePair> >
   fun:DoCreateMaybeMessage<google::protobuf::Map<std::__cxx11::basic_string<char>, tensorflow::AttrValue>::InnerMap, unsigned int, google::protobuf::hash<std::__cxx11::basic_string<char, std::char_traits<char>, std::allocator<char> > >, google::protobuf::Map<std::__cxx11::basic_string<char>, tensorflow::AttrValue>::MapAllocator<google::protobuf::Map<std::__cxx11::basic_string<char>, tensorflow::AttrValue>::KeyValuePair> >
   fun:CreateMaybeMessage<google::protobuf::Map<std::__cxx11::basic_string<char>, tensorflow::AttrValue>::InnerMap, unsigned int, google::protobuf::hash<std::__cxx11::basic_string<char, std::char_traits<char>, std::allocator<char> > >, google::protobuf::Map<std::__cxx11::basic_string<char>, tensorflow::AttrValue>::MapAllocator<google::protobuf::Map<std::__cxx11::basic_string<char>, tensorflow::AttrValue>::KeyValuePair> >
   fun:CreateNoMessage<google::protobuf::Map<std::__cxx11::basic_string<char>, tensorflow::AttrValue>::InnerMap, unsigned int, google::protobuf::hash<std::__cxx11::basic_string<char, std::char_traits<char>, std::allocator<char> > >, google::protobuf::Map<std::__cxx11::basic_string<char>, tensorflow::AttrValue>::MapAllocator<google::protobuf::Map<std::__cxx11::basic_string<char>, tensorflow::AttrValue>::KeyValuePair> >
   fun:Create<google::protobuf::Map<std::__cxx11::basic_string<char>, tensorflow::AttrValue>::InnerMap, unsigned int, google::protobuf::hash<std::__cxx11::basic_string<char, std::char_traits<char>, std::allocator<char> > >, google::protobuf::Map<std::__cxx11::basic_string<char>, tensorflow::AttrValue>::MapAllocator<google::protobuf::Map<std::__cxx11::basic_string<char>, tensorflow::AttrValue>::KeyValuePair> >
   fun:_ZN6google8protobuf3MapINSt7__cxx1112basic_stringIcSt11char_traitsIcESaIcEEEN10tensorflow9AttrValueEE4InitEv
   fun:_ZN6google8protobuf3MapINSt7__cxx1112basic_stringIcSt11char_traitsIcESaIcEEEN10tensorflow9AttrValueEEC1Ev
   fun:_ZN6google8protobuf8internal12MapFieldLiteIN10tensorflow25OpInfo_AttrEntry_DoNotUseENSt7__cxx1112basic_stringIcSt11char_traitsIcESaIcEEENS3_9AttrValueELNS1_14WireFormatLite9FieldTypeE9ELSD_11ELi0EEC1Ev
   fun:_ZN6google8protobuf8internal8MapFieldIN10tensorflow25OpInfo_AttrEntry_DoNotUseENSt7__cxx1112basic_stringIcSt11char_traitsIcESaIcEEENS3_9AttrValueELNS1_14WireFormatLite9FieldTypeE9ELSD_11ELi0EEC1Ev
   fun:_ZN10tensorflow6OpInfoC1Ev
   fun:_ZL98InitDefaultsscc_info_OpInfo_tensorflow_2fcore_2fgrappler_2fcosts_2fop_5fperformance_5fdata_2eprotov
   fun:_ZN6google8protobuf8internal12_GLOBAL__N_111InitSCC_DFSEPNS1_11SCCInfoBaseE
   fun:_ZN6google8protobuf8internal11InitSCCImplEPNS1_11SCCInfoBaseE
   fun:_ZN6google8protobuf8internal7InitSCCEPNS1_11SCCInfoBaseE
   fun:_ZN6google8protobuf12_GLOBAL__N_118AddDescriptorsImplEPKNS0_8internal15DescriptorTableE
   fun:_ZN6google8protobuf8internal14AddDescriptorsEPKNS1_15DescriptorTableE
}
{
   <tensorflow_full>
   Memcheck:Leak
   match-leak-kinds: reachable
   fun:_Znwm
   fun:CreateInternal<google::protobuf::Map<std::__cxx11::basic_string<char>, tensorflow::Feature>::InnerMap, unsigned int, google::protobuf::hash<std::__cxx11::basic_string<char, std::char_traits<char>, std::allocator<char> > >, google::protobuf::Map<std::__cxx11::basic_string<char>, tensorflow::Feature>::MapAllocator<google::protobuf::Map<std::__cxx11::basic_string<char>, tensorflow::Feature>::KeyValuePair> >
   fun:DoCreateMaybeMessage<google::protobuf::Map<std::__cxx11::basic_string<char>, tensorflow::Feature>::InnerMap, unsigned int, google::protobuf::hash<std::__cxx11::basic_string<char, std::char_traits<char>, std::allocator<char> > >, google::protobuf::Map<std::__cxx11::basic_string<char>, tensorflow::Feature>::MapAllocator<google::protobuf::Map<std::__cxx11::basic_string<char>, tensorflow::Feature>::KeyValuePair> >
   fun:CreateMaybeMessage<google::protobuf::Map<std::__cxx11::basic_string<char>, tensorflow::Feature>::InnerMap, unsigned int, google::protobuf::hash<std::__cxx11::basic_string<char, std::char_traits<char>, std::allocator<char> > >, google::protobuf::Map<std::__cxx11::basic_string<char>, tensorflow::Feature>::MapAllocator<google::protobuf::Map<std::__cxx11::basic_string<char>, tensorflow::Feature>::KeyValuePair> >
   fun:CreateNoMessage<google::protobuf::Map<std::__cxx11::basic_string<char>, tensorflow::Feature>::InnerMap, unsigned int, google::protobuf::hash<std::__cxx11::basic_string<char, std::char_traits<char>, std::allocator<char> > >, google::protobuf::Map<std::__cxx11::basic_string<char>, tensorflow::Feature>::MapAllocator<google::protobuf::Map<std::__cxx11::basic_string<char>, tensorflow::Feature>::KeyValuePair> >
   fun:Create<google::protobuf::Map<std::__cxx11::basic_string<char>, tensorflow::Feature>::InnerMap, unsigned int, google::protobuf::hash<std::__cxx11::basic_string<char, std::char_traits<char>, std::allocator<char> > >, google::protobuf::Map<std::__cxx11::basic_string<char>, tensorflow::Feature>::MapAllocator<google::protobuf::Map<std::__cxx11::basic_string<char>, tensorflow::Feature>::KeyValuePair> >
   fun:_ZN6google8protobuf3MapINSt7__cxx1112basic_stringIcSt11char_traitsIcESaIcEEEN10tensorflow7FeatureEE4InitEv
   fun:_ZN6google8protobuf3MapINSt7__cxx1112basic_stringIcSt11char_traitsIcESaIcEEEN10tensorflow7FeatureEEC1Ev
   fun:_ZN6google8protobuf8internal12MapFieldLiteIN10tensorflow30Features_FeatureEntry_DoNotUseENSt7__cxx1112basic_stringIcSt11char_traitsIcESaIcEEENS3_7FeatureELNS1_14WireFormatLite9FieldTypeE9ELSD_11ELi0EEC1Ev
   fun:_ZN6google8protobuf8internal8MapFieldIN10tensorflow30Features_FeatureEntry_DoNotUseENSt7__cxx1112basic_stringIcSt11char_traitsIcESaIcEEENS3_7FeatureELNS1_14WireFormatLite9FieldTypeE9ELSD_11ELi0EEC1Ev
   fun:_ZN10tensorflow8FeaturesC1Ev
   fun:_ZL75InitDefaultsscc_info_Features_tensorflow_2fcore_2fexample_2ffeature_2eprotov
   fun:_ZN6google8protobuf8internal12_GLOBAL__N_111InitSCC_DFSEPNS1_11SCCInfoBaseE
   fun:_ZN6google8protobuf8internal12_GLOBAL__N_111InitSCC_DFSEPNS1_11SCCInfoBaseE
   fun:_ZN6google8protobuf8internal11InitSCCImplEPNS1_11SCCInfoBaseE
   fun:_ZN6google8protobuf8internal7InitSCCEPNS1_11SCCInfoBaseE
   fun:_ZN6google8protobuf12_GLOBAL__N_118AddDescriptorsImplEPKNS0_8internal15DescriptorTableE
}
{
   <tensorflow_full>
   Memcheck:Leak
   match-leak-kinds: reachable
   fun:_Znwm
   fun:CreateInternal<google::protobuf::Map<std::__cxx11::basic_string<char>, tensorflow::FeatureList>::InnerMap, unsigned int, google::protobuf::hash<std::__cxx11::basic_string<char, std::char_traits<char>, std::allocator<char> > >, google::protobuf::Map<std::__cxx11::basic_string<char>, tensorflow::FeatureList>::MapAllocator<google::protobuf::Map<std::__cxx11::basic_string<char>, tensorflow::FeatureList>::KeyValuePair> >
   fun:DoCreateMaybeMessage<google::protobuf::Map<std::__cxx11::basic_string<char>, tensorflow::FeatureList>::InnerMap, unsigned int, google::protobuf::hash<std::__cxx11::basic_string<char, std::char_traits<char>, std::allocator<char> > >, google::protobuf::Map<std::__cxx11::basic_string<char>, tensorflow::FeatureList>::MapAllocator<google::protobuf::Map<std::__cxx11::basic_string<char>, tensorflow::FeatureList>::KeyValuePair> >
   fun:CreateMaybeMessage<google::protobuf::Map<std::__cxx11::basic_string<char>, tensorflow::FeatureList>::InnerMap, unsigned int, google::protobuf::hash<std::__cxx11::basic_string<char, std::char_traits<char>, std::allocator<char> > >, google::protobuf::Map<std::__cxx11::basic_string<char>, tensorflow::FeatureList>::MapAllocator<google::protobuf::Map<std::__cxx11::basic_string<char>, tensorflow::FeatureList>::KeyValuePair> >
   fun:CreateNoMessage<google::protobuf::Map<std::__cxx11::basic_string<char>, tensorflow::FeatureList>::InnerMap, unsigned int, google::protobuf::hash<std::__cxx11::basic_string<char, std::char_traits<char>, std::allocator<char> > >, google::protobuf::Map<std::__cxx11::basic_string<char>, tensorflow::FeatureList>::MapAllocator<google::protobuf::Map<std::__cxx11::basic_string<char>, tensorflow::FeatureList>::KeyValuePair> >
   fun:Create<google::protobuf::Map<std::__cxx11::basic_string<char>, tensorflow::FeatureList>::InnerMap, unsigned int, google::protobuf::hash<std::__cxx11::basic_string<char, std::char_traits<char>, std::allocator<char> > >, google::protobuf::Map<std::__cxx11::basic_string<char>, tensorflow::FeatureList>::MapAllocator<google::protobuf::Map<std::__cxx11::basic_string<char>, tensorflow::FeatureList>::KeyValuePair> >
   fun:_ZN6google8protobuf3MapINSt7__cxx1112basic_stringIcSt11char_traitsIcESaIcEEEN10tensorflow11FeatureListEE4InitEv
   fun:_ZN6google8protobuf3MapINSt7__cxx1112basic_stringIcSt11char_traitsIcESaIcEEEN10tensorflow11FeatureListEEC1Ev
   fun:_ZN6google8protobuf8internal12MapFieldLiteIN10tensorflow38FeatureLists_FeatureListEntry_DoNotUseENSt7__cxx1112basic_stringIcSt11char_traitsIcESaIcEEENS3_11FeatureListELNS1_14WireFormatLite9FieldTypeE9ELSD_11ELi0EEC1Ev
   fun:_ZN6google8protobuf8internal8MapFieldIN10tensorflow38FeatureLists_FeatureListEntry_DoNotUseENSt7__cxx1112basic_stringIcSt11char_traitsIcESaIcEEENS3_11FeatureListELNS1_14WireFormatLite9FieldTypeE9ELSD_11ELi0EEC1Ev
   fun:_ZN10tensorflow12FeatureListsC1Ev
   fun:_ZL79InitDefaultsscc_info_FeatureLists_tensorflow_2fcore_2fexample_2ffeature_2eprotov
   fun:_ZN6google8protobuf8internal12_GLOBAL__N_111InitSCC_DFSEPNS1_11SCCInfoBaseE
   fun:_ZN6google8protobuf8internal12_GLOBAL__N_111InitSCC_DFSEPNS1_11SCCInfoBaseE
   fun:_ZN6google8protobuf8internal11InitSCCImplEPNS1_11SCCInfoBaseE
   fun:_ZN6google8protobuf8internal7InitSCCEPNS1_11SCCInfoBaseE
   fun:_ZN6google8protobuf12_GLOBAL__N_118AddDescriptorsImplEPKNS0_8internal15DescriptorTableE
}
{
   <tensorflow_full>
   Memcheck:Leak
   match-leak-kinds: reachable
   fun:_Znwm
   fun:CreateInternal<google::protobuf::Map<std::__cxx11::basic_string<char>, tensorflow::FeatureConfiguration>::InnerMap, unsigned int, google::protobuf::hash<std::__cxx11::basic_string<char, std::char_traits<char>, std::allocator<char> > >, google::protobuf::Map<std::__cxx11::basic_string<char>, tensorflow::FeatureConfiguration>::MapAllocator<google::protobuf::Map<std::__cxx11::basic_string<char>, tensorflow::FeatureConfiguration>::KeyValuePair> >
   fun:DoCreateMaybeMessage<google::protobuf::Map<std::__cxx11::basic_string<char>, tensorflow::FeatureConfiguration>::InnerMap, unsigned int, google::protobuf::hash<std::__cxx11::basic_string<char, std::char_traits<char>, std::allocator<char> > >, google::protobuf::Map<std::__cxx11::basic_string<char>, tensorflow::FeatureConfiguration>::MapAllocator<google::protobuf::Map<std::__cxx11::basic_string<char>, tensorflow::FeatureConfiguration>::KeyValuePair> >
   fun:CreateMaybeMessage<google::protobuf::Map<std::__cxx11::basic_string<char>, tensorflow::FeatureConfiguration>::InnerMap, unsigned int, google::protobuf::hash<std::__cxx11::basic_string<char, std::char_traits<char>, std::allocator<char> > >, google::protobuf::Map<std::__cxx11::basic_string<char>, tensorflow::FeatureConfiguration>::MapAllocator<google::protobuf::Map<std::__cxx11::basic_string<char>, tensorflow::FeatureConfiguration>::KeyValuePair> >
   fun:CreateNoMessage<google::protobuf::Map<std::__cxx11::basic_string<char>, tensorflow::FeatureConfiguration>::InnerMap, unsigned int, google::protobuf::hash<std::__cxx11::basic_string<char, std::char_traits<char>, std::allocator<char> > >, google::protobuf::Map<std::__cxx11::basic_string<char>, tensorflow::FeatureConfiguration>::MapAllocator<google::protobuf::Map<std::__cxx11::basic_string<char>, tensorflow::FeatureConfiguration>::KeyValuePair> >
   fun:Create<google::protobuf::Map<std::__cxx11::basic_string<char>, tensorflow::FeatureConfiguration>::InnerMap, unsigned int, google::protobuf::hash<std::__cxx11::basic_string<char, std::char_traits<char>, std::allocator<char> > >, google::protobuf::Map<std::__cxx11::basic_string<char>, tensorflow::FeatureConfiguration>::MapAllocator<google::protobuf::Map<std::__cxx11::basic_string<char>, tensorflow::FeatureConfiguration>::KeyValuePair> >
   fun:_ZN6google8protobuf3MapINSt7__cxx1112basic_stringIcSt11char_traitsIcESaIcEEEN10tensorflow20FeatureConfigurationEE4InitEv
   fun:_ZN6google8protobuf3MapINSt7__cxx1112basic_stringIcSt11char_traitsIcESaIcEEEN10tensorflow20FeatureConfigurationEEC1Ev
   fun:_ZN6google8protobuf8internal12MapFieldLiteIN10tensorflow51ExampleParserConfiguration_FeatureMapEntry_DoNotUseENSt7__cxx1112basic_stringIcSt11char_traitsIcESaIcEEENS3_20FeatureConfigurationELNS1_14WireFormatLite9FieldTypeE9ELSD_11ELi0EEC1Ev
   fun:_ZN6google8protobuf8internal8MapFieldIN10tensorflow51ExampleParserConfiguration_FeatureMapEntry_DoNotUseENSt7__cxx1112basic_stringIcSt11char_traitsIcESaIcEEENS3_20FeatureConfigurationELNS1_14WireFormatLite9FieldTypeE9ELSD_11ELi0EEC1Ev
   fun:_ZN10tensorflow26ExampleParserConfigurationC1Ev
   fun:_ZL118InitDefaultsscc_info_ExampleParserConfiguration_tensorflow_2fcore_2fexample_2fexample_5fparser_5fconfiguration_2eprotov
   fun:_ZN6google8protobuf8internal12_GLOBAL__N_111InitSCC_DFSEPNS1_11SCCInfoBaseE
   fun:_ZN6google8protobuf8internal11InitSCCImplEPNS1_11SCCInfoBaseE
   fun:_ZN6google8protobuf8internal7InitSCCEPNS1_11SCCInfoBaseE
   fun:_ZN6google8protobuf12_GLOBAL__N_118AddDescriptorsImplEPKNS0_8internal15DescriptorTableE
   fun:_ZN6google8protobuf8internal14AddDescriptorsEPKNS1_15DescriptorTableE
}
{
   <tensorflow_full>
   Memcheck:Leak
   match-leak-kinds: reachable
   fun:_Znwm
   fun:CreateInternal<google::protobuf::Map<std::__cxx11::basic_string<char>, std::__cxx11::basic_string<char> >::InnerMap, unsigned int, google::protobuf::hash<std::__cxx11::basic_string<char, std::char_traits<char>, std::allocator<char> > >, google::protobuf::Map<std::__cxx11::basic_string<char>, std::__cxx11::basic_string<char> >::MapAllocator<google::protobuf::Map<std::__cxx11::basic_string<char>, std::__cxx11::basic_string<char> >::KeyValuePair> >
   fun:DoCreateMaybeMessage<google::protobuf::Map<std::__cxx11::basic_string<char>, std::__cxx11::basic_string<char> >::InnerMap, unsigned int, google::protobuf::hash<std::__cxx11::basic_string<char, std::char_traits<char>, std::allocator<char> > >, google::protobuf::Map<std::__cxx11::basic_string<char>, std::__cxx11::basic_string<char> >::MapAllocator<google::protobuf::Map<std::__cxx11::basic_string<char>, std::__cxx11::basic_string<char> >::KeyValuePair> >
   fun:CreateMaybeMessage<google::protobuf::Map<std::__cxx11::basic_string<char>, std::__cxx11::basic_string<char> >::InnerMap, unsigned int, google::protobuf::hash<std::__cxx11::basic_string<char, std::char_traits<char>, std::allocator<char> > >, google::protobuf::Map<std::__cxx11::basic_string<char>, std::__cxx11::basic_string<char> >::MapAllocator<google::protobuf::Map<std::__cxx11::basic_string<char>, std::__cxx11::basic_string<char> >::KeyValuePair> >
   fun:CreateNoMessage<google::protobuf::Map<std::__cxx11::basic_string<char>, std::__cxx11::basic_string<char> >::InnerMap, unsigned int, google::protobuf::hash<std::__cxx11::basic_string<char, std::char_traits<char>, std::allocator<char> > >, google::protobuf::Map<std::__cxx11::basic_string<char>, std::__cxx11::basic_string<char> >::MapAllocator<google::protobuf::Map<std::__cxx11::basic_string<char>, std::__cxx11::basic_string<char> >::KeyValuePair> >
   fun:Create<google::protobuf::Map<std::__cxx11::basic_string<char>, std::__cxx11::basic_string<char> >::InnerMap, unsigned int, google::protobuf::hash<std::__cxx11::basic_string<char, std::char_traits<char>, std::allocator<char> > >, google::protobuf::Map<std::__cxx11::basic_string<char>, std::__cxx11::basic_string<char> >::MapAllocator<google::protobuf::Map<std::__cxx11::basic_string<char>, std::__cxx11::basic_string<char> >::KeyValuePair> >
   fun:_ZN6google8protobuf3MapINSt7__cxx1112basic_stringIcSt11char_traitsIcESaIcEEES7_E4InitEv
   fun:_ZN6google8protobuf3MapINSt7__cxx1112basic_stringIcSt11char_traitsIcESaIcEEES7_EC1Ev
   fun:_ZN6google8protobuf8internal12MapFieldLiteIN10tensorflow41CallableOptions_FeedDevicesEntry_DoNotUseENSt7__cxx1112basic_stringIcSt11char_traitsIcESaIcEEESA_LNS1_14WireFormatLite9FieldTypeE9ELSC_9ELi0EEC1Ev
   fun:_ZN6google8protobuf8internal8MapFieldIN10tensorflow41CallableOptions_FeedDevicesEntry_DoNotUseENSt7__cxx1112basic_stringIcSt11char_traitsIcESaIcEEESA_LNS1_14WireFormatLite9FieldTypeE9ELSC_9ELi0EEC1Ev
   fun:_ZN10tensorflow15CallableOptionsC1Ev
   fun:_ZL82InitDefaultsscc_info_CallableOptions_tensorflow_2fcore_2fprotobuf_2fconfig_2eprotov
   fun:_ZN6google8protobuf8internal12_GLOBAL__N_111InitSCC_DFSEPNS1_11SCCInfoBaseE
   fun:_ZN6google8protobuf8internal11InitSCCImplEPNS1_11SCCInfoBaseE
   fun:_ZN6google8protobuf8internal7InitSCCEPNS1_11SCCInfoBaseE
   fun:_ZN6google8protobuf12_GLOBAL__N_118AddDescriptorsImplEPKNS0_8internal15DescriptorTableE
   fun:_ZN6google8protobuf8internal14AddDescriptorsEPKNS1_15DescriptorTableE
}
{
   <tensorflow_full>
   Memcheck:Leak
   match-leak-kinds: reachable
   fun:_Znwm
   fun:CreateInternal<google::protobuf::Map<std::__cxx11::basic_string<char>, std::__cxx11::basic_string<char> >::InnerMap, unsigned int, google::protobuf::hash<std::__cxx11::basic_string<char, std::char_traits<char>, std::allocator<char> > >, google::protobuf::Map<std::__cxx11::basic_string<char>, std::__cxx11::basic_string<char> >::MapAllocator<google::protobuf::Map<std::__cxx11::basic_string<char>, std::__cxx11::basic_string<char> >::KeyValuePair> >
   fun:DoCreateMaybeMessage<google::protobuf::Map<std::__cxx11::basic_string<char>, std::__cxx11::basic_string<char> >::InnerMap, unsigned int, google::protobuf::hash<std::__cxx11::basic_string<char, std::char_traits<char>, std::allocator<char> > >, google::protobuf::Map<std::__cxx11::basic_string<char>, std::__cxx11::basic_string<char> >::MapAllocator<google::protobuf::Map<std::__cxx11::basic_string<char>, std::__cxx11::basic_string<char> >::KeyValuePair> >
   fun:CreateMaybeMessage<google::protobuf::Map<std::__cxx11::basic_string<char>, std::__cxx11::basic_string<char> >::InnerMap, unsigned int, google::protobuf::hash<std::__cxx11::basic_string<char, std::char_traits<char>, std::allocator<char> > >, google::protobuf::Map<std::__cxx11::basic_string<char>, std::__cxx11::basic_string<char> >::MapAllocator<google::protobuf::Map<std::__cxx11::basic_string<char>, std::__cxx11::basic_string<char> >::KeyValuePair> >
   fun:CreateNoMessage<google::protobuf::Map<std::__cxx11::basic_string<char>, std::__cxx11::basic_string<char> >::InnerMap, unsigned int, google::protobuf::hash<std::__cxx11::basic_string<char, std::char_traits<char>, std::allocator<char> > >, google::protobuf::Map<std::__cxx11::basic_string<char>, std::__cxx11::basic_string<char> >::MapAllocator<google::protobuf::Map<std::__cxx11::basic_string<char>, std::__cxx11::basic_string<char> >::KeyValuePair> >
   fun:Create<google::protobuf::Map<std::__cxx11::basic_string<char>, std::__cxx11::basic_string<char> >::InnerMap, unsigned int, google::protobuf::hash<std::__cxx11::basic_string<char, std::char_traits<char>, std::allocator<char> > >, google::protobuf::Map<std::__cxx11::basic_string<char>, std::__cxx11::basic_string<char> >::MapAllocator<google::protobuf::Map<std::__cxx11::basic_string<char>, std::__cxx11::basic_string<char> >::KeyValuePair> >
   fun:_ZN6google8protobuf3MapINSt7__cxx1112basic_stringIcSt11char_traitsIcESaIcEEES7_E4InitEv
   fun:_ZN6google8protobuf3MapINSt7__cxx1112basic_stringIcSt11char_traitsIcESaIcEEES7_EC1Ev
   fun:_ZN6google8protobuf8internal12MapFieldLiteIN10tensorflow42CallableOptions_FetchDevicesEntry_DoNotUseENSt7__cxx1112basic_stringIcSt11char_traitsIcESaIcEEESA_LNS1_14WireFormatLite9FieldTypeE9ELSC_9ELi0EEC1Ev
   fun:_ZN6google8protobuf8internal8MapFieldIN10tensorflow42CallableOptions_FetchDevicesEntry_DoNotUseENSt7__cxx1112basic_stringIcSt11char_traitsIcESaIcEEESA_LNS1_14WireFormatLite9FieldTypeE9ELSC_9ELi0EEC1Ev
   fun:_ZN10tensorflow15CallableOptionsC1Ev
   fun:_ZL82InitDefaultsscc_info_CallableOptions_tensorflow_2fcore_2fprotobuf_2fconfig_2eprotov
   fun:_ZN6google8protobuf8internal12_GLOBAL__N_111InitSCC_DFSEPNS1_11SCCInfoBaseE
   fun:_ZN6google8protobuf8internal11InitSCCImplEPNS1_11SCCInfoBaseE
   fun:_ZN6google8protobuf8internal7InitSCCEPNS1_11SCCInfoBaseE
   fun:_ZN6google8protobuf12_GLOBAL__N_118AddDescriptorsImplEPKNS0_8internal15DescriptorTableE
   fun:_ZN6google8protobuf8internal14AddDescriptorsEPKNS1_15DescriptorTableE
}
{
   <tensorflow_full>
   Memcheck:Leak
   match-leak-kinds: reachable
   fun:_Znwm
   fun:CreateInternal<google::protobuf::Map<std::__cxx11::basic_string<char>, tensorflow::AttrValue>::InnerMap, unsigned int, google::protobuf::hash<std::__cxx11::basic_string<char, std::char_traits<char>, std::allocator<char> > >, google::protobuf::Map<std::__cxx11::basic_string<char>, tensorflow::AttrValue>::MapAllocator<google::protobuf::Map<std::__cxx11::basic_string<char>, tensorflow::AttrValue>::KeyValuePair> >
   fun:DoCreateMaybeMessage<google::protobuf::Map<std::__cxx11::basic_string<char>, tensorflow::AttrValue>::InnerMap, unsigned int, google::protobuf::hash<std::__cxx11::basic_string<char, std::char_traits<char>, std::allocator<char> > >, google::protobuf::Map<std::__cxx11::basic_string<char>, tensorflow::AttrValue>::MapAllocator<google::protobuf::Map<std::__cxx11::basic_string<char>, tensorflow::AttrValue>::KeyValuePair> >
   fun:CreateMaybeMessage<google::protobuf::Map<std::__cxx11::basic_string<char>, tensorflow::AttrValue>::InnerMap, unsigned int, google::protobuf::hash<std::__cxx11::basic_string<char, std::char_traits<char>, std::allocator<char> > >, google::protobuf::Map<std::__cxx11::basic_string<char>, tensorflow::AttrValue>::MapAllocator<google::protobuf::Map<std::__cxx11::basic_string<char>, tensorflow::AttrValue>::KeyValuePair> >
   fun:CreateNoMessage<google::protobuf::Map<std::__cxx11::basic_string<char>, tensorflow::AttrValue>::InnerMap, unsigned int, google::protobuf::hash<std::__cxx11::basic_string<char, std::char_traits<char>, std::allocator<char> > >, google::protobuf::Map<std::__cxx11::basic_string<char>, tensorflow::AttrValue>::MapAllocator<google::protobuf::Map<std::__cxx11::basic_string<char>, tensorflow::AttrValue>::KeyValuePair> >
   fun:Create<google::protobuf::Map<std::__cxx11::basic_string<char>, tensorflow::AttrValue>::InnerMap, unsigned int, google::protobuf::hash<std::__cxx11::basic_string<char, std::char_traits<char>, std::allocator<char> > >, google::protobuf::Map<std::__cxx11::basic_string<char>, tensorflow::AttrValue>::MapAllocator<google::protobuf::Map<std::__cxx11::basic_string<char>, tensorflow::AttrValue>::KeyValuePair> >
   fun:_ZN6google8protobuf3MapINSt7__cxx1112basic_stringIcSt11char_traitsIcESaIcEEEN10tensorflow9AttrValueEE4InitEv
   fun:_ZN6google8protobuf3MapINSt7__cxx1112basic_stringIcSt11char_traitsIcESaIcEEEN10tensorflow9AttrValueEEC1Ev
   fun:_ZN6google8protobuf8internal12MapFieldLiteIN10tensorflow62RewriterConfig_CustomGraphOptimizer_ParameterMapEntry_DoNotUseENSt7__cxx1112basic_stringIcSt11char_traitsIcESaIcEEENS3_9AttrValueELNS1_14WireFormatLite9FieldTypeE9ELSD_11ELi0EEC1Ev
   fun:_ZN6google8protobuf8internal8MapFieldIN10tensorflow62RewriterConfig_CustomGraphOptimizer_ParameterMapEntry_DoNotUseENSt7__cxx1112basic_stringIcSt11char_traitsIcESaIcEEENS3_9AttrValueELNS1_14WireFormatLite9FieldTypeE9ELSD_11ELi0EEC1Ev
   fun:_ZN10tensorflow35RewriterConfig_CustomGraphOptimizerC1Ev
   fun:_ZL113InitDefaultsscc_info_RewriterConfig_CustomGraphOptimizer_tensorflow_2fcore_2fprotobuf_2frewriter_5fconfig_2eprotov
   fun:_ZN6google8protobuf8internal12_GLOBAL__N_111InitSCC_DFSEPNS1_11SCCInfoBaseE
   fun:_ZN6google8protobuf8internal12_GLOBAL__N_111InitSCC_DFSEPNS1_11SCCInfoBaseE
   fun:_ZN6google8protobuf8internal12_GLOBAL__N_111InitSCC_DFSEPNS1_11SCCInfoBaseE
   fun:_ZN6google8protobuf8internal12_GLOBAL__N_111InitSCC_DFSEPNS1_11SCCInfoBaseE
   fun:_ZN6google8protobuf8internal11InitSCCImplEPNS1_11SCCInfoBaseE
}
{
   <tensorflow_full>
   Memcheck:Leak
   match-leak-kinds: reachable
   fun:_Znwm
   fun:CreateInternal<google::protobuf::Map<int, std::__cxx11::basic_string<char> >::InnerMap, unsigned int, google::protobuf::hash<int>, google::protobuf::Map<int, std::__cxx11::basic_string<char> >::MapAllocator<google::protobuf::Map<int, std::__cxx11::basic_string<char> >::KeyValuePair> >
   fun:DoCreateMaybeMessage<google::protobuf::Map<int, std::__cxx11::basic_string<char> >::InnerMap, unsigned int, google::protobuf::hash<int>, google::protobuf::Map<int, std::__cxx11::basic_string<char> >::MapAllocator<google::protobuf::Map<int, std::__cxx11::basic_string<char> >::KeyValuePair> >
   fun:CreateMaybeMessage<google::protobuf::Map<int, std::__cxx11::basic_string<char> >::InnerMap, unsigned int, google::protobuf::hash<int>, google::protobuf::Map<int, std::__cxx11::basic_string<char> >::MapAllocator<google::protobuf::Map<int, std::__cxx11::basic_string<char> >::KeyValuePair> >
   fun:CreateNoMessage<google::protobuf::Map<int, std::__cxx11::basic_string<char> >::InnerMap, unsigned int, google::protobuf::hash<int>, google::protobuf::Map<int, std::__cxx11::basic_string<char> >::MapAllocator<google::protobuf::Map<int, std::__cxx11::basic_string<char> >::KeyValuePair> >
   fun:Create<google::protobuf::Map<int, std::__cxx11::basic_string<char> >::InnerMap, unsigned int, google::protobuf::hash<int>, google::protobuf::Map<int, std::__cxx11::basic_string<char> >::MapAllocator<google::protobuf::Map<int, std::__cxx11::basic_string<char> >::KeyValuePair> >
   fun:_ZN6google8protobuf3MapIiNSt7__cxx1112basic_stringIcSt11char_traitsIcESaIcEEEE4InitEv
   fun:_ZN6google8protobuf3MapIiNSt7__cxx1112basic_stringIcSt11char_traitsIcESaIcEEEEC1Ev
   fun:_ZN6google8protobuf8internal12MapFieldLiteIN10tensorflow26JobDef_TasksEntry_DoNotUseEiNSt7__cxx1112basic_stringIcSt11char_traitsIcESaIcEEELNS1_14WireFormatLite9FieldTypeE5ELSC_9ELi0EEC1Ev
   fun:_ZN6google8protobuf8internal8MapFieldIN10tensorflow26JobDef_TasksEntry_DoNotUseEiNSt7__cxx1112basic_stringIcSt11char_traitsIcESaIcEEELNS1_14WireFormatLite9FieldTypeE5ELSC_9ELi0EEC1Ev
   fun:_ZN10tensorflow6JobDefC1Ev
   fun:_ZL74InitDefaultsscc_info_JobDef_tensorflow_2fcore_2fprotobuf_2fcluster_2eprotov
   fun:_ZN6google8protobuf8internal12_GLOBAL__N_111InitSCC_DFSEPNS1_11SCCInfoBaseE
   fun:_ZN6google8protobuf8internal12_GLOBAL__N_111InitSCC_DFSEPNS1_11SCCInfoBaseE
   fun:_ZN6google8protobuf8internal12_GLOBAL__N_111InitSCC_DFSEPNS1_11SCCInfoBaseE
   fun:_ZN6google8protobuf8internal11InitSCCImplEPNS1_11SCCInfoBaseE
   fun:_ZN6google8protobuf8internal7InitSCCEPNS1_11SCCInfoBaseE
}
{
   <tensorflow_full>
   Memcheck:Leak
   match-leak-kinds: reachable
   fun:_Znwm
   fun:CreateInternal<google::protobuf::Map<std::__cxx11::basic_string<char>, int>::InnerMap, unsigned int, google::protobuf::hash<std::__cxx11::basic_string<char, std::char_traits<char>, std::allocator<char> > >, google::protobuf::Map<std::__cxx11::basic_string<char>, int>::MapAllocator<google::protobuf::Map<std::__cxx11::basic_string<char>, int>::KeyValuePair> >
   fun:DoCreateMaybeMessage<google::protobuf::Map<std::__cxx11::basic_string<char>, int>::InnerMap, unsigned int, google::protobuf::hash<std::__cxx11::basic_string<char, std::char_traits<char>, std::allocator<char> > >, google::protobuf::Map<std::__cxx11::basic_string<char>, int>::MapAllocator<google::protobuf::Map<std::__cxx11::basic_string<char>, int>::KeyValuePair> >
   fun:CreateMaybeMessage<google::protobuf::Map<std::__cxx11::basic_string<char>, int>::InnerMap, unsigned int, google::protobuf::hash<std::__cxx11::basic_string<char, std::char_traits<char>, std::allocator<char> > >, google::protobuf::Map<std::__cxx11::basic_string<char>, int>::MapAllocator<google::protobuf::Map<std::__cxx11::basic_string<char>, int>::KeyValuePair> >
   fun:CreateNoMessage<google::protobuf::Map<std::__cxx11::basic_string<char>, int>::InnerMap, unsigned int, google::protobuf::hash<std::__cxx11::basic_string<char, std::char_traits<char>, std::allocator<char> > >, google::protobuf::Map<std::__cxx11::basic_string<char>, int>::MapAllocator<google::protobuf::Map<std::__cxx11::basic_string<char>, int>::KeyValuePair> >
   fun:Create<google::protobuf::Map<std::__cxx11::basic_string<char>, int>::InnerMap, unsigned int, google::protobuf::hash<std::__cxx11::basic_string<char, std::char_traits<char>, std::allocator<char> > >, google::protobuf::Map<std::__cxx11::basic_string<char>, int>::MapAllocator<google::protobuf::Map<std::__cxx11::basic_string<char>, int>::KeyValuePair> >
   fun:_ZN6google8protobuf3MapINSt7__cxx1112basic_stringIcSt11char_traitsIcESaIcEEEiE4InitEv
   fun:_ZN6google8protobuf3MapINSt7__cxx1112basic_stringIcSt11char_traitsIcESaIcEEEiEC1Ev
   fun:_ZN6google8protobuf8internal12MapFieldLiteIN10tensorflow37ConfigProto_DeviceCountEntry_DoNotUseENSt7__cxx1112basic_stringIcSt11char_traitsIcESaIcEEEiLNS1_14WireFormatLite9FieldTypeE9ELSC_5ELi0EEC1Ev
   fun:_ZN6google8protobuf8internal8MapFieldIN10tensorflow37ConfigProto_DeviceCountEntry_DoNotUseENSt7__cxx1112basic_stringIcSt11char_traitsIcESaIcEEEiLNS1_14WireFormatLite9FieldTypeE9ELSC_5ELi0EEC1Ev
   fun:_ZN10tensorflow11ConfigProtoC1Ev
   fun:_ZL78InitDefaultsscc_info_ConfigProto_tensorflow_2fcore_2fprotobuf_2fconfig_2eprotov
   fun:_ZN6google8protobuf8internal12_GLOBAL__N_111InitSCC_DFSEPNS1_11SCCInfoBaseE
   fun:_ZN6google8protobuf8internal11InitSCCImplEPNS1_11SCCInfoBaseE
   fun:_ZN6google8protobuf8internal7InitSCCEPNS1_11SCCInfoBaseE
   fun:_ZN6google8protobuf12_GLOBAL__N_118AddDescriptorsImplEPKNS0_8internal15DescriptorTableE
   fun:_ZN6google8protobuf8internal14AddDescriptorsEPKNS1_15DescriptorTableE
}
{
   <tensorflow_full>
   Memcheck:Leak
   match-leak-kinds: reachable
   fun:_Znwm
   fun:CreateInternal<google::protobuf::Map<unsigned int, std::__cxx11::basic_string<char> >::InnerMap, unsigned int, google::protobuf::hash<unsigned int>, google::protobuf::Map<unsigned int, std::__cxx11::basic_string<char> >::MapAllocator<google::protobuf::Map<unsigned int, std::__cxx11::basic_string<char> >::KeyValuePair> >
   fun:DoCreateMaybeMessage<google::protobuf::Map<unsigned int, std::__cxx11::basic_string<char> >::InnerMap, unsigned int, google::protobuf::hash<unsigned int>, google::protobuf::Map<unsigned int, std::__cxx11::basic_string<char> >::MapAllocator<google::protobuf::Map<unsigned int, std::__cxx11::basic_string<char> >::KeyValuePair> >
   fun:CreateMaybeMessage<google::protobuf::Map<unsigned int, std::__cxx11::basic_string<char> >::InnerMap, unsigned int, google::protobuf::hash<unsigned int>, google::protobuf::Map<unsigned int, std::__cxx11::basic_string<char> >::MapAllocator<google::protobuf::Map<unsigned int, std::__cxx11::basic_string<char> >::KeyValuePair> >
   fun:CreateNoMessage<google::protobuf::Map<unsigned int, std::__cxx11::basic_string<char> >::InnerMap, unsigned int, google::protobuf::hash<unsigned int>, google::protobuf::Map<unsigned int, std::__cxx11::basic_string<char> >::MapAllocator<google::protobuf::Map<unsigned int, std::__cxx11::basic_string<char> >::KeyValuePair> >
   fun:Create<google::protobuf::Map<unsigned int, std::__cxx11::basic_string<char> >::InnerMap, unsigned int, google::protobuf::hash<unsigned int>, google::protobuf::Map<unsigned int, std::__cxx11::basic_string<char> >::MapAllocator<google::protobuf::Map<unsigned int, std::__cxx11::basic_string<char> >::KeyValuePair> >
   fun:_ZN6google8protobuf3MapIjNSt7__cxx1112basic_stringIcSt11char_traitsIcESaIcEEEE4InitEv
   fun:_ZN6google8protobuf3MapIjNSt7__cxx1112basic_stringIcSt11char_traitsIcESaIcEEEEC1Ev
   fun:_ZN6google8protobuf8internal12MapFieldLiteIN10tensorflow41DeviceStepStats_ThreadNamesEntry_DoNotUseEjNSt7__cxx1112basic_stringIcSt11char_traitsIcESaIcEEELNS1_14WireFormatLite9FieldTypeE13ELSC_9ELi0EEC1Ev
   fun:_ZN6google8protobuf8internal8MapFieldIN10tensorflow41DeviceStepStats_ThreadNamesEntry_DoNotUseEjNSt7__cxx1112basic_stringIcSt11char_traitsIcESaIcEEELNS1_14WireFormatLite9FieldTypeE13ELSC_9ELi0EEC1Ev
   fun:_ZN10tensorflow15DeviceStepStatsC1Ev
   fun:_ZL89InitDefaultsscc_info_DeviceStepStats_tensorflow_2fcore_2fframework_2fstep_5fstats_2eprotov
   fun:_ZN6google8protobuf8internal12_GLOBAL__N_111InitSCC_DFSEPNS1_11SCCInfoBaseE
   fun:_ZN6google8protobuf8internal12_GLOBAL__N_111InitSCC_DFSEPNS1_11SCCInfoBaseE
   fun:_ZN6google8protobuf8internal12_GLOBAL__N_111InitSCC_DFSEPNS1_11SCCInfoBaseE
   fun:_ZN6google8protobuf8internal11InitSCCImplEPNS1_11SCCInfoBaseE
   fun:_ZN6google8protobuf8internal7InitSCCEPNS1_11SCCInfoBaseE
}
{
   <tensorflow_full>
   Memcheck:Leak
   match-leak-kinds: reachable
   fun:_Znwm
   fun:CreateInternal<google::protobuf::Map<std::__cxx11::basic_string<char>, tensorflow::AttrValue>::InnerMap, unsigned int, google::protobuf::hash<std::__cxx11::basic_string<char, std::char_traits<char>, std::allocator<char> > >, google::protobuf::Map<std::__cxx11::basic_string<char>, tensorflow::AttrValue>::MapAllocator<google::protobuf::Map<std::__cxx11::basic_string<char>, tensorflow::AttrValue>::KeyValuePair> >
   fun:DoCreateMaybeMessage<google::protobuf::Map<std::__cxx11::basic_string<char>, tensorflow::AttrValue>::InnerMap, unsigned int, google::protobuf::hash<std::__cxx11::basic_string<char, std::char_traits<char>, std::allocator<char> > >, google::protobuf::Map<std::__cxx11::basic_string<char>, tensorflow::AttrValue>::MapAllocator<google::protobuf::Map<std::__cxx11::basic_string<char>, tensorflow::AttrValue>::KeyValuePair> >
   fun:CreateMaybeMessage<google::protobuf::Map<std::__cxx11::basic_string<char>, tensorflow::AttrValue>::InnerMap, unsigned int, google::protobuf::hash<std::__cxx11::basic_string<char, std::char_traits<char>, std::allocator<char> > >, google::protobuf::Map<std::__cxx11::basic_string<char>, tensorflow::AttrValue>::MapAllocator<google::protobuf::Map<std::__cxx11::basic_string<char>, tensorflow::AttrValue>::KeyValuePair> >
   fun:CreateNoMessage<google::protobuf::Map<std::__cxx11::basic_string<char>, tensorflow::AttrValue>::InnerMap, unsigned int, google::protobuf::hash<std::__cxx11::basic_string<char, std::char_traits<char>, std::allocator<char> > >, google::protobuf::Map<std::__cxx11::basic_string<char>, tensorflow::AttrValue>::MapAllocator<google::protobuf::Map<std::__cxx11::basic_string<char>, tensorflow::AttrValue>::KeyValuePair> >
   fun:Create<google::protobuf::Map<std::__cxx11::basic_string<char>, tensorflow::AttrValue>::InnerMap, unsigned int, google::protobuf::hash<std::__cxx11::basic_string<char, std::char_traits<char>, std::allocator<char> > >, google::protobuf::Map<std::__cxx11::basic_string<char>, tensorflow::AttrValue>::MapAllocator<google::protobuf::Map<std::__cxx11::basic_string<char>, tensorflow::AttrValue>::KeyValuePair> >
   fun:_ZN6google8protobuf3MapINSt7__cxx1112basic_stringIcSt11char_traitsIcESaIcEEEN10tensorflow9AttrValueEE4InitEv
   fun:_ZN6google8protobuf3MapINSt7__cxx1112basic_stringIcSt11char_traitsIcESaIcEEEN10tensorflow9AttrValueEEC1Ev
   fun:_ZN6google8protobuf8internal12MapFieldLiteIN10tensorflow26NodeDef_AttrEntry_DoNotUseENSt7__cxx1112basic_stringIcSt11char_traitsIcESaIcEEENS3_9AttrValueELNS1_14WireFormatLite9FieldTypeE9ELSD_11ELi0EEC1Ev
   fun:_ZN6google8protobuf8internal8MapFieldIN10tensorflow26NodeDef_AttrEntry_DoNotUseENSt7__cxx1112basic_stringIcSt11char_traitsIcESaIcEEENS3_9AttrValueELNS1_14WireFormatLite9FieldTypeE9ELSD_11ELi0EEC1Ev
   fun:_ZN10tensorflow7NodeDefC1Ev
   fun:_ZL79InitDefaultsscc_info_NodeDef_tensorflow_2fcore_2fframework_2fnode_5fdef_2eprotov
   fun:_ZN6google8protobuf8internal12_GLOBAL__N_111InitSCC_DFSEPNS1_11SCCInfoBaseE
   fun:_ZN6google8protobuf8internal12_GLOBAL__N_111InitSCC_DFSEPNS1_11SCCInfoBaseE
   fun:_ZN6google8protobuf8internal12_GLOBAL__N_111InitSCC_DFSEPNS1_11SCCInfoBaseE
   fun:_ZN6google8protobuf8internal11InitSCCImplEPNS1_11SCCInfoBaseE
   fun:_ZN6google8protobuf8internal7InitSCCEPNS1_11SCCInfoBaseE
}
{
   <tensorflow_full>
   Memcheck:Leak
   match-leak-kinds: reachable
   fun:_Znwm
   fun:CreateInternal<google::protobuf::Map<std::__cxx11::basic_string<char>, tensorflow::AttrValue>::InnerMap, unsigned int, google::protobuf::hash<std::__cxx11::basic_string<char, std::char_traits<char>, std::allocator<char> > >, google::protobuf::Map<std::__cxx11::basic_string<char>, tensorflow::AttrValue>::MapAllocator<google::protobuf::Map<std::__cxx11::basic_string<char>, tensorflow::AttrValue>::KeyValuePair> >
   fun:DoCreateMaybeMessage<google::protobuf::Map<std::__cxx11::basic_string<char>, tensorflow::AttrValue>::InnerMap, unsigned int, google::protobuf::hash<std::__cxx11::basic_string<char, std::char_traits<char>, std::allocator<char> > >, google::protobuf::Map<std::__cxx11::basic_string<char>, tensorflow::AttrValue>::MapAllocator<google::protobuf::Map<std::__cxx11::basic_string<char>, tensorflow::AttrValue>::KeyValuePair> >
   fun:CreateMaybeMessage<google::protobuf::Map<std::__cxx11::basic_string<char>, tensorflow::AttrValue>::InnerMap, unsigned int, google::protobuf::hash<std::__cxx11::basic_string<char, std::char_traits<char>, std::allocator<char> > >, google::protobuf::Map<std::__cxx11::basic_string<char>, tensorflow::AttrValue>::MapAllocator<google::protobuf::Map<std::__cxx11::basic_string<char>, tensorflow::AttrValue>::KeyValuePair> >
   fun:CreateNoMessage<google::protobuf::Map<std::__cxx11::basic_string<char>, tensorflow::AttrValue>::InnerMap, unsigned int, google::protobuf::hash<std::__cxx11::basic_string<char, std::char_traits<char>, std::allocator<char> > >, google::protobuf::Map<std::__cxx11::basic_string<char>, tensorflow::AttrValue>::MapAllocator<google::protobuf::Map<std::__cxx11::basic_string<char>, tensorflow::AttrValue>::KeyValuePair> >
   fun:Create<google::protobuf::Map<std::__cxx11::basic_string<char>, tensorflow::AttrValue>::InnerMap, unsigned int, google::protobuf::hash<std::__cxx11::basic_string<char, std::char_traits<char>, std::allocator<char> > >, google::protobuf::Map<std::__cxx11::basic_string<char>, tensorflow::AttrValue>::MapAllocator<google::protobuf::Map<std::__cxx11::basic_string<char>, tensorflow::AttrValue>::KeyValuePair> >
   fun:_ZN6google8protobuf3MapINSt7__cxx1112basic_stringIcSt11char_traitsIcESaIcEEEN10tensorflow9AttrValueEE4InitEv
   fun:_ZN6google8protobuf3MapINSt7__cxx1112basic_stringIcSt11char_traitsIcESaIcEEEN10tensorflow9AttrValueEEC1Ev
   fun:_ZN6google8protobuf8internal12MapFieldLiteIN10tensorflow39FunctionDef_ArgAttrs_AttrEntry_DoNotUseENSt7__cxx1112basic_stringIcSt11char_traitsIcESaIcEEENS3_9AttrValueELNS1_14WireFormatLite9FieldTypeE9ELSD_11ELi0EEC1Ev
   fun:_ZN6google8protobuf8internal8MapFieldIN10tensorflow39FunctionDef_ArgAttrs_AttrEntry_DoNotUseENSt7__cxx1112basic_stringIcSt11char_traitsIcESaIcEEENS3_9AttrValueELNS1_14WireFormatLite9FieldTypeE9ELSD_11ELi0EEC1Ev
   fun:_ZN10tensorflow20FunctionDef_ArgAttrsC1Ev
   fun:_ZL90InitDefaultsscc_info_FunctionDef_ArgAttrs_tensorflow_2fcore_2fframework_2ffunction_2eprotov
   fun:_ZN6google8protobuf8internal12_GLOBAL__N_111InitSCC_DFSEPNS1_11SCCInfoBaseE
   fun:_ZN6google8protobuf8internal12_GLOBAL__N_111InitSCC_DFSEPNS1_11SCCInfoBaseE
   fun:_ZN6google8protobuf8internal12_GLOBAL__N_111InitSCC_DFSEPNS1_11SCCInfoBaseE
   fun:_ZN6google8protobuf8internal12_GLOBAL__N_111InitSCC_DFSEPNS1_11SCCInfoBaseE
   fun:_ZN6google8protobuf8internal12_GLOBAL__N_111InitSCC_DFSEPNS1_11SCCInfoBaseE
}
{
   <tensorflow_full>
   Memcheck:Leak
   match-leak-kinds: reachable
   fun:_Znwm
   fun:CreateInternal<google::protobuf::Map<std::__cxx11::basic_string<char>, std::__cxx11::basic_string<char> >::InnerMap, unsigned int, google::protobuf::hash<std::__cxx11::basic_string<char, std::char_traits<char>, std::allocator<char> > >, google::protobuf::Map<std::__cxx11::basic_string<char>, std::__cxx11::basic_string<char> >::MapAllocator<google::protobuf::Map<std::__cxx11::basic_string<char>, std::__cxx11::basic_string<char> >::KeyValuePair> >
   fun:DoCreateMaybeMessage<google::protobuf::Map<std::__cxx11::basic_string<char>, std::__cxx11::basic_string<char> >::InnerMap, unsigned int, google::protobuf::hash<std::__cxx11::basic_string<char, std::char_traits<char>, std::allocator<char> > >, google::protobuf::Map<std::__cxx11::basic_string<char>, std::__cxx11::basic_string<char> >::MapAllocator<google::protobuf::Map<std::__cxx11::basic_string<char>, std::__cxx11::basic_string<char> >::KeyValuePair> >
   fun:CreateMaybeMessage<google::protobuf::Map<std::__cxx11::basic_string<char>, std::__cxx11::basic_string<char> >::InnerMap, unsigned int, google::protobuf::hash<std::__cxx11::basic_string<char, std::char_traits<char>, std::allocator<char> > >, google::protobuf::Map<std::__cxx11::basic_string<char>, std::__cxx11::basic_string<char> >::MapAllocator<google::protobuf::Map<std::__cxx11::basic_string<char>, std::__cxx11::basic_string<char> >::KeyValuePair> >
   fun:CreateNoMessage<google::protobuf::Map<std::__cxx11::basic_string<char>, std::__cxx11::basic_string<char> >::InnerMap, unsigned int, google::protobuf::hash<std::__cxx11::basic_string<char, std::char_traits<char>, std::allocator<char> > >, google::protobuf::Map<std::__cxx11::basic_string<char>, std::__cxx11::basic_string<char> >::MapAllocator<google::protobuf::Map<std::__cxx11::basic_string<char>, std::__cxx11::basic_string<char> >::KeyValuePair> >
   fun:Create<google::protobuf::Map<std::__cxx11::basic_string<char>, std::__cxx11::basic_string<char> >::InnerMap, unsigned int, google::protobuf::hash<std::__cxx11::basic_string<char, std::char_traits<char>, std::allocator<char> > >, google::protobuf::Map<std::__cxx11::basic_string<char>, std::__cxx11::basic_string<char> >::MapAllocator<google::protobuf::Map<std::__cxx11::basic_string<char>, std::__cxx11::basic_string<char> >::KeyValuePair> >
   fun:_ZN6google8protobuf3MapINSt7__cxx1112basic_stringIcSt11char_traitsIcESaIcEEES7_E4InitEv
   fun:_ZN6google8protobuf3MapINSt7__cxx1112basic_stringIcSt11char_traitsIcESaIcEEES7_EC1Ev
   fun:_ZN6google8protobuf8internal12MapFieldLiteIN10tensorflow29FunctionDef_RetEntry_DoNotUseENSt7__cxx1112basic_stringIcSt11char_traitsIcESaIcEEESA_LNS1_14WireFormatLite9FieldTypeE9ELSC_9ELi0EEC1Ev
   fun:_ZN6google8protobuf8internal8MapFieldIN10tensorflow29FunctionDef_RetEntry_DoNotUseENSt7__cxx1112basic_stringIcSt11char_traitsIcESaIcEEESA_LNS1_14WireFormatLite9FieldTypeE9ELSC_9ELi0EEC1Ev
   fun:_ZN10tensorflow11FunctionDefC1Ev
   fun:_ZL81InitDefaultsscc_info_FunctionDef_tensorflow_2fcore_2fframework_2ffunction_2eprotov
   fun:_ZN6google8protobuf8internal12_GLOBAL__N_111InitSCC_DFSEPNS1_11SCCInfoBaseE
   fun:_ZN6google8protobuf8internal12_GLOBAL__N_111InitSCC_DFSEPNS1_11SCCInfoBaseE
   fun:_ZN6google8protobuf8internal12_GLOBAL__N_111InitSCC_DFSEPNS1_11SCCInfoBaseE
   fun:_ZN6google8protobuf8internal12_GLOBAL__N_111InitSCC_DFSEPNS1_11SCCInfoBaseE
   fun:_ZN6google8protobuf8internal11InitSCCImplEPNS1_11SCCInfoBaseE
}
{
   <tensorflow_full>
   Memcheck:Leak
   match-leak-kinds: reachable
   fun:_Znwm
   fun:CreateInternal<google::protobuf::Map<std::__cxx11::basic_string<char>, tensorflow::AttrValue>::InnerMap, unsigned int, google::protobuf::hash<std::__cxx11::basic_string<char, std::char_traits<char>, std::allocator<char> > >, google::protobuf::Map<std::__cxx11::basic_string<char>, tensorflow::AttrValue>::MapAllocator<google::protobuf::Map<std::__cxx11::basic_string<char>, tensorflow::AttrValue>::KeyValuePair> >
   fun:DoCreateMaybeMessage<google::protobuf::Map<std::__cxx11::basic_string<char>, tensorflow::AttrValue>::InnerMap, unsigned int, google::protobuf::hash<std::__cxx11::basic_string<char, std::char_traits<char>, std::allocator<char> > >, google::protobuf::Map<std::__cxx11::basic_string<char>, tensorflow::AttrValue>::MapAllocator<google::protobuf::Map<std::__cxx11::basic_string<char>, tensorflow::AttrValue>::KeyValuePair> >
   fun:CreateMaybeMessage<google::protobuf::Map<std::__cxx11::basic_string<char>, tensorflow::AttrValue>::InnerMap, unsigned int, google::protobuf::hash<std::__cxx11::basic_string<char, std::char_traits<char>, std::allocator<char> > >, google::protobuf::Map<std::__cxx11::basic_string<char>, tensorflow::AttrValue>::MapAllocator<google::protobuf::Map<std::__cxx11::basic_string<char>, tensorflow::AttrValue>::KeyValuePair> >
   fun:CreateNoMessage<google::protobuf::Map<std::__cxx11::basic_string<char>, tensorflow::AttrValue>::InnerMap, unsigned int, google::protobuf::hash<std::__cxx11::basic_string<char, std::char_traits<char>, std::allocator<char> > >, google::protobuf::Map<std::__cxx11::basic_string<char>, tensorflow::AttrValue>::MapAllocator<google::protobuf::Map<std::__cxx11::basic_string<char>, tensorflow::AttrValue>::KeyValuePair> >
   fun:Create<google::protobuf::Map<std::__cxx11::basic_string<char>, tensorflow::AttrValue>::InnerMap, unsigned int, google::protobuf::hash<std::__cxx11::basic_string<char, std::char_traits<char>, std::allocator<char> > >, google::protobuf::Map<std::__cxx11::basic_string<char>, tensorflow::AttrValue>::MapAllocator<google::protobuf::Map<std::__cxx11::basic_string<char>, tensorflow::AttrValue>::KeyValuePair> >
   fun:_ZN6google8protobuf3MapINSt7__cxx1112basic_stringIcSt11char_traitsIcESaIcEEEN10tensorflow9AttrValueEE4InitEv
   fun:_ZN6google8protobuf3MapINSt7__cxx1112basic_stringIcSt11char_traitsIcESaIcEEEN10tensorflow9AttrValueEEC1Ev
   fun:_ZN6google8protobuf8internal12MapFieldLiteIN10tensorflow30FunctionDef_AttrEntry_DoNotUseENSt7__cxx1112basic_stringIcSt11char_traitsIcESaIcEEENS3_9AttrValueELNS1_14WireFormatLite9FieldTypeE9ELSD_11ELi0EEC1Ev
   fun:_ZN6google8protobuf8internal8MapFieldIN10tensorflow30FunctionDef_AttrEntry_DoNotUseENSt7__cxx1112basic_stringIcSt11char_traitsIcESaIcEEENS3_9AttrValueELNS1_14WireFormatLite9FieldTypeE9ELSD_11ELi0EEC1Ev
   fun:_ZN10tensorflow11FunctionDefC1Ev
   fun:_ZL81InitDefaultsscc_info_FunctionDef_tensorflow_2fcore_2fframework_2ffunction_2eprotov
   fun:_ZN6google8protobuf8internal12_GLOBAL__N_111InitSCC_DFSEPNS1_11SCCInfoBaseE
   fun:_ZN6google8protobuf8internal12_GLOBAL__N_111InitSCC_DFSEPNS1_11SCCInfoBaseE
   fun:_ZN6google8protobuf8internal12_GLOBAL__N_111InitSCC_DFSEPNS1_11SCCInfoBaseE
   fun:_ZN6google8protobuf8internal12_GLOBAL__N_111InitSCC_DFSEPNS1_11SCCInfoBaseE
   fun:_ZN6google8protobuf8internal11InitSCCImplEPNS1_11SCCInfoBaseE
}
{
   <tensorflow_full>
   Memcheck:Leak
   match-leak-kinds: reachable
   fun:_Znwm
   fun:CreateInternal<google::protobuf::Map<std::__cxx11::basic_string<char>, std::__cxx11::basic_string<char> >::InnerMap, unsigned int, google::protobuf::hash<std::__cxx11::basic_string<char, std::char_traits<char>, std::allocator<char> > >, google::protobuf::Map<std::__cxx11::basic_string<char>, std::__cxx11::basic_string<char> >::MapAllocator<google::protobuf::Map<std::__cxx11::basic_string<char>, std::__cxx11::basic_string<char> >::KeyValuePair> >
   fun:DoCreateMaybeMessage<google::protobuf::Map<std::__cxx11::basic_string<char>, std::__cxx11::basic_string<char> >::InnerMap, unsigned int, google::protobuf::hash<std::__cxx11::basic_string<char, std::char_traits<char>, std::allocator<char> > >, google::protobuf::Map<std::__cxx11::basic_string<char>, std::__cxx11::basic_string<char> >::MapAllocator<google::protobuf::Map<std::__cxx11::basic_string<char>, std::__cxx11::basic_string<char> >::KeyValuePair> >
   fun:CreateMaybeMessage<google::protobuf::Map<std::__cxx11::basic_string<char>, std::__cxx11::basic_string<char> >::InnerMap, unsigned int, google::protobuf::hash<std::__cxx11::basic_string<char, std::char_traits<char>, std::allocator<char> > >, google::protobuf::Map<std::__cxx11::basic_string<char>, std::__cxx11::basic_string<char> >::MapAllocator<google::protobuf::Map<std::__cxx11::basic_string<char>, std::__cxx11::basic_string<char> >::KeyValuePair> >
   fun:CreateNoMessage<google::protobuf::Map<std::__cxx11::basic_string<char>, std::__cxx11::basic_string<char> >::InnerMap, unsigned int, google::protobuf::hash<std::__cxx11::basic_string<char, std::char_traits<char>, std::allocator<char> > >, google::protobuf::Map<std::__cxx11::basic_string<char>, std::__cxx11::basic_string<char> >::MapAllocator<google::protobuf::Map<std::__cxx11::basic_string<char>, std::__cxx11::basic_string<char> >::KeyValuePair> >
   fun:Create<google::protobuf::Map<std::__cxx11::basic_string<char>, std::__cxx11::basic_string<char> >::InnerMap, unsigned int, google::protobuf::hash<std::__cxx11::basic_string<char, std::char_traits<char>, std::allocator<char> > >, google::protobuf::Map<std::__cxx11::basic_string<char>, std::__cxx11::basic_string<char> >::MapAllocator<google::protobuf::Map<std::__cxx11::basic_string<char>, std::__cxx11::basic_string<char> >::KeyValuePair> >
   fun:_ZN6google8protobuf3MapINSt7__cxx1112basic_stringIcSt11char_traitsIcESaIcEEES7_E4InitEv
   fun:_ZN6google8protobuf3MapINSt7__cxx1112basic_stringIcSt11char_traitsIcESaIcEEES7_EC1Ev
   fun:_ZN6google8protobuf8internal12MapFieldLiteIN10tensorflow36FunctionDef_ControlRetEntry_DoNotUseENSt7__cxx1112basic_stringIcSt11char_traitsIcESaIcEEESA_LNS1_14WireFormatLite9FieldTypeE9ELSC_9ELi0EEC1Ev
   fun:_ZN6google8protobuf8internal8MapFieldIN10tensorflow36FunctionDef_ControlRetEntry_DoNotUseENSt7__cxx1112basic_stringIcSt11char_traitsIcESaIcEEESA_LNS1_14WireFormatLite9FieldTypeE9ELSC_9ELi0EEC1Ev
   fun:_ZN10tensorflow11FunctionDefC1Ev
   fun:_ZL81InitDefaultsscc_info_FunctionDef_tensorflow_2fcore_2fframework_2ffunction_2eprotov
   fun:_ZN6google8protobuf8internal12_GLOBAL__N_111InitSCC_DFSEPNS1_11SCCInfoBaseE
   fun:_ZN6google8protobuf8internal12_GLOBAL__N_111InitSCC_DFSEPNS1_11SCCInfoBaseE
   fun:_ZN6google8protobuf8internal12_GLOBAL__N_111InitSCC_DFSEPNS1_11SCCInfoBaseE
   fun:_ZN6google8protobuf8internal12_GLOBAL__N_111InitSCC_DFSEPNS1_11SCCInfoBaseE
   fun:_ZN6google8protobuf8internal11InitSCCImplEPNS1_11SCCInfoBaseE
}
{
   <tensorflow_full>
   Memcheck:Leak
   match-leak-kinds: reachable
   fun:_Znwm
   fun:CreateInternal<google::protobuf::Map<unsigned int, tensorflow::FunctionDef_ArgAttrs>::InnerMap, unsigned int, google::protobuf::hash<unsigned int>, google::protobuf::Map<unsigned int, tensorflow::FunctionDef_ArgAttrs>::MapAllocator<google::protobuf::Map<unsigned int, tensorflow::FunctionDef_ArgAttrs>::KeyValuePair> >
   fun:DoCreateMaybeMessage<google::protobuf::Map<unsigned int, tensorflow::FunctionDef_ArgAttrs>::InnerMap, unsigned int, google::protobuf::hash<unsigned int>, google::protobuf::Map<unsigned int, tensorflow::FunctionDef_ArgAttrs>::MapAllocator<google::protobuf::Map<unsigned int, tensorflow::FunctionDef_ArgAttrs>::KeyValuePair> >
   fun:CreateMaybeMessage<google::protobuf::Map<unsigned int, tensorflow::FunctionDef_ArgAttrs>::InnerMap, unsigned int, google::protobuf::hash<unsigned int>, google::protobuf::Map<unsigned int, tensorflow::FunctionDef_ArgAttrs>::MapAllocator<google::protobuf::Map<unsigned int, tensorflow::FunctionDef_ArgAttrs>::KeyValuePair> >
   fun:CreateNoMessage<google::protobuf::Map<unsigned int, tensorflow::FunctionDef_ArgAttrs>::InnerMap, unsigned int, google::protobuf::hash<unsigned int>, google::protobuf::Map<unsigned int, tensorflow::FunctionDef_ArgAttrs>::MapAllocator<google::protobuf::Map<unsigned int, tensorflow::FunctionDef_ArgAttrs>::KeyValuePair> >
   fun:Create<google::protobuf::Map<unsigned int, tensorflow::FunctionDef_ArgAttrs>::InnerMap, unsigned int, google::protobuf::hash<unsigned int>, google::protobuf::Map<unsigned int, tensorflow::FunctionDef_ArgAttrs>::MapAllocator<google::protobuf::Map<unsigned int, tensorflow::FunctionDef_ArgAttrs>::KeyValuePair> >
   fun:_ZN6google8protobuf3MapIjN10tensorflow20FunctionDef_ArgAttrsEE4InitEv
   fun:_ZN6google8protobuf3MapIjN10tensorflow20FunctionDef_ArgAttrsEEC1Ev
   fun:_ZN6google8protobuf8internal12MapFieldLiteIN10tensorflow33FunctionDef_ArgAttrEntry_DoNotUseEjNS3_20FunctionDef_ArgAttrsELNS1_14WireFormatLite9FieldTypeE13ELS7_11ELi0EEC1Ev
   fun:_ZN6google8protobuf8internal8MapFieldIN10tensorflow33FunctionDef_ArgAttrEntry_DoNotUseEjNS3_20FunctionDef_ArgAttrsELNS1_14WireFormatLite9FieldTypeE13ELS7_11ELi0EEC1Ev
   fun:_ZN10tensorflow11FunctionDefC1Ev
   fun:_ZL81InitDefaultsscc_info_FunctionDef_tensorflow_2fcore_2fframework_2ffunction_2eprotov
   fun:_ZN6google8protobuf8internal12_GLOBAL__N_111InitSCC_DFSEPNS1_11SCCInfoBaseE
   fun:_ZN6google8protobuf8internal12_GLOBAL__N_111InitSCC_DFSEPNS1_11SCCInfoBaseE
   fun:_ZN6google8protobuf8internal12_GLOBAL__N_111InitSCC_DFSEPNS1_11SCCInfoBaseE
   fun:_ZN6google8protobuf8internal12_GLOBAL__N_111InitSCC_DFSEPNS1_11SCCInfoBaseE
   fun:_ZN6google8protobuf8internal11InitSCCImplEPNS1_11SCCInfoBaseE
}
{
   <tensorflow_full>
   Memcheck:Leak
   match-leak-kinds: reachable
   fun:_Znwm
   fun:CreateInternal<google::protobuf::Map<unsigned int, unsigned int>::InnerMap, unsigned int, google::protobuf::hash<unsigned int>, google::protobuf::Map<unsigned int, unsigned int>::MapAllocator<google::protobuf::Map<unsigned int, unsigned int>::KeyValuePair> >
   fun:DoCreateMaybeMessage<google::protobuf::Map<unsigned int, unsigned int>::InnerMap, unsigned int, google::protobuf::hash<unsigned int>, google::protobuf::Map<unsigned int, unsigned int>::MapAllocator<google::protobuf::Map<unsigned int, unsigned int>::KeyValuePair> >
   fun:CreateMaybeMessage<google::protobuf::Map<unsigned int, unsigned int>::InnerMap, unsigned int, google::protobuf::hash<unsigned int>, google::protobuf::Map<unsigned int, unsigned int>::MapAllocator<google::protobuf::Map<unsigned int, unsigned int>::KeyValuePair> >
   fun:CreateNoMessage<google::protobuf::Map<unsigned int, unsigned int>::InnerMap, unsigned int, google::protobuf::hash<unsigned int>, google::protobuf::Map<unsigned int, unsigned int>::MapAllocator<google::protobuf::Map<unsigned int, unsigned int>::KeyValuePair> >
   fun:Create<google::protobuf::Map<unsigned int, unsigned int>::InnerMap, unsigned int, google::protobuf::hash<unsigned int>, google::protobuf::Map<unsigned int, unsigned int>::MapAllocator<google::protobuf::Map<unsigned int, unsigned int>::KeyValuePair> >
   fun:_ZN6google8protobuf3MapIjjE4InitEv
   fun:_ZN6google8protobuf3MapIjjEC1Ev
   fun:_ZN6google8protobuf8internal12MapFieldLiteIN10tensorflow45FunctionDef_ResourceArgUniqueIdEntry_DoNotUseEjjLNS1_14WireFormatLite9FieldTypeE13ELS6_13ELi0EEC1Ev
   fun:_ZN6google8protobuf8internal8MapFieldIN10tensorflow45FunctionDef_ResourceArgUniqueIdEntry_DoNotUseEjjLNS1_14WireFormatLite9FieldTypeE13ELS6_13ELi0EEC1Ev
   fun:_ZN10tensorflow11FunctionDefC1Ev
   fun:_ZL81InitDefaultsscc_info_FunctionDef_tensorflow_2fcore_2fframework_2ffunction_2eprotov
   fun:_ZN6google8protobuf8internal12_GLOBAL__N_111InitSCC_DFSEPNS1_11SCCInfoBaseE
   fun:_ZN6google8protobuf8internal12_GLOBAL__N_111InitSCC_DFSEPNS1_11SCCInfoBaseE
   fun:_ZN6google8protobuf8internal12_GLOBAL__N_111InitSCC_DFSEPNS1_11SCCInfoBaseE
   fun:_ZN6google8protobuf8internal12_GLOBAL__N_111InitSCC_DFSEPNS1_11SCCInfoBaseE
   fun:_ZN6google8protobuf8internal11InitSCCImplEPNS1_11SCCInfoBaseE
}
{
   <tensorflow_full>
   Memcheck:Leak
   match-leak-kinds: reachable
   fun:_Znwm
   fun:CreateInternal<google::protobuf::Map<int, tensorflow::TaskDeviceFilters>::InnerMap, unsigned int, google::protobuf::hash<int>, google::protobuf::Map<int, tensorflow::TaskDeviceFilters>::MapAllocator<google::protobuf::Map<int, tensorflow::TaskDeviceFilters>::KeyValuePair> >
   fun:DoCreateMaybeMessage<google::protobuf::Map<int, tensorflow::TaskDeviceFilters>::InnerMap, unsigned int, google::protobuf::hash<int>, google::protobuf::Map<int, tensorflow::TaskDeviceFilters>::MapAllocator<google::protobuf::Map<int, tensorflow::TaskDeviceFilters>::KeyValuePair> >
   fun:CreateMaybeMessage<google::protobuf::Map<int, tensorflow::TaskDeviceFilters>::InnerMap, unsigned int, google::protobuf::hash<int>, google::protobuf::Map<int, tensorflow::TaskDeviceFilters>::MapAllocator<google::protobuf::Map<int, tensorflow::TaskDeviceFilters>::KeyValuePair> >
   fun:CreateNoMessage<google::protobuf::Map<int, tensorflow::TaskDeviceFilters>::InnerMap, unsigned int, google::protobuf::hash<int>, google::protobuf::Map<int, tensorflow::TaskDeviceFilters>::MapAllocator<google::protobuf::Map<int, tensorflow::TaskDeviceFilters>::KeyValuePair> >
   fun:Create<google::protobuf::Map<int, tensorflow::TaskDeviceFilters>::InnerMap, unsigned int, google::protobuf::hash<int>, google::protobuf::Map<int, tensorflow::TaskDeviceFilters>::MapAllocator<google::protobuf::Map<int, tensorflow::TaskDeviceFilters>::KeyValuePair> >
   fun:_ZN6google8protobuf3MapIiN10tensorflow17TaskDeviceFiltersEE4InitEv
   fun:_ZN6google8protobuf3MapIiN10tensorflow17TaskDeviceFiltersEEC1Ev
   fun:_ZN6google8protobuf8internal12MapFieldLiteIN10tensorflow36JobDeviceFilters_TasksEntry_DoNotUseEiNS3_17TaskDeviceFiltersELNS1_14WireFormatLite9FieldTypeE5ELS7_11ELi0EEC1Ev
   fun:_ZN6google8protobuf8internal8MapFieldIN10tensorflow36JobDeviceFilters_TasksEntry_DoNotUseEiNS3_17TaskDeviceFiltersELNS1_14WireFormatLite9FieldTypeE5ELS7_11ELi0EEC1Ev
   fun:_ZN10tensorflow16JobDeviceFiltersC1Ev
   fun:_ZL93InitDefaultsscc_info_JobDeviceFilters_tensorflow_2fcore_2fprotobuf_2fdevice_5ffilters_2eprotov
   fun:_ZN6google8protobuf8internal12_GLOBAL__N_111InitSCC_DFSEPNS1_11SCCInfoBaseE
   fun:_ZN6google8protobuf8internal12_GLOBAL__N_111InitSCC_DFSEPNS1_11SCCInfoBaseE
   fun:_ZN6google8protobuf8internal11InitSCCImplEPNS1_11SCCInfoBaseE
   fun:_ZN6google8protobuf8internal7InitSCCEPNS1_11SCCInfoBaseE
   fun:_ZN6google8protobuf12_GLOBAL__N_118AddDescriptorsImplEPKNS0_8internal15DescriptorTableE
}
{
   <tensorflow_full>
   Memcheck:Leak
   match-leak-kinds: reachable
   fun:_Znwm
   fun:CreateInternal<google::protobuf::Map<std::__cxx11::basic_string<char>, tensorflow::GraphDebugInfo_StackTrace>::InnerMap, unsigned int, google::protobuf::hash<std::__cxx11::basic_string<char, std::char_traits<char>, std::allocator<char> > >, google::protobuf::Map<std::__cxx11::basic_string<char>, tensorflow::GraphDebugInfo_StackTrace>::MapAllocator<google::protobuf::Map<std::__cxx11::basic_string<char>, tensorflow::GraphDebugInfo_StackTrace>::KeyValuePair> >
   fun:DoCreateMaybeMessage<google::protobuf::Map<std::__cxx11::basic_string<char>, tensorflow::GraphDebugInfo_StackTrace>::InnerMap, unsigned int, google::protobuf::hash<std::__cxx11::basic_string<char, std::char_traits<char>, std::allocator<char> > >, google::protobuf::Map<std::__cxx11::basic_string<char>, tensorflow::GraphDebugInfo_StackTrace>::MapAllocator<google::protobuf::Map<std::__cxx11::basic_string<char>, tensorflow::GraphDebugInfo_StackTrace>::KeyValuePair> >
   fun:CreateMaybeMessage<google::protobuf::Map<std::__cxx11::basic_string<char>, tensorflow::GraphDebugInfo_StackTrace>::InnerMap, unsigned int, google::protobuf::hash<std::__cxx11::basic_string<char, std::char_traits<char>, std::allocator<char> > >, google::protobuf::Map<std::__cxx11::basic_string<char>, tensorflow::GraphDebugInfo_StackTrace>::MapAllocator<google::protobuf::Map<std::__cxx11::basic_string<char>, tensorflow::GraphDebugInfo_StackTrace>::KeyValuePair> >
   fun:CreateNoMessage<google::protobuf::Map<std::__cxx11::basic_string<char>, tensorflow::GraphDebugInfo_StackTrace>::InnerMap, unsigned int, google::protobuf::hash<std::__cxx11::basic_string<char, std::char_traits<char>, std::allocator<char> > >, google::protobuf::Map<std::__cxx11::basic_string<char>, tensorflow::GraphDebugInfo_StackTrace>::MapAllocator<google::protobuf::Map<std::__cxx11::basic_string<char>, tensorflow::GraphDebugInfo_StackTrace>::KeyValuePair> >
   fun:Create<google::protobuf::Map<std::__cxx11::basic_string<char>, tensorflow::GraphDebugInfo_StackTrace>::InnerMap, unsigned int, google::protobuf::hash<std::__cxx11::basic_string<char, std::char_traits<char>, std::allocator<char> > >, google::protobuf::Map<std::__cxx11::basic_string<char>, tensorflow::GraphDebugInfo_StackTrace>::MapAllocator<google::protobuf::Map<std::__cxx11::basic_string<char>, tensorflow::GraphDebugInfo_StackTrace>::KeyValuePair> >
   fun:_ZN6google8protobuf3MapINSt7__cxx1112basic_stringIcSt11char_traitsIcESaIcEEEN10tensorflow25GraphDebugInfo_StackTraceEE4InitEv
   fun:_ZN6google8protobuf3MapINSt7__cxx1112basic_stringIcSt11char_traitsIcESaIcEEEN10tensorflow25GraphDebugInfo_StackTraceEEC1Ev
   fun:_ZN6google8protobuf8internal12MapFieldLiteIN10tensorflow35GraphDebugInfo_TracesEntry_DoNotUseENSt7__cxx1112basic_stringIcSt11char_traitsIcESaIcEEENS3_25GraphDebugInfo_StackTraceELNS1_14WireFormatLite9FieldTypeE9ELSD_11ELi0EEC1Ev
   fun:_ZN6google8protobuf8internal8MapFieldIN10tensorflow35GraphDebugInfo_TracesEntry_DoNotUseENSt7__cxx1112basic_stringIcSt11char_traitsIcESaIcEEENS3_25GraphDebugInfo_StackTraceELNS1_14WireFormatLite9FieldTypeE9ELSD_11ELi0EEC1Ev
   fun:_ZN10tensorflow14GraphDebugInfoC1Ev
   fun:_ZL95InitDefaultsscc_info_GraphDebugInfo_tensorflow_2fcore_2fprotobuf_2fgraph_5fdebug_5finfo_2eprotov
   fun:_ZN6google8protobuf8internal12_GLOBAL__N_111InitSCC_DFSEPNS1_11SCCInfoBaseE
   fun:_ZN6google8protobuf8internal11InitSCCImplEPNS1_11SCCInfoBaseE
   fun:_ZN6google8protobuf8internal7InitSCCEPNS1_11SCCInfoBaseE
   fun:_ZN6google8protobuf12_GLOBAL__N_118AddDescriptorsImplEPKNS0_8internal15DescriptorTableE
   fun:_ZN6google8protobuf8internal14AddDescriptorsEPKNS1_15DescriptorTableE
}
{
   <tensorflow_full>
   Memcheck:Leak
   match-leak-kinds: reachable
   fun:_Znwm
   fun:CreateInternal<google::protobuf::Map<std::__cxx11::basic_string<char>, std::__cxx11::basic_string<char> >::InnerMap, unsigned int, google::protobuf::hash<std::__cxx11::basic_string<char, std::char_traits<char>, std::allocator<char> > >, google::protobuf::Map<std::__cxx11::basic_string<char>, std::__cxx11::basic_string<char> >::MapAllocator<google::protobuf::Map<std::__cxx11::basic_string<char>, std::__cxx11::basic_string<char> >::KeyValuePair> >
   fun:DoCreateMaybeMessage<google::protobuf::Map<std::__cxx11::basic_string<char>, std::__cxx11::basic_string<char> >::InnerMap, unsigned int, google::protobuf::hash<std::__cxx11::basic_string<char, std::char_traits<char>, std::allocator<char> > >, google::protobuf::Map<std::__cxx11::basic_string<char>, std::__cxx11::basic_string<char> >::MapAllocator<google::protobuf::Map<std::__cxx11::basic_string<char>, std::__cxx11::basic_string<char> >::KeyValuePair> >
   fun:CreateMaybeMessage<google::protobuf::Map<std::__cxx11::basic_string<char>, std::__cxx11::basic_string<char> >::InnerMap, unsigned int, google::protobuf::hash<std::__cxx11::basic_string<char, std::char_traits<char>, std::allocator<char> > >, google::protobuf::Map<std::__cxx11::basic_string<char>, std::__cxx11::basic_string<char> >::MapAllocator<google::protobuf::Map<std::__cxx11::basic_string<char>, std::__cxx11::basic_string<char> >::KeyValuePair> >
   fun:CreateNoMessage<google::protobuf::Map<std::__cxx11::basic_string<char>, std::__cxx11::basic_string<char> >::InnerMap, unsigned int, google::protobuf::hash<std::__cxx11::basic_string<char, std::char_traits<char>, std::allocator<char> > >, google::protobuf::Map<std::__cxx11::basic_string<char>, std::__cxx11::basic_string<char> >::MapAllocator<google::protobuf::Map<std::__cxx11::basic_string<char>, std::__cxx11::basic_string<char> >::KeyValuePair> >
   fun:Create<google::protobuf::Map<std::__cxx11::basic_string<char>, std::__cxx11::basic_string<char> >::InnerMap, unsigned int, google::protobuf::hash<std::__cxx11::basic_string<char, std::char_traits<char>, std::allocator<char> > >, google::protobuf::Map<std::__cxx11::basic_string<char>, std::__cxx11::basic_string<char> >::MapAllocator<google::protobuf::Map<std::__cxx11::basic_string<char>, std::__cxx11::basic_string<char> >::KeyValuePair> >
   fun:_ZN6google8protobuf3MapINSt7__cxx1112basic_stringIcSt11char_traitsIcESaIcEEES7_E4InitEv
   fun:_ZN6google8protobuf3MapINSt7__cxx1112basic_stringIcSt11char_traitsIcESaIcEEES7_EC1Ev
   fun:_ZN6google8protobuf8internal12MapFieldLiteIN10tensorflow38ValuesDef_ExternalValuesEntry_DoNotUseENSt7__cxx1112basic_stringIcSt11char_traitsIcESaIcEEESA_LNS1_14WireFormatLite9FieldTypeE9ELSC_9ELi0EEC1Ev
   fun:_ZN6google8protobuf8internal8MapFieldIN10tensorflow38ValuesDef_ExternalValuesEntry_DoNotUseENSt7__cxx1112basic_stringIcSt11char_traitsIcESaIcEEESA_LNS1_14WireFormatLite9FieldTypeE9ELSC_9ELi0EEC1Ev
   fun:_ZN10tensorflow9ValuesDefC1Ev
   fun:_ZL84InitDefaultsscc_info_ValuesDef_tensorflow_2fcore_2fprotobuf_2fcontrol_5fflow_2eprotov
   fun:_ZN6google8protobuf8internal12_GLOBAL__N_111InitSCC_DFSEPNS1_11SCCInfoBaseE
   fun:_ZN6google8protobuf8internal12_GLOBAL__N_111InitSCC_DFSEPNS1_11SCCInfoBaseE
   fun:_ZN6google8protobuf8internal11InitSCCImplEPNS1_11SCCInfoBaseE
   fun:_ZN6google8protobuf8internal7InitSCCEPNS1_11SCCInfoBaseE
   fun:_ZN6google8protobuf12_GLOBAL__N_118AddDescriptorsImplEPKNS0_8internal15DescriptorTableE
}
{
   <tensorflow_full>
   Memcheck:Leak
   match-leak-kinds: reachable
   fun:_Znwm
   fun:CreateInternal<google::protobuf::Map<std::__cxx11::basic_string<char>, tensorflow::StructuredValue>::InnerMap, unsigned int, google::protobuf::hash<std::__cxx11::basic_string<char, std::char_traits<char>, std::allocator<char> > >, google::protobuf::Map<std::__cxx11::basic_string<char>, tensorflow::StructuredValue>::MapAllocator<google::protobuf::Map<std::__cxx11::basic_string<char>, tensorflow::StructuredValue>::KeyValuePair> >
   fun:DoCreateMaybeMessage<google::protobuf::Map<std::__cxx11::basic_string<char>, tensorflow::StructuredValue>::InnerMap, unsigned int, google::protobuf::hash<std::__cxx11::basic_string<char, std::char_traits<char>, std::allocator<char> > >, google::protobuf::Map<std::__cxx11::basic_string<char>, tensorflow::StructuredValue>::MapAllocator<google::protobuf::Map<std::__cxx11::basic_string<char>, tensorflow::StructuredValue>::KeyValuePair> >
   fun:CreateMaybeMessage<google::protobuf::Map<std::__cxx11::basic_string<char>, tensorflow::StructuredValue>::InnerMap, unsigned int, google::protobuf::hash<std::__cxx11::basic_string<char, std::char_traits<char>, std::allocator<char> > >, google::protobuf::Map<std::__cxx11::basic_string<char>, tensorflow::StructuredValue>::MapAllocator<google::protobuf::Map<std::__cxx11::basic_string<char>, tensorflow::StructuredValue>::KeyValuePair> >
   fun:CreateNoMessage<google::protobuf::Map<std::__cxx11::basic_string<char>, tensorflow::StructuredValue>::InnerMap, unsigned int, google::protobuf::hash<std::__cxx11::basic_string<char, std::char_traits<char>, std::allocator<char> > >, google::protobuf::Map<std::__cxx11::basic_string<char>, tensorflow::StructuredValue>::MapAllocator<google::protobuf::Map<std::__cxx11::basic_string<char>, tensorflow::StructuredValue>::KeyValuePair> >
   fun:Create<google::protobuf::Map<std::__cxx11::basic_string<char>, tensorflow::StructuredValue>::InnerMap, unsigned int, google::protobuf::hash<std::__cxx11::basic_string<char, std::char_traits<char>, std::allocator<char> > >, google::protobuf::Map<std::__cxx11::basic_string<char>, tensorflow::StructuredValue>::MapAllocator<google::protobuf::Map<std::__cxx11::basic_string<char>, tensorflow::StructuredValue>::KeyValuePair> >
   fun:_ZN6google8protobuf3MapINSt7__cxx1112basic_stringIcSt11char_traitsIcESaIcEEEN10tensorflow15StructuredValueEE4InitEv
   fun:_ZN6google8protobuf3MapINSt7__cxx1112basic_stringIcSt11char_traitsIcESaIcEEEN10tensorflow15StructuredValueEEC1Ev
   fun:_ZN6google8protobuf8internal12MapFieldLiteIN10tensorflow30DictValue_FieldsEntry_DoNotUseENSt7__cxx1112basic_stringIcSt11char_traitsIcESaIcEEENS3_15StructuredValueELNS1_14WireFormatLite9FieldTypeE9ELSD_11ELi0EEC1Ev
   fun:_ZN6google8protobuf8internal8MapFieldIN10tensorflow30DictValue_FieldsEntry_DoNotUseENSt7__cxx1112basic_stringIcSt11char_traitsIcESaIcEEENS3_15StructuredValueELNS1_14WireFormatLite9FieldTypeE9ELSD_11ELi0EEC1Ev
   fun:_ZN10tensorflow9DictValueC1Ev
   fun:_ZL76InitDefaultsscc_info_DictValue_tensorflow_2fcore_2fprotobuf_2fstruct_2eprotov
   fun:_ZN6google8protobuf8internal12_GLOBAL__N_111InitSCC_DFSEPNS1_11SCCInfoBaseE
   fun:_ZN6google8protobuf8internal12_GLOBAL__N_111InitSCC_DFSEPNS1_11SCCInfoBaseE
   fun:_ZN6google8protobuf8internal12_GLOBAL__N_111InitSCC_DFSEPNS1_11SCCInfoBaseE
   fun:_ZN6google8protobuf8internal11InitSCCImplEPNS1_11SCCInfoBaseE
   fun:_ZN6google8protobuf8internal7InitSCCEPNS1_11SCCInfoBaseE
}
{
   <tensorflow_full>
   Memcheck:Leak
   match-leak-kinds: reachable
   fun:_Znwm
   fun:CreateInternal<google::protobuf::Map<std::__cxx11::basic_string<char>, std::__cxx11::basic_string<char> >::InnerMap, unsigned int, google::protobuf::hash<std::__cxx11::basic_string<char, std::char_traits<char>, std::allocator<char> > >, google::protobuf::Map<std::__cxx11::basic_string<char>, std::__cxx11::basic_string<char> >::MapAllocator<google::protobuf::Map<std::__cxx11::basic_string<char>, std::__cxx11::basic_string<char> >::KeyValuePair> >
   fun:DoCreateMaybeMessage<google::protobuf::Map<std::__cxx11::basic_string<char>, std::__cxx11::basic_string<char> >::InnerMap, unsigned int, google::protobuf::hash<std::__cxx11::basic_string<char, std::char_traits<char>, std::allocator<char> > >, google::protobuf::Map<std::__cxx11::basic_string<char>, std::__cxx11::basic_string<char> >::MapAllocator<google::protobuf::Map<std::__cxx11::basic_string<char>, std::__cxx11::basic_string<char> >::KeyValuePair> >
   fun:CreateMaybeMessage<google::protobuf::Map<std::__cxx11::basic_string<char>, std::__cxx11::basic_string<char> >::InnerMap, unsigned int, google::protobuf::hash<std::__cxx11::basic_string<char, std::char_traits<char>, std::allocator<char> > >, google::protobuf::Map<std::__cxx11::basic_string<char>, std::__cxx11::basic_string<char> >::MapAllocator<google::protobuf::Map<std::__cxx11::basic_string<char>, std::__cxx11::basic_string<char> >::KeyValuePair> >
   fun:CreateNoMessage<google::protobuf::Map<std::__cxx11::basic_string<char>, std::__cxx11::basic_string<char> >::InnerMap, unsigned int, google::protobuf::hash<std::__cxx11::basic_string<char, std::char_traits<char>, std::allocator<char> > >, google::protobuf::Map<std::__cxx11::basic_string<char>, std::__cxx11::basic_string<char> >::MapAllocator<google::protobuf::Map<std::__cxx11::basic_string<char>, std::__cxx11::basic_string<char> >::KeyValuePair> >
   fun:Create<google::protobuf::Map<std::__cxx11::basic_string<char>, std::__cxx11::basic_string<char> >::InnerMap, unsigned int, google::protobuf::hash<std::__cxx11::basic_string<char, std::char_traits<char>, std::allocator<char> > >, google::protobuf::Map<std::__cxx11::basic_string<char>, std::__cxx11::basic_string<char> >::MapAllocator<google::protobuf::Map<std::__cxx11::basic_string<char>, std::__cxx11::basic_string<char> >::KeyValuePair> >
   fun:_ZN6google8protobuf3MapINSt7__cxx1112basic_stringIcSt11char_traitsIcESaIcEEES7_E4InitEv
   fun:_ZN6google8protobuf3MapINSt7__cxx1112basic_stringIcSt11char_traitsIcESaIcEEES7_EC1Ev
   fun:_ZN6google8protobuf8internal12MapFieldLiteIN10tensorflow54MetaGraphDef_MetaInfoDef_FunctionAliasesEntry_DoNotUseENSt7__cxx1112basic_stringIcSt11char_traitsIcESaIcEEESA_LNS1_14WireFormatLite9FieldTypeE9ELSC_9ELi0EEC1Ev
   fun:_ZN6google8protobuf8internal8MapFieldIN10tensorflow54MetaGraphDef_MetaInfoDef_FunctionAliasesEntry_DoNotUseENSt7__cxx1112basic_stringIcSt11char_traitsIcESaIcEEESA_LNS1_14WireFormatLite9FieldTypeE9ELSC_9ELi0EEC1Ev
   fun:_ZN10tensorflow24MetaGraphDef_MetaInfoDefC1Ev
   fun:_ZL97InitDefaultsscc_info_MetaGraphDef_MetaInfoDef_tensorflow_2fcore_2fprotobuf_2fmeta_5fgraph_2eprotov
   fun:_ZN6google8protobuf8internal12_GLOBAL__N_111InitSCC_DFSEPNS1_11SCCInfoBaseE
   fun:_ZN6google8protobuf8internal12_GLOBAL__N_111InitSCC_DFSEPNS1_11SCCInfoBaseE
   fun:_ZN6google8protobuf8internal11InitSCCImplEPNS1_11SCCInfoBaseE
   fun:_ZN6google8protobuf8internal7InitSCCEPNS1_11SCCInfoBaseE
   fun:_ZN6google8protobuf12_GLOBAL__N_118AddDescriptorsImplEPKNS0_8internal15DescriptorTableE
}
{
   <tensorflow_full>
   Memcheck:Leak
   match-leak-kinds: reachable
   fun:_Znwm
   fun:CreateInternal<google::protobuf::Map<std::__cxx11::basic_string<char>, tensorflow::TensorInfo>::InnerMap, unsigned int, google::protobuf::hash<std::__cxx11::basic_string<char, std::char_traits<char>, std::allocator<char> > >, google::protobuf::Map<std::__cxx11::basic_string<char>, tensorflow::TensorInfo>::MapAllocator<google::protobuf::Map<std::__cxx11::basic_string<char>, tensorflow::TensorInfo>::KeyValuePair> >
   fun:DoCreateMaybeMessage<google::protobuf::Map<std::__cxx11::basic_string<char>, tensorflow::TensorInfo>::InnerMap, unsigned int, google::protobuf::hash<std::__cxx11::basic_string<char, std::char_traits<char>, std::allocator<char> > >, google::protobuf::Map<std::__cxx11::basic_string<char>, tensorflow::TensorInfo>::MapAllocator<google::protobuf::Map<std::__cxx11::basic_string<char>, tensorflow::TensorInfo>::KeyValuePair> >
   fun:CreateMaybeMessage<google::protobuf::Map<std::__cxx11::basic_string<char>, tensorflow::TensorInfo>::InnerMap, unsigned int, google::protobuf::hash<std::__cxx11::basic_string<char, std::char_traits<char>, std::allocator<char> > >, google::protobuf::Map<std::__cxx11::basic_string<char>, tensorflow::TensorInfo>::MapAllocator<google::protobuf::Map<std::__cxx11::basic_string<char>, tensorflow::TensorInfo>::KeyValuePair> >
   fun:CreateNoMessage<google::protobuf::Map<std::__cxx11::basic_string<char>, tensorflow::TensorInfo>::InnerMap, unsigned int, google::protobuf::hash<std::__cxx11::basic_string<char, std::char_traits<char>, std::allocator<char> > >, google::protobuf::Map<std::__cxx11::basic_string<char>, tensorflow::TensorInfo>::MapAllocator<google::protobuf::Map<std::__cxx11::basic_string<char>, tensorflow::TensorInfo>::KeyValuePair> >
   fun:Create<google::protobuf::Map<std::__cxx11::basic_string<char>, tensorflow::TensorInfo>::InnerMap, unsigned int, google::protobuf::hash<std::__cxx11::basic_string<char, std::char_traits<char>, std::allocator<char> > >, google::protobuf::Map<std::__cxx11::basic_string<char>, tensorflow::TensorInfo>::MapAllocator<google::protobuf::Map<std::__cxx11::basic_string<char>, tensorflow::TensorInfo>::KeyValuePair> >
   fun:_ZN6google8protobuf3MapINSt7__cxx1112basic_stringIcSt11char_traitsIcESaIcEEEN10tensorflow10TensorInfoEE4InitEv
   fun:_ZN6google8protobuf3MapINSt7__cxx1112basic_stringIcSt11char_traitsIcESaIcEEEN10tensorflow10TensorInfoEEC1Ev
   fun:_ZN6google8protobuf8internal12MapFieldLiteIN10tensorflow33SignatureDef_InputsEntry_DoNotUseENSt7__cxx1112basic_stringIcSt11char_traitsIcESaIcEEENS3_10TensorInfoELNS1_14WireFormatLite9FieldTypeE9ELSD_11ELi0EEC1Ev
   fun:_ZN6google8protobuf8internal8MapFieldIN10tensorflow33SignatureDef_InputsEntry_DoNotUseENSt7__cxx1112basic_stringIcSt11char_traitsIcESaIcEEENS3_10TensorInfoELNS1_14WireFormatLite9FieldTypeE9ELSD_11ELi0EEC1Ev
   fun:_ZN10tensorflow12SignatureDefC1Ev
   fun:_ZL85InitDefaultsscc_info_SignatureDef_tensorflow_2fcore_2fprotobuf_2fmeta_5fgraph_2eprotov
   fun:_ZN6google8protobuf8internal12_GLOBAL__N_111InitSCC_DFSEPNS1_11SCCInfoBaseE
   fun:_ZN6google8protobuf8internal12_GLOBAL__N_111InitSCC_DFSEPNS1_11SCCInfoBaseE
   fun:_ZN6google8protobuf8internal12_GLOBAL__N_111InitSCC_DFSEPNS1_11SCCInfoBaseE
   fun:_ZN6google8protobuf8internal11InitSCCImplEPNS1_11SCCInfoBaseE
   fun:_ZN6google8protobuf8internal7InitSCCEPNS1_11SCCInfoBaseE
}
{
   <tensorflow_full>
   Memcheck:Leak
   match-leak-kinds: reachable
   fun:_Znwm
   fun:CreateInternal<google::protobuf::Map<std::__cxx11::basic_string<char>, tensorflow::TensorInfo>::InnerMap, unsigned int, google::protobuf::hash<std::__cxx11::basic_string<char, std::char_traits<char>, std::allocator<char> > >, google::protobuf::Map<std::__cxx11::basic_string<char>, tensorflow::TensorInfo>::MapAllocator<google::protobuf::Map<std::__cxx11::basic_string<char>, tensorflow::TensorInfo>::KeyValuePair> >
   fun:DoCreateMaybeMessage<google::protobuf::Map<std::__cxx11::basic_string<char>, tensorflow::TensorInfo>::InnerMap, unsigned int, google::protobuf::hash<std::__cxx11::basic_string<char, std::char_traits<char>, std::allocator<char> > >, google::protobuf::Map<std::__cxx11::basic_string<char>, tensorflow::TensorInfo>::MapAllocator<google::protobuf::Map<std::__cxx11::basic_string<char>, tensorflow::TensorInfo>::KeyValuePair> >
   fun:CreateMaybeMessage<google::protobuf::Map<std::__cxx11::basic_string<char>, tensorflow::TensorInfo>::InnerMap, unsigned int, google::protobuf::hash<std::__cxx11::basic_string<char, std::char_traits<char>, std::allocator<char> > >, google::protobuf::Map<std::__cxx11::basic_string<char>, tensorflow::TensorInfo>::MapAllocator<google::protobuf::Map<std::__cxx11::basic_string<char>, tensorflow::TensorInfo>::KeyValuePair> >
   fun:CreateNoMessage<google::protobuf::Map<std::__cxx11::basic_string<char>, tensorflow::TensorInfo>::InnerMap, unsigned int, google::protobuf::hash<std::__cxx11::basic_string<char, std::char_traits<char>, std::allocator<char> > >, google::protobuf::Map<std::__cxx11::basic_string<char>, tensorflow::TensorInfo>::MapAllocator<google::protobuf::Map<std::__cxx11::basic_string<char>, tensorflow::TensorInfo>::KeyValuePair> >
   fun:Create<google::protobuf::Map<std::__cxx11::basic_string<char>, tensorflow::TensorInfo>::InnerMap, unsigned int, google::protobuf::hash<std::__cxx11::basic_string<char, std::char_traits<char>, std::allocator<char> > >, google::protobuf::Map<std::__cxx11::basic_string<char>, tensorflow::TensorInfo>::MapAllocator<google::protobuf::Map<std::__cxx11::basic_string<char>, tensorflow::TensorInfo>::KeyValuePair> >
   fun:_ZN6google8protobuf3MapINSt7__cxx1112basic_stringIcSt11char_traitsIcESaIcEEEN10tensorflow10TensorInfoEE4InitEv
   fun:_ZN6google8protobuf3MapINSt7__cxx1112basic_stringIcSt11char_traitsIcESaIcEEEN10tensorflow10TensorInfoEEC1Ev
   fun:_ZN6google8protobuf8internal12MapFieldLiteIN10tensorflow34SignatureDef_OutputsEntry_DoNotUseENSt7__cxx1112basic_stringIcSt11char_traitsIcESaIcEEENS3_10TensorInfoELNS1_14WireFormatLite9FieldTypeE9ELSD_11ELi0EEC1Ev
   fun:_ZN6google8protobuf8internal8MapFieldIN10tensorflow34SignatureDef_OutputsEntry_DoNotUseENSt7__cxx1112basic_stringIcSt11char_traitsIcESaIcEEENS3_10TensorInfoELNS1_14WireFormatLite9FieldTypeE9ELSD_11ELi0EEC1Ev
   fun:_ZN10tensorflow12SignatureDefC1Ev
   fun:_ZL85InitDefaultsscc_info_SignatureDef_tensorflow_2fcore_2fprotobuf_2fmeta_5fgraph_2eprotov
   fun:_ZN6google8protobuf8internal12_GLOBAL__N_111InitSCC_DFSEPNS1_11SCCInfoBaseE
   fun:_ZN6google8protobuf8internal12_GLOBAL__N_111InitSCC_DFSEPNS1_11SCCInfoBaseE
   fun:_ZN6google8protobuf8internal12_GLOBAL__N_111InitSCC_DFSEPNS1_11SCCInfoBaseE
   fun:_ZN6google8protobuf8internal11InitSCCImplEPNS1_11SCCInfoBaseE
   fun:_ZN6google8protobuf8internal7InitSCCEPNS1_11SCCInfoBaseE
}
{
   <tensorflow_full>
   Memcheck:Leak
   match-leak-kinds: reachable
   fun:_Znwm
   fun:CreateInternal<google::protobuf::Map<std::__cxx11::basic_string<char>, tensorflow::SaveableObject>::InnerMap, unsigned int, google::protobuf::hash<std::__cxx11::basic_string<char, std::char_traits<char>, std::allocator<char> > >, google::protobuf::Map<std::__cxx11::basic_string<char>, tensorflow::SaveableObject>::MapAllocator<google::protobuf::Map<std::__cxx11::basic_string<char>, tensorflow::SaveableObject>::KeyValuePair> >
   fun:DoCreateMaybeMessage<google::protobuf::Map<std::__cxx11::basic_string<char>, tensorflow::SaveableObject>::InnerMap, unsigned int, google::protobuf::hash<std::__cxx11::basic_string<char, std::char_traits<char>, std::allocator<char> > >, google::protobuf::Map<std::__cxx11::basic_string<char>, tensorflow::SaveableObject>::MapAllocator<google::protobuf::Map<std::__cxx11::basic_string<char>, tensorflow::SaveableObject>::KeyValuePair> >
   fun:CreateMaybeMessage<google::protobuf::Map<std::__cxx11::basic_string<char>, tensorflow::SaveableObject>::InnerMap, unsigned int, google::protobuf::hash<std::__cxx11::basic_string<char, std::char_traits<char>, std::allocator<char> > >, google::protobuf::Map<std::__cxx11::basic_string<char>, tensorflow::SaveableObject>::MapAllocator<google::protobuf::Map<std::__cxx11::basic_string<char>, tensorflow::SaveableObject>::KeyValuePair> >
   fun:CreateNoMessage<google::protobuf::Map<std::__cxx11::basic_string<char>, tensorflow::SaveableObject>::InnerMap, unsigned int, google::protobuf::hash<std::__cxx11::basic_string<char, std::char_traits<char>, std::allocator<char> > >, google::protobuf::Map<std::__cxx11::basic_string<char>, tensorflow::SaveableObject>::MapAllocator<google::protobuf::Map<std::__cxx11::basic_string<char>, tensorflow::SaveableObject>::KeyValuePair> >
   fun:Create<google::protobuf::Map<std::__cxx11::basic_string<char>, tensorflow::SaveableObject>::InnerMap, unsigned int, google::protobuf::hash<std::__cxx11::basic_string<char, std::char_traits<char>, std::allocator<char> > >, google::protobuf::Map<std::__cxx11::basic_string<char>, tensorflow::SaveableObject>::MapAllocator<google::protobuf::Map<std::__cxx11::basic_string<char>, tensorflow::SaveableObject>::KeyValuePair> >
   fun:_ZN6google8protobuf3MapINSt7__cxx1112basic_stringIcSt11char_traitsIcESaIcEEEN10tensorflow14SaveableObjectEE4InitEv
   fun:_ZN6google8protobuf3MapINSt7__cxx1112basic_stringIcSt11char_traitsIcESaIcEEEN10tensorflow14SaveableObjectEEC1Ev
   fun:_ZN6google8protobuf8internal12MapFieldLiteIN10tensorflow41SavedObject_SaveableObjectsEntry_DoNotUseENSt7__cxx1112basic_stringIcSt11char_traitsIcESaIcEEENS3_14SaveableObjectELNS1_14WireFormatLite9FieldTypeE9ELSD_11ELi0EEC1Ev
   fun:_ZN6google8protobuf8internal8MapFieldIN10tensorflow41SavedObject_SaveableObjectsEntry_DoNotUseENSt7__cxx1112basic_stringIcSt11char_traitsIcESaIcEEENS3_14SaveableObjectELNS1_14WireFormatLite9FieldTypeE9ELSD_11ELi0EEC1Ev
   fun:_ZN10tensorflow11SavedObjectC1Ev
   fun:_ZL94InitDefaultsscc_info_SavedObject_tensorflow_2fcore_2fprotobuf_2fsaved_5fobject_5fgraph_2eprotov
   fun:_ZN6google8protobuf8internal12_GLOBAL__N_111InitSCC_DFSEPNS1_11SCCInfoBaseE
   fun:_ZN6google8protobuf8internal12_GLOBAL__N_111InitSCC_DFSEPNS1_11SCCInfoBaseE
   fun:_ZN6google8protobuf8internal12_GLOBAL__N_111InitSCC_DFSEPNS1_11SCCInfoBaseE
   fun:_ZN6google8protobuf8internal11InitSCCImplEPNS1_11SCCInfoBaseE
   fun:_ZN6google8protobuf8internal7InitSCCEPNS1_11SCCInfoBaseE
}
{
   <tensorflow_full>
   Memcheck:Leak
   match-leak-kinds: reachable
   fun:_Znwm
   fun:CreateInternal<google::protobuf::Map<std::__cxx11::basic_string<char>, tensorflow::SavedConcreteFunction>::InnerMap, unsigned int, google::protobuf::hash<std::__cxx11::basic_string<char, std::char_traits<char>, std::allocator<char> > >, google::protobuf::Map<std::__cxx11::basic_string<char>, tensorflow::SavedConcreteFunction>::MapAllocator<google::protobuf::Map<std::__cxx11::basic_string<char>, tensorflow::SavedConcreteFunction>::KeyValuePair> >
   fun:DoCreateMaybeMessage<google::protobuf::Map<std::__cxx11::basic_string<char>, tensorflow::SavedConcreteFunction>::InnerMap, unsigned int, google::protobuf::hash<std::__cxx11::basic_string<char, std::char_traits<char>, std::allocator<char> > >, google::protobuf::Map<std::__cxx11::basic_string<char>, tensorflow::SavedConcreteFunction>::MapAllocator<google::protobuf::Map<std::__cxx11::basic_string<char>, tensorflow::SavedConcreteFunction>::KeyValuePair> >
   fun:CreateMaybeMessage<google::protobuf::Map<std::__cxx11::basic_string<char>, tensorflow::SavedConcreteFunction>::InnerMap, unsigned int, google::protobuf::hash<std::__cxx11::basic_string<char, std::char_traits<char>, std::allocator<char> > >, google::protobuf::Map<std::__cxx11::basic_string<char>, tensorflow::SavedConcreteFunction>::MapAllocator<google::protobuf::Map<std::__cxx11::basic_string<char>, tensorflow::SavedConcreteFunction>::KeyValuePair> >
   fun:CreateNoMessage<google::protobuf::Map<std::__cxx11::basic_string<char>, tensorflow::SavedConcreteFunction>::InnerMap, unsigned int, google::protobuf::hash<std::__cxx11::basic_string<char, std::char_traits<char>, std::allocator<char> > >, google::protobuf::Map<std::__cxx11::basic_string<char>, tensorflow::SavedConcreteFunction>::MapAllocator<google::protobuf::Map<std::__cxx11::basic_string<char>, tensorflow::SavedConcreteFunction>::KeyValuePair> >
   fun:Create<google::protobuf::Map<std::__cxx11::basic_string<char>, tensorflow::SavedConcreteFunction>::InnerMap, unsigned int, google::protobuf::hash<std::__cxx11::basic_string<char, std::char_traits<char>, std::allocator<char> > >, google::protobuf::Map<std::__cxx11::basic_string<char>, tensorflow::SavedConcreteFunction>::MapAllocator<google::protobuf::Map<std::__cxx11::basic_string<char>, tensorflow::SavedConcreteFunction>::KeyValuePair> >
   fun:_ZN6google8protobuf3MapINSt7__cxx1112basic_stringIcSt11char_traitsIcESaIcEEEN10tensorflow21SavedConcreteFunctionEE4InitEv
   fun:_ZN6google8protobuf3MapINSt7__cxx1112basic_stringIcSt11char_traitsIcESaIcEEEN10tensorflow21SavedConcreteFunctionEEC1Ev
   fun:_ZN6google8protobuf8internal12MapFieldLiteIN10tensorflow48SavedObjectGraph_ConcreteFunctionsEntry_DoNotUseENSt7__cxx1112basic_stringIcSt11char_traitsIcESaIcEEENS3_21SavedConcreteFunctionELNS1_14WireFormatLite9FieldTypeE9ELSD_11ELi0EEC1Ev
   fun:_ZN6google8protobuf8internal8MapFieldIN10tensorflow48SavedObjectGraph_ConcreteFunctionsEntry_DoNotUseENSt7__cxx1112basic_stringIcSt11char_traitsIcESaIcEEENS3_21SavedConcreteFunctionELNS1_14WireFormatLite9FieldTypeE9ELSD_11ELi0EEC1Ev
   fun:_ZN10tensorflow16SavedObjectGraphC1Ev
   fun:_ZL99InitDefaultsscc_info_SavedObjectGraph_tensorflow_2fcore_2fprotobuf_2fsaved_5fobject_5fgraph_2eprotov
   fun:_ZN6google8protobuf8internal12_GLOBAL__N_111InitSCC_DFSEPNS1_11SCCInfoBaseE
   fun:_ZN6google8protobuf8internal12_GLOBAL__N_111InitSCC_DFSEPNS1_11SCCInfoBaseE
   fun:_ZN6google8protobuf8internal11InitSCCImplEPNS1_11SCCInfoBaseE
   fun:_ZN6google8protobuf8internal7InitSCCEPNS1_11SCCInfoBaseE
   fun:_ZN6google8protobuf12_GLOBAL__N_118AddDescriptorsImplEPKNS0_8internal15DescriptorTableE
}
{
   <tensorflow_full>
   Memcheck:Leak
   match-leak-kinds: reachable
   fun:_Znwm
   fun:CreateInternal<google::protobuf::Map<std::__cxx11::basic_string<char>, tensorflow::CollectionDef>::InnerMap, unsigned int, google::protobuf::hash<std::__cxx11::basic_string<char, std::char_traits<char>, std::allocator<char> > >, google::protobuf::Map<std::__cxx11::basic_string<char>, tensorflow::CollectionDef>::MapAllocator<google::protobuf::Map<std::__cxx11::basic_string<char>, tensorflow::CollectionDef>::KeyValuePair> >
   fun:DoCreateMaybeMessage<google::protobuf::Map<std::__cxx11::basic_string<char>, tensorflow::CollectionDef>::InnerMap, unsigned int, google::protobuf::hash<std::__cxx11::basic_string<char, std::char_traits<char>, std::allocator<char> > >, google::protobuf::Map<std::__cxx11::basic_string<char>, tensorflow::CollectionDef>::MapAllocator<google::protobuf::Map<std::__cxx11::basic_string<char>, tensorflow::CollectionDef>::KeyValuePair> >
   fun:CreateMaybeMessage<google::protobuf::Map<std::__cxx11::basic_string<char>, tensorflow::CollectionDef>::InnerMap, unsigned int, google::protobuf::hash<std::__cxx11::basic_string<char, std::char_traits<char>, std::allocator<char> > >, google::protobuf::Map<std::__cxx11::basic_string<char>, tensorflow::CollectionDef>::MapAllocator<google::protobuf::Map<std::__cxx11::basic_string<char>, tensorflow::CollectionDef>::KeyValuePair> >
   fun:CreateNoMessage<google::protobuf::Map<std::__cxx11::basic_string<char>, tensorflow::CollectionDef>::InnerMap, unsigned int, google::protobuf::hash<std::__cxx11::basic_string<char, std::char_traits<char>, std::allocator<char> > >, google::protobuf::Map<std::__cxx11::basic_string<char>, tensorflow::CollectionDef>::MapAllocator<google::protobuf::Map<std::__cxx11::basic_string<char>, tensorflow::CollectionDef>::KeyValuePair> >
   fun:Create<google::protobuf::Map<std::__cxx11::basic_string<char>, tensorflow::CollectionDef>::InnerMap, unsigned int, google::protobuf::hash<std::__cxx11::basic_string<char, std::char_traits<char>, std::allocator<char> > >, google::protobuf::Map<std::__cxx11::basic_string<char>, tensorflow::CollectionDef>::MapAllocator<google::protobuf::Map<std::__cxx11::basic_string<char>, tensorflow::CollectionDef>::KeyValuePair> >
   fun:_ZN6google8protobuf3MapINSt7__cxx1112basic_stringIcSt11char_traitsIcESaIcEEEN10tensorflow13CollectionDefEE4InitEv
   fun:_ZN6google8protobuf3MapINSt7__cxx1112basic_stringIcSt11char_traitsIcESaIcEEEN10tensorflow13CollectionDefEEC1Ev
   fun:_ZN6google8protobuf8internal12MapFieldLiteIN10tensorflow40MetaGraphDef_CollectionDefEntry_DoNotUseENSt7__cxx1112basic_stringIcSt11char_traitsIcESaIcEEENS3_13CollectionDefELNS1_14WireFormatLite9FieldTypeE9ELSD_11ELi0EEC1Ev
   fun:_ZN6google8protobuf8internal8MapFieldIN10tensorflow40MetaGraphDef_CollectionDefEntry_DoNotUseENSt7__cxx1112basic_stringIcSt11char_traitsIcESaIcEEENS3_13CollectionDefELNS1_14WireFormatLite9FieldTypeE9ELSD_11ELi0EEC1Ev
   fun:_ZN10tensorflow12MetaGraphDefC1Ev
   fun:_ZL85InitDefaultsscc_info_MetaGraphDef_tensorflow_2fcore_2fprotobuf_2fmeta_5fgraph_2eprotov
   fun:_ZN6google8protobuf8internal12_GLOBAL__N_111InitSCC_DFSEPNS1_11SCCInfoBaseE
   fun:_ZN6google8protobuf8internal11InitSCCImplEPNS1_11SCCInfoBaseE
   fun:_ZN6google8protobuf8internal7InitSCCEPNS1_11SCCInfoBaseE
   fun:_ZN6google8protobuf12_GLOBAL__N_118AddDescriptorsImplEPKNS0_8internal15DescriptorTableE
   fun:_ZN6google8protobuf8internal14AddDescriptorsEPKNS1_15DescriptorTableE
}
{
   <tensorflow_full>
   Memcheck:Leak
   match-leak-kinds: reachable
   fun:_Znwm
   fun:CreateInternal<google::protobuf::Map<std::__cxx11::basic_string<char>, tensorflow::SignatureDef>::InnerMap, unsigned int, google::protobuf::hash<std::__cxx11::basic_string<char, std::char_traits<char>, std::allocator<char> > >, google::protobuf::Map<std::__cxx11::basic_string<char>, tensorflow::SignatureDef>::MapAllocator<google::protobuf::Map<std::__cxx11::basic_string<char>, tensorflow::SignatureDef>::KeyValuePair> >
   fun:DoCreateMaybeMessage<google::protobuf::Map<std::__cxx11::basic_string<char>, tensorflow::SignatureDef>::InnerMap, unsigned int, google::protobuf::hash<std::__cxx11::basic_string<char, std::char_traits<char>, std::allocator<char> > >, google::protobuf::Map<std::__cxx11::basic_string<char>, tensorflow::SignatureDef>::MapAllocator<google::protobuf::Map<std::__cxx11::basic_string<char>, tensorflow::SignatureDef>::KeyValuePair> >
   fun:CreateMaybeMessage<google::protobuf::Map<std::__cxx11::basic_string<char>, tensorflow::SignatureDef>::InnerMap, unsigned int, google::protobuf::hash<std::__cxx11::basic_string<char, std::char_traits<char>, std::allocator<char> > >, google::protobuf::Map<std::__cxx11::basic_string<char>, tensorflow::SignatureDef>::MapAllocator<google::protobuf::Map<std::__cxx11::basic_string<char>, tensorflow::SignatureDef>::KeyValuePair> >
   fun:CreateNoMessage<google::protobuf::Map<std::__cxx11::basic_string<char>, tensorflow::SignatureDef>::InnerMap, unsigned int, google::protobuf::hash<std::__cxx11::basic_string<char, std::char_traits<char>, std::allocator<char> > >, google::protobuf::Map<std::__cxx11::basic_string<char>, tensorflow::SignatureDef>::MapAllocator<google::protobuf::Map<std::__cxx11::basic_string<char>, tensorflow::SignatureDef>::KeyValuePair> >
   fun:Create<google::protobuf::Map<std::__cxx11::basic_string<char>, tensorflow::SignatureDef>::InnerMap, unsigned int, google::protobuf::hash<std::__cxx11::basic_string<char, std::char_traits<char>, std::allocator<char> > >, google::protobuf::Map<std::__cxx11::basic_string<char>, tensorflow::SignatureDef>::MapAllocator<google::protobuf::Map<std::__cxx11::basic_string<char>, tensorflow::SignatureDef>::KeyValuePair> >
   fun:_ZN6google8protobuf3MapINSt7__cxx1112basic_stringIcSt11char_traitsIcESaIcEEEN10tensorflow12SignatureDefEE4InitEv
   fun:_ZN6google8protobuf3MapINSt7__cxx1112basic_stringIcSt11char_traitsIcESaIcEEEN10tensorflow12SignatureDefEEC1Ev
   fun:_ZN6google8protobuf8internal12MapFieldLiteIN10tensorflow39MetaGraphDef_SignatureDefEntry_DoNotUseENSt7__cxx1112basic_stringIcSt11char_traitsIcESaIcEEENS3_12SignatureDefELNS1_14WireFormatLite9FieldTypeE9ELSD_11ELi0EEC1Ev
   fun:_ZN6google8protobuf8internal8MapFieldIN10tensorflow39MetaGraphDef_SignatureDefEntry_DoNotUseENSt7__cxx1112basic_stringIcSt11char_traitsIcESaIcEEENS3_12SignatureDefELNS1_14WireFormatLite9FieldTypeE9ELSD_11ELi0EEC1Ev
   fun:_ZN10tensorflow12MetaGraphDefC1Ev
   fun:_ZL85InitDefaultsscc_info_MetaGraphDef_tensorflow_2fcore_2fprotobuf_2fmeta_5fgraph_2eprotov
   fun:_ZN6google8protobuf8internal12_GLOBAL__N_111InitSCC_DFSEPNS1_11SCCInfoBaseE
   fun:_ZN6google8protobuf8internal11InitSCCImplEPNS1_11SCCInfoBaseE
   fun:_ZN6google8protobuf8internal7InitSCCEPNS1_11SCCInfoBaseE
   fun:_ZN6google8protobuf12_GLOBAL__N_118AddDescriptorsImplEPKNS0_8internal15DescriptorTableE
   fun:_ZN6google8protobuf8internal14AddDescriptorsEPKNS1_15DescriptorTableE
}
{
   <tensorflow_full>
   Memcheck:Leak
   match-leak-kinds: reachable
   fun:_Znwm
   fun:CreateInternal<google::protobuf::Map<std::__cxx11::basic_string<char>, tensorflow::EntryValue>::InnerMap, unsigned int, google::protobuf::hash<std::__cxx11::basic_string<char, std::char_traits<char>, std::allocator<char> > >, google::protobuf::Map<std::__cxx11::basic_string<char>, tensorflow::EntryValue>::MapAllocator<google::protobuf::Map<std::__cxx11::basic_string<char>, tensorflow::EntryValue>::KeyValuePair> >
   fun:DoCreateMaybeMessage<google::protobuf::Map<std::__cxx11::basic_string<char>, tensorflow::EntryValue>::InnerMap, unsigned int, google::protobuf::hash<std::__cxx11::basic_string<char, std::char_traits<char>, std::allocator<char> > >, google::protobuf::Map<std::__cxx11::basic_string<char>, tensorflow::EntryValue>::MapAllocator<google::protobuf::Map<std::__cxx11::basic_string<char>, tensorflow::EntryValue>::KeyValuePair> >
   fun:CreateMaybeMessage<google::protobuf::Map<std::__cxx11::basic_string<char>, tensorflow::EntryValue>::InnerMap, unsigned int, google::protobuf::hash<std::__cxx11::basic_string<char, std::char_traits<char>, std::allocator<char> > >, google::protobuf::Map<std::__cxx11::basic_string<char>, tensorflow::EntryValue>::MapAllocator<google::protobuf::Map<std::__cxx11::basic_string<char>, tensorflow::EntryValue>::KeyValuePair> >
   fun:CreateNoMessage<google::protobuf::Map<std::__cxx11::basic_string<char>, tensorflow::EntryValue>::InnerMap, unsigned int, google::protobuf::hash<std::__cxx11::basic_string<char, std::char_traits<char>, std::allocator<char> > >, google::protobuf::Map<std::__cxx11::basic_string<char>, tensorflow::EntryValue>::MapAllocator<google::protobuf::Map<std::__cxx11::basic_string<char>, tensorflow::EntryValue>::KeyValuePair> >
   fun:Create<google::protobuf::Map<std::__cxx11::basic_string<char>, tensorflow::EntryValue>::InnerMap, unsigned int, google::protobuf::hash<std::__cxx11::basic_string<char, std::char_traits<char>, std::allocator<char> > >, google::protobuf::Map<std::__cxx11::basic_string<char>, tensorflow::EntryValue>::MapAllocator<google::protobuf::Map<std::__cxx11::basic_string<char>, tensorflow::EntryValue>::KeyValuePair> >
   fun:_ZN6google8protobuf3MapINSt7__cxx1112basic_stringIcSt11char_traitsIcESaIcEEEN10tensorflow10EntryValueEE4InitEv
   fun:_ZN6google8protobuf3MapINSt7__cxx1112basic_stringIcSt11char_traitsIcESaIcEEEN10tensorflow10EntryValueEEC1Ev
   fun:_ZN6google8protobuf8internal12MapFieldLiteIN10tensorflow35BenchmarkEntry_ExtrasEntry_DoNotUseENSt7__cxx1112basic_stringIcSt11char_traitsIcESaIcEEENS3_10EntryValueELNS1_14WireFormatLite9FieldTypeE9ELSD_11ELi0EEC1Ev
   fun:_ZN6google8protobuf8internal8MapFieldIN10tensorflow35BenchmarkEntry_ExtrasEntry_DoNotUseENSt7__cxx1112basic_stringIcSt11char_traitsIcESaIcEEENS3_10EntryValueELNS1_14WireFormatLite9FieldTypeE9ELSD_11ELi0EEC1Ev
   fun:_ZN10tensorflow14BenchmarkEntryC1Ev
   fun:_ZL81InitDefaultsscc_info_BenchmarkEntry_tensorflow_2fcore_2futil_2ftest_5flog_2eprotov
   fun:_ZN6google8protobuf8internal12_GLOBAL__N_111InitSCC_DFSEPNS1_11SCCInfoBaseE
   fun:_ZN6google8protobuf8internal12_GLOBAL__N_111InitSCC_DFSEPNS1_11SCCInfoBaseE
   fun:_ZN6google8protobuf8internal11InitSCCImplEPNS1_11SCCInfoBaseE
   fun:_ZN6google8protobuf8internal7InitSCCEPNS1_11SCCInfoBaseE
   fun:_ZN6google8protobuf12_GLOBAL__N_118AddDescriptorsImplEPKNS0_8internal15DescriptorTableE
}
{
   <tensorflow_full>
   Memcheck:Leak
   match-leak-kinds: reachable
   fun:_Znwm
   fun:CreateInternal<google::protobuf::Map<std::__cxx11::basic_string<char>, long int>::InnerMap, unsigned int, google::protobuf::hash<std::__cxx11::basic_string<char, std::char_traits<char>, std::allocator<char> > >, google::protobuf::Map<std::__cxx11::basic_string<char>, long int>::MapAllocator<google::protobuf::Map<std::__cxx11::basic_string<char>, long int>::KeyValuePair> >
   fun:DoCreateMaybeMessage<google::protobuf::Map<std::__cxx11::basic_string<char>, long int>::InnerMap, unsigned int, google::protobuf::hash<std::__cxx11::basic_string<char, std::char_traits<char>, std::allocator<char> > >, google::protobuf::Map<std::__cxx11::basic_string<char>, long int>::MapAllocator<google::protobuf::Map<std::__cxx11::basic_string<char>, long int>::KeyValuePair> >
   fun:CreateMaybeMessage<google::protobuf::Map<std::__cxx11::basic_string<char>, long int>::InnerMap, unsigned int, google::protobuf::hash<std::__cxx11::basic_string<char, std::char_traits<char>, std::allocator<char> > >, google::protobuf::Map<std::__cxx11::basic_string<char>, long int>::MapAllocator<google::protobuf::Map<std::__cxx11::basic_string<char>, long int>::KeyValuePair> >
   fun:CreateNoMessage<google::protobuf::Map<std::__cxx11::basic_string<char>, long int>::InnerMap, unsigned int, google::protobuf::hash<std::__cxx11::basic_string<char, std::char_traits<char>, std::allocator<char> > >, google::protobuf::Map<std::__cxx11::basic_string<char>, long int>::MapAllocator<google::protobuf::Map<std::__cxx11::basic_string<char>, long int>::KeyValuePair> >
   fun:Create<google::protobuf::Map<std::__cxx11::basic_string<char>, long int>::InnerMap, unsigned int, google::protobuf::hash<std::__cxx11::basic_string<char, std::char_traits<char>, std::allocator<char> > >, google::protobuf::Map<std::__cxx11::basic_string<char>, long int>::MapAllocator<google::protobuf::Map<std::__cxx11::basic_string<char>, long int>::KeyValuePair> >
   fun:_ZN6google8protobuf3MapINSt7__cxx1112basic_stringIcSt11char_traitsIcESaIcEEElE4InitEv
   fun:_ZN6google8protobuf3MapINSt7__cxx1112basic_stringIcSt11char_traitsIcESaIcEEElEC1Ev
   fun:_ZN6google8protobuf8internal12MapFieldLiteIN10tensorflow31CPUInfo_CacheSizeEntry_DoNotUseENSt7__cxx1112basic_stringIcSt11char_traitsIcESaIcEEElLNS1_14WireFormatLite9FieldTypeE9ELSC_3ELi0EEC1Ev
   fun:_ZN6google8protobuf8internal8MapFieldIN10tensorflow31CPUInfo_CacheSizeEntry_DoNotUseENSt7__cxx1112basic_stringIcSt11char_traitsIcESaIcEEElLNS1_14WireFormatLite9FieldTypeE9ELSC_3ELi0EEC1Ev
   fun:_ZN10tensorflow7CPUInfoC1Ev
   fun:_ZL74InitDefaultsscc_info_CPUInfo_tensorflow_2fcore_2futil_2ftest_5flog_2eprotov
   fun:_ZN6google8protobuf8internal12_GLOBAL__N_111InitSCC_DFSEPNS1_11SCCInfoBaseE
   fun:_ZN6google8protobuf8internal11InitSCCImplEPNS1_11SCCInfoBaseE
   fun:_ZN6google8protobuf8internal7InitSCCEPNS1_11SCCInfoBaseE
   fun:_ZN6google8protobuf12_GLOBAL__N_118AddDescriptorsImplEPKNS0_8internal15DescriptorTableE
   fun:_ZN6google8protobuf8internal14AddDescriptorsEPKNS1_15DescriptorTableE
}
{
   <tensorflow_full>
   Memcheck:Leak
   match-leak-kinds: reachable
   fun:_Znwm
   fun:CreateInternal<google::protobuf::Map<std::__cxx11::basic_string<char>, std::__cxx11::basic_string<char> >::InnerMap, unsigned int, google::protobuf::hash<std::__cxx11::basic_string<char, std::char_traits<char>, std::allocator<char> > >, google::protobuf::Map<std::__cxx11::basic_string<char>, std::__cxx11::basic_string<char> >::MapAllocator<google::protobuf::Map<std::__cxx11::basic_string<char>, std::__cxx11::basic_string<char> >::KeyValuePair> >
   fun:DoCreateMaybeMessage<google::protobuf::Map<std::__cxx11::basic_string<char>, std::__cxx11::basic_string<char> >::InnerMap, unsigned int, google::protobuf::hash<std::__cxx11::basic_string<char, std::char_traits<char>, std::allocator<char> > >, google::protobuf::Map<std::__cxx11::basic_string<char>, std::__cxx11::basic_string<char> >::MapAllocator<google::protobuf::Map<std::__cxx11::basic_string<char>, std::__cxx11::basic_string<char> >::KeyValuePair> >
   fun:CreateMaybeMessage<google::protobuf::Map<std::__cxx11::basic_string<char>, std::__cxx11::basic_string<char> >::InnerMap, unsigned int, google::protobuf::hash<std::__cxx11::basic_string<char, std::char_traits<char>, std::allocator<char> > >, google::protobuf::Map<std::__cxx11::basic_string<char>, std::__cxx11::basic_string<char> >::MapAllocator<google::protobuf::Map<std::__cxx11::basic_string<char>, std::__cxx11::basic_string<char> >::KeyValuePair> >
   fun:CreateNoMessage<google::protobuf::Map<std::__cxx11::basic_string<char>, std::__cxx11::basic_string<char> >::InnerMap, unsigned int, google::protobuf::hash<std::__cxx11::basic_string<char, std::char_traits<char>, std::allocator<char> > >, google::protobuf::Map<std::__cxx11::basic_string<char>, std::__cxx11::basic_string<char> >::MapAllocator<google::protobuf::Map<std::__cxx11::basic_string<char>, std::__cxx11::basic_string<char> >::KeyValuePair> >
   fun:Create<google::protobuf::Map<std::__cxx11::basic_string<char>, std::__cxx11::basic_string<char> >::InnerMap, unsigned int, google::protobuf::hash<std::__cxx11::basic_string<char, std::char_traits<char>, std::allocator<char> > >, google::protobuf::Map<std::__cxx11::basic_string<char>, std::__cxx11::basic_string<char> >::MapAllocator<google::protobuf::Map<std::__cxx11::basic_string<char>, std::__cxx11::basic_string<char> >::KeyValuePair> >
   fun:_ZN6google8protobuf3MapINSt7__cxx1112basic_stringIcSt11char_traitsIcESaIcEEES7_E4InitEv
   fun:_ZN6google8protobuf3MapINSt7__cxx1112basic_stringIcSt11char_traitsIcESaIcEEES7_EC1Ev
   fun:_ZN6google8protobuf8internal12MapFieldLiteIN10tensorflow38RunConfiguration_EnvVarsEntry_DoNotUseENSt7__cxx1112basic_stringIcSt11char_traitsIcESaIcEEESA_LNS1_14WireFormatLite9FieldTypeE9ELSC_9ELi0EEC1Ev
   fun:_ZN6google8protobuf8internal8MapFieldIN10tensorflow38RunConfiguration_EnvVarsEntry_DoNotUseENSt7__cxx1112basic_stringIcSt11char_traitsIcESaIcEEESA_LNS1_14WireFormatLite9FieldTypeE9ELSC_9ELi0EEC1Ev
   fun:_ZN10tensorflow16RunConfigurationC1Ev
   fun:_ZL83InitDefaultsscc_info_RunConfiguration_tensorflow_2fcore_2futil_2ftest_5flog_2eprotov
   fun:_ZN6google8protobuf8internal12_GLOBAL__N_111InitSCC_DFSEPNS1_11SCCInfoBaseE
   fun:_ZN6google8protobuf8internal11InitSCCImplEPNS1_11SCCInfoBaseE
   fun:_ZN6google8protobuf8internal7InitSCCEPNS1_11SCCInfoBaseE
   fun:_ZN6google8protobuf12_GLOBAL__N_118AddDescriptorsImplEPKNS0_8internal15DescriptorTableE
   fun:_ZN6google8protobuf8internal14AddDescriptorsEPKNS1_15DescriptorTableE
}
{
   <tensorflow_full>
   Memcheck:Leak
   match-leak-kinds: reachable
   fun:_Znwm
   fun:CreateInternal<google::protobuf::Map<long int, tensorflow::profiler::XEventMetadata>::InnerMap, unsigned int, google::protobuf::hash<long int>, google::protobuf::Map<long int, tensorflow::profiler::XEventMetadata>::MapAllocator<google::protobuf::Map<long int, tensorflow::profiler::XEventMetadata>::KeyValuePair> >
   fun:DoCreateMaybeMessage<google::protobuf::Map<long int, tensorflow::profiler::XEventMetadata>::InnerMap, unsigned int, google::protobuf::hash<long int>, google::protobuf::Map<long int, tensorflow::profiler::XEventMetadata>::MapAllocator<google::protobuf::Map<long int, tensorflow::profiler::XEventMetadata>::KeyValuePair> >
   fun:CreateMaybeMessage<google::protobuf::Map<long int, tensorflow::profiler::XEventMetadata>::InnerMap, unsigned int, google::protobuf::hash<long int>, google::protobuf::Map<long int, tensorflow::profiler::XEventMetadata>::MapAllocator<google::protobuf::Map<long int, tensorflow::profiler::XEventMetadata>::KeyValuePair> >
   fun:CreateNoMessage<google::protobuf::Map<long int, tensorflow::profiler::XEventMetadata>::InnerMap, unsigned int, google::protobuf::hash<long int>, google::protobuf::Map<long int, tensorflow::profiler::XEventMetadata>::MapAllocator<google::protobuf::Map<long int, tensorflow::profiler::XEventMetadata>::KeyValuePair> >
   fun:Create<google::protobuf::Map<long int, tensorflow::profiler::XEventMetadata>::InnerMap, unsigned int, google::protobuf::hash<long int>, google::protobuf::Map<long int, tensorflow::profiler::XEventMetadata>::MapAllocator<google::protobuf::Map<long int, tensorflow::profiler::XEventMetadata>::KeyValuePair> >
   fun:_ZN6google8protobuf3MapIlN10tensorflow8profiler14XEventMetadataEE4InitEv
   fun:_ZN6google8protobuf3MapIlN10tensorflow8profiler14XEventMetadataEEC1Ev
   fun:_ZN6google8protobuf8internal12MapFieldLiteIN10tensorflow8profiler34XPlane_EventMetadataEntry_DoNotUseElNS4_14XEventMetadataELNS1_14WireFormatLite9FieldTypeE3ELS8_11ELi0EEC1Ev
   fun:_ZN6google8protobuf8internal8MapFieldIN10tensorflow8profiler34XPlane_EventMetadataEntry_DoNotUseElNS4_14XEventMetadataELNS1_14WireFormatLite9FieldTypeE3ELS8_11ELi0EEC1Ev
   fun:_ZN10tensorflow8profiler6XPlaneC1Ev
   fun:_ZL84InitDefaultsscc_info_XPlane_tensorflow_2fcore_2fprofiler_2fprotobuf_2fxplane_2eprotov
   fun:_ZN6google8protobuf8internal12_GLOBAL__N_111InitSCC_DFSEPNS1_11SCCInfoBaseE
   fun:_ZN6google8protobuf8internal11InitSCCImplEPNS1_11SCCInfoBaseE
   fun:_ZN6google8protobuf8internal7InitSCCEPNS1_11SCCInfoBaseE
   fun:_ZN6google8protobuf12_GLOBAL__N_118AddDescriptorsImplEPKNS0_8internal15DescriptorTableE
   fun:_ZN6google8protobuf8internal14AddDescriptorsEPKNS1_15DescriptorTableE
}
{
   <tensorflow_full>
   Memcheck:Leak
   match-leak-kinds: reachable
   fun:_Znwm
   fun:CreateInternal<google::protobuf::Map<long int, tensorflow::profiler::XStatMetadata>::InnerMap, unsigned int, google::protobuf::hash<long int>, google::protobuf::Map<long int, tensorflow::profiler::XStatMetadata>::MapAllocator<google::protobuf::Map<long int, tensorflow::profiler::XStatMetadata>::KeyValuePair> >
   fun:DoCreateMaybeMessage<google::protobuf::Map<long int, tensorflow::profiler::XStatMetadata>::InnerMap, unsigned int, google::protobuf::hash<long int>, google::protobuf::Map<long int, tensorflow::profiler::XStatMetadata>::MapAllocator<google::protobuf::Map<long int, tensorflow::profiler::XStatMetadata>::KeyValuePair> >
   fun:CreateMaybeMessage<google::protobuf::Map<long int, tensorflow::profiler::XStatMetadata>::InnerMap, unsigned int, google::protobuf::hash<long int>, google::protobuf::Map<long int, tensorflow::profiler::XStatMetadata>::MapAllocator<google::protobuf::Map<long int, tensorflow::profiler::XStatMetadata>::KeyValuePair> >
   fun:CreateNoMessage<google::protobuf::Map<long int, tensorflow::profiler::XStatMetadata>::InnerMap, unsigned int, google::protobuf::hash<long int>, google::protobuf::Map<long int, tensorflow::profiler::XStatMetadata>::MapAllocator<google::protobuf::Map<long int, tensorflow::profiler::XStatMetadata>::KeyValuePair> >
   fun:Create<google::protobuf::Map<long int, tensorflow::profiler::XStatMetadata>::InnerMap, unsigned int, google::protobuf::hash<long int>, google::protobuf::Map<long int, tensorflow::profiler::XStatMetadata>::MapAllocator<google::protobuf::Map<long int, tensorflow::profiler::XStatMetadata>::KeyValuePair> >
   fun:_ZN6google8protobuf3MapIlN10tensorflow8profiler13XStatMetadataEE4InitEv
   fun:_ZN6google8protobuf3MapIlN10tensorflow8profiler13XStatMetadataEEC1Ev
   fun:_ZN6google8protobuf8internal12MapFieldLiteIN10tensorflow8profiler33XPlane_StatMetadataEntry_DoNotUseElNS4_13XStatMetadataELNS1_14WireFormatLite9FieldTypeE3ELS8_11ELi0EEC1Ev
   fun:_ZN6google8protobuf8internal8MapFieldIN10tensorflow8profiler33XPlane_StatMetadataEntry_DoNotUseElNS4_13XStatMetadataELNS1_14WireFormatLite9FieldTypeE3ELS8_11ELi0EEC1Ev
   fun:_ZN10tensorflow8profiler6XPlaneC1Ev
   fun:_ZL84InitDefaultsscc_info_XPlane_tensorflow_2fcore_2fprofiler_2fprotobuf_2fxplane_2eprotov
   fun:_ZN6google8protobuf8internal12_GLOBAL__N_111InitSCC_DFSEPNS1_11SCCInfoBaseE
   fun:_ZN6google8protobuf8internal11InitSCCImplEPNS1_11SCCInfoBaseE
   fun:_ZN6google8protobuf8internal7InitSCCEPNS1_11SCCInfoBaseE
   fun:_ZN6google8protobuf12_GLOBAL__N_118AddDescriptorsImplEPKNS0_8internal15DescriptorTableE
   fun:_ZN6google8protobuf8internal14AddDescriptorsEPKNS1_15DescriptorTableE
}
{
   <tensorflow_full>
   Memcheck:Leak
   match-leak-kinds: reachable
   fun:_Znwm
   fun:_ZN9__gnu_cxx13new_allocatorINSt8__detail10_Hash_nodeINSt7__cxx1112basic_stringIcSt11char_traitsIcESaIcEEELb1EEEE8allocateEmPKv
   fun:_ZNSt16allocator_traitsISaINSt8__detail10_Hash_nodeINSt7__cxx1112basic_stringIcSt11char_traitsIcESaIcEEELb1EEEEE8allocateERS9_m
   fun:_ZNSt8__detail16_Hashtable_allocISaINS_10_Hash_nodeINSt7__cxx1112basic_stringIcSt11char_traitsIcESaIcEEELb1EEEEE16_M_allocate_nodeIJRKS7_EEEPS8_DpOT_
   fun:_ZNKSt8__detail10_AllocNodeISaINS_10_Hash_nodeINSt7__cxx1112basic_stringIcSt11char_traitsIcESaIcEEELb1EEEEEclIRKS7_EEPS8_OT_
   fun:_ZNSt10_HashtableINSt7__cxx1112basic_stringIcSt11char_traitsIcESaIcEEES5_SaIS5_ENSt8__detail9_IdentityESt8equal_toIS5_ESt4hashIS5_ENS7_18_Mod_range_hashingENS7_20_Default_ranged_hashENS7_20_Prime_rehash_policyENS7_17_Hashtable_traitsILb1ELb1ELb1EEEE9_M_insertIRKS5_NS7_10_AllocNodeISaINS7_10_Hash_nodeIS5_Lb1EEEEEEEESt4pairINS7_14_Node_iteratorIS5_Lb1ELb1EEEbEOT_RKT0_St17integral_constantIbLb1EEm
   fun:_ZNSt8__detail12_Insert_baseINSt7__cxx1112basic_stringIcSt11char_traitsIcESaIcEEES6_SaIS6_ENS_9_IdentityESt8equal_toIS6_ESt4hashIS6_ENS_18_Mod_range_hashingENS_20_Default_ranged_hashENS_20_Prime_rehash_policyENS_17_Hashtable_traitsILb1ELb1ELb1EEEE6insertERKS6_
   fun:_ZNSt13unordered_setINSt7__cxx1112basic_stringIcSt11char_traitsIcESaIcEEESt4hashIS5_ESt8equal_toIS5_ESaIS5_EE6insertERKS5_
   fun:_ZN10tensorflow22UnaryVariantOpRegistry24GetPersistentStringPieceERKNSt7__cxx1112basic_stringIcSt11char_traitsIcESaIcEEE
   fun:_ZN10tensorflow22UnaryVariantOpRegistry16RegisterDecodeFnERKNSt7__cxx1112basic_stringIcSt11char_traitsIcESaIcEEERKSt8functionIFbPNS_7VariantEEE
   fun:_ZN10tensorflow35variant_op_registry_fn_registration30UnaryVariantDecodeRegistrationINS_6TensorEEC1ERKNSt7__cxx1112basic_stringIcSt11char_traitsIcESaIcEEE
   fun:_Z41__static_initialization_and_destruction_0ii
}
{
   <tensorflow_full>
   Memcheck:Leak
   match-leak-kinds: reachable
   fun:_Znwm
   fun:_ZN9__gnu_cxx13new_allocatorINSt8__detail10_Hash_nodeINSt7__cxx1112basic_stringIcSt11char_traitsIcESaIcEEELb1EEEE8allocateEmPKv
   fun:_ZNSt16allocator_traitsISaINSt8__detail10_Hash_nodeINSt7__cxx1112basic_stringIcSt11char_traitsIcESaIcEEELb1EEEEE8allocateERS9_m
   fun:_ZNSt8__detail16_Hashtable_allocISaINS_10_Hash_nodeINSt7__cxx1112basic_stringIcSt11char_traitsIcESaIcEEELb1EEEEE16_M_allocate_nodeIJRKS7_EEEPS8_DpOT_
   fun:_ZNKSt8__detail10_AllocNodeISaINS_10_Hash_nodeINSt7__cxx1112basic_stringIcSt11char_traitsIcESaIcEEELb1EEEEEclIRKS7_EEPS8_OT_
   fun:_ZNSt10_HashtableINSt7__cxx1112basic_stringIcSt11char_traitsIcESaIcEEES5_SaIS5_ENSt8__detail9_IdentityESt8equal_toIS5_ESt4hashIS5_ENS7_18_Mod_range_hashingENS7_20_Default_ranged_hashENS7_20_Prime_rehash_policyENS7_17_Hashtable_traitsILb1ELb1ELb1EEEE9_M_insertIRKS5_NS7_10_AllocNodeISaINS7_10_Hash_nodeIS5_Lb1EEEEEEEESt4pairINS7_14_Node_iteratorIS5_Lb1ELb1EEEbEOT_RKT0_St17integral_constantIbLb1EEm
   fun:_ZNSt8__detail12_Insert_baseINSt7__cxx1112basic_stringIcSt11char_traitsIcESaIcEEES6_SaIS6_ENS_9_IdentityESt8equal_toIS6_ESt4hashIS6_ENS_18_Mod_range_hashingENS_20_Default_ranged_hashENS_20_Prime_rehash_policyENS_17_Hashtable_traitsILb1ELb1ELb1EEEE6insertERKS6_
   fun:_ZNSt13unordered_setINSt7__cxx1112basic_stringIcSt11char_traitsIcESaIcEEESt4hashIS5_ESt8equal_toIS5_ESaIS5_EE6insertERKS5_
   fun:_ZN10tensorflow22UnaryVariantOpRegistry24GetPersistentStringPieceERKNSt7__cxx1112basic_stringIcSt11char_traitsIcESaIcEEE
   fun:_ZN10tensorflow22UnaryVariantOpRegistry16RegisterDecodeFnERKNSt7__cxx1112basic_stringIcSt11char_traitsIcESaIcEEERKSt8functionIFbPNS_7VariantEEE
   fun:_ZN10tensorflow35variant_op_registry_fn_registration30UnaryVariantDecodeRegistrationIiEC1ERKNSt7__cxx1112basic_stringIcSt11char_traitsIcESaIcEEE
   fun:_Z41__static_initialization_and_destruction_0ii
}
{
   <tensorflow_full>
   Memcheck:Leak
   match-leak-kinds: reachable
   fun:_Znwm
   fun:_ZN9__gnu_cxx13new_allocatorINSt8__detail10_Hash_nodeINSt7__cxx1112basic_stringIcSt11char_traitsIcESaIcEEELb1EEEE8allocateEmPKv
   fun:_ZNSt16allocator_traitsISaINSt8__detail10_Hash_nodeINSt7__cxx1112basic_stringIcSt11char_traitsIcESaIcEEELb1EEEEE8allocateERS9_m
   fun:_ZNSt8__detail16_Hashtable_allocISaINS_10_Hash_nodeINSt7__cxx1112basic_stringIcSt11char_traitsIcESaIcEEELb1EEEEE16_M_allocate_nodeIJRKS7_EEEPS8_DpOT_
   fun:_ZNKSt8__detail10_AllocNodeISaINS_10_Hash_nodeINSt7__cxx1112basic_stringIcSt11char_traitsIcESaIcEEELb1EEEEEclIRKS7_EEPS8_OT_
   fun:_ZNSt10_HashtableINSt7__cxx1112basic_stringIcSt11char_traitsIcESaIcEEES5_SaIS5_ENSt8__detail9_IdentityESt8equal_toIS5_ESt4hashIS5_ENS7_18_Mod_range_hashingENS7_20_Default_ranged_hashENS7_20_Prime_rehash_policyENS7_17_Hashtable_traitsILb1ELb1ELb1EEEE9_M_insertIRKS5_NS7_10_AllocNodeISaINS7_10_Hash_nodeIS5_Lb1EEEEEEEESt4pairINS7_14_Node_iteratorIS5_Lb1ELb1EEEbEOT_RKT0_St17integral_constantIbLb1EEm
   fun:_ZNSt8__detail12_Insert_baseINSt7__cxx1112basic_stringIcSt11char_traitsIcESaIcEEES6_SaIS6_ENS_9_IdentityESt8equal_toIS6_ESt4hashIS6_ENS_18_Mod_range_hashingENS_20_Default_ranged_hashENS_20_Prime_rehash_policyENS_17_Hashtable_traitsILb1ELb1ELb1EEEE6insertERKS6_
   fun:_ZNSt13unordered_setINSt7__cxx1112basic_stringIcSt11char_traitsIcESaIcEEESt4hashIS5_ESt8equal_toIS5_ESaIS5_EE6insertERKS5_
   fun:_ZN10tensorflow22UnaryVariantOpRegistry24GetPersistentStringPieceERKNSt7__cxx1112basic_stringIcSt11char_traitsIcESaIcEEE
   fun:_ZN10tensorflow22UnaryVariantOpRegistry16RegisterDecodeFnERKNSt7__cxx1112basic_stringIcSt11char_traitsIcESaIcEEERKSt8functionIFbPNS_7VariantEEE
   fun:_ZN10tensorflow35variant_op_registry_fn_registration30UnaryVariantDecodeRegistrationIfEC1ERKNSt7__cxx1112basic_stringIcSt11char_traitsIcESaIcEEE
   fun:_Z41__static_initialization_and_destruction_0ii
}
{
   <tensorflow_full>
   Memcheck:Leak
   match-leak-kinds: reachable
   fun:_Znwm
   fun:_ZN9__gnu_cxx13new_allocatorINSt8__detail10_Hash_nodeINSt7__cxx1112basic_stringIcSt11char_traitsIcESaIcEEELb1EEEE8allocateEmPKv
   fun:_ZNSt16allocator_traitsISaINSt8__detail10_Hash_nodeINSt7__cxx1112basic_stringIcSt11char_traitsIcESaIcEEELb1EEEEE8allocateERS9_m
   fun:_ZNSt8__detail16_Hashtable_allocISaINS_10_Hash_nodeINSt7__cxx1112basic_stringIcSt11char_traitsIcESaIcEEELb1EEEEE16_M_allocate_nodeIJRKS7_EEEPS8_DpOT_
   fun:_ZNKSt8__detail10_AllocNodeISaINS_10_Hash_nodeINSt7__cxx1112basic_stringIcSt11char_traitsIcESaIcEEELb1EEEEEclIRKS7_EEPS8_OT_
   fun:_ZNSt10_HashtableINSt7__cxx1112basic_stringIcSt11char_traitsIcESaIcEEES5_SaIS5_ENSt8__detail9_IdentityESt8equal_toIS5_ESt4hashIS5_ENS7_18_Mod_range_hashingENS7_20_Default_ranged_hashENS7_20_Prime_rehash_policyENS7_17_Hashtable_traitsILb1ELb1ELb1EEEE9_M_insertIRKS5_NS7_10_AllocNodeISaINS7_10_Hash_nodeIS5_Lb1EEEEEEEESt4pairINS7_14_Node_iteratorIS5_Lb1ELb1EEEbEOT_RKT0_St17integral_constantIbLb1EEm
   fun:_ZNSt8__detail12_Insert_baseINSt7__cxx1112basic_stringIcSt11char_traitsIcESaIcEEES6_SaIS6_ENS_9_IdentityESt8equal_toIS6_ESt4hashIS6_ENS_18_Mod_range_hashingENS_20_Default_ranged_hashENS_20_Prime_rehash_policyENS_17_Hashtable_traitsILb1ELb1ELb1EEEE6insertERKS6_
   fun:_ZNSt13unordered_setINSt7__cxx1112basic_stringIcSt11char_traitsIcESaIcEEESt4hashIS5_ESt8equal_toIS5_ESaIS5_EE6insertERKS5_
   fun:_ZN10tensorflow22UnaryVariantOpRegistry24GetPersistentStringPieceERKNSt7__cxx1112basic_stringIcSt11char_traitsIcESaIcEEE
   fun:_ZN10tensorflow22UnaryVariantOpRegistry16RegisterDecodeFnERKNSt7__cxx1112basic_stringIcSt11char_traitsIcESaIcEEERKSt8functionIFbPNS_7VariantEEE
   fun:_ZN10tensorflow35variant_op_registry_fn_registration30UnaryVariantDecodeRegistrationIbEC1ERKNSt7__cxx1112basic_stringIcSt11char_traitsIcESaIcEEE
   fun:_Z41__static_initialization_and_destruction_0ii
}
{
   <tensorflow_full>
   Memcheck:Leak
   match-leak-kinds: reachable
   fun:_Znwm
   fun:_ZN9__gnu_cxx13new_allocatorINSt8__detail10_Hash_nodeINSt7__cxx1112basic_stringIcSt11char_traitsIcESaIcEEELb1EEEE8allocateEmPKv
   fun:_ZNSt16allocator_traitsISaINSt8__detail10_Hash_nodeINSt7__cxx1112basic_stringIcSt11char_traitsIcESaIcEEELb1EEEEE8allocateERS9_m
   fun:_ZNSt8__detail16_Hashtable_allocISaINS_10_Hash_nodeINSt7__cxx1112basic_stringIcSt11char_traitsIcESaIcEEELb1EEEEE16_M_allocate_nodeIJRKS7_EEEPS8_DpOT_
   fun:_ZNKSt8__detail10_AllocNodeISaINS_10_Hash_nodeINSt7__cxx1112basic_stringIcSt11char_traitsIcESaIcEEELb1EEEEEclIRKS7_EEPS8_OT_
   fun:_ZNSt10_HashtableINSt7__cxx1112basic_stringIcSt11char_traitsIcESaIcEEES5_SaIS5_ENSt8__detail9_IdentityESt8equal_toIS5_ESt4hashIS5_ENS7_18_Mod_range_hashingENS7_20_Default_ranged_hashENS7_20_Prime_rehash_policyENS7_17_Hashtable_traitsILb1ELb1ELb1EEEE9_M_insertIRKS5_NS7_10_AllocNodeISaINS7_10_Hash_nodeIS5_Lb1EEEEEEEESt4pairINS7_14_Node_iteratorIS5_Lb1ELb1EEEbEOT_RKT0_St17integral_constantIbLb1EEm
   fun:_ZNSt8__detail12_Insert_baseINSt7__cxx1112basic_stringIcSt11char_traitsIcESaIcEEES6_SaIS6_ENS_9_IdentityESt8equal_toIS6_ESt4hashIS6_ENS_18_Mod_range_hashingENS_20_Default_ranged_hashENS_20_Prime_rehash_policyENS_17_Hashtable_traitsILb1ELb1ELb1EEEE6insertERKS6_
   fun:_ZNSt13unordered_setINSt7__cxx1112basic_stringIcSt11char_traitsIcESaIcEEESt4hashIS5_ESt8equal_toIS5_ESaIS5_EE6insertERKS5_
   fun:_ZN10tensorflow22UnaryVariantOpRegistry24GetPersistentStringPieceERKNSt7__cxx1112basic_stringIcSt11char_traitsIcESaIcEEE
   fun:_ZN10tensorflow22UnaryVariantOpRegistry16RegisterDecodeFnERKNSt7__cxx1112basic_stringIcSt11char_traitsIcESaIcEEERKSt8functionIFbPNS_7VariantEEE
   fun:_ZN10tensorflow35variant_op_registry_fn_registration30UnaryVariantDecodeRegistrationIdEC1ERKNSt7__cxx1112basic_stringIcSt11char_traitsIcESaIcEEE
   fun:_Z41__static_initialization_and_destruction_0ii
}
{
   <tensorflow_full>
   Memcheck:Leak
   match-leak-kinds: reachable
   fun:_Znwm
   fun:_ZN9__gnu_cxx13new_allocatorINSt8__detail10_Hash_nodeINSt7__cxx1112basic_stringIcSt11char_traitsIcESaIcEEELb1EEEE8allocateEmPKv
   fun:_ZNSt16allocator_traitsISaINSt8__detail10_Hash_nodeINSt7__cxx1112basic_stringIcSt11char_traitsIcESaIcEEELb1EEEEE8allocateERS9_m
   fun:_ZNSt8__detail16_Hashtable_allocISaINS_10_Hash_nodeINSt7__cxx1112basic_stringIcSt11char_traitsIcESaIcEEELb1EEEEE16_M_allocate_nodeIJRKS7_EEEPS8_DpOT_
   fun:_ZNKSt8__detail10_AllocNodeISaINS_10_Hash_nodeINSt7__cxx1112basic_stringIcSt11char_traitsIcESaIcEEELb1EEEEEclIRKS7_EEPS8_OT_
   fun:_ZNSt10_HashtableINSt7__cxx1112basic_stringIcSt11char_traitsIcESaIcEEES5_SaIS5_ENSt8__detail9_IdentityESt8equal_toIS5_ESt4hashIS5_ENS7_18_Mod_range_hashingENS7_20_Default_ranged_hashENS7_20_Prime_rehash_policyENS7_17_Hashtable_traitsILb1ELb1ELb1EEEE9_M_insertIRKS5_NS7_10_AllocNodeISaINS7_10_Hash_nodeIS5_Lb1EEEEEEEESt4pairINS7_14_Node_iteratorIS5_Lb1ELb1EEEbEOT_RKT0_St17integral_constantIbLb1EEm
   fun:_ZNSt8__detail12_Insert_baseINSt7__cxx1112basic_stringIcSt11char_traitsIcESaIcEEES6_SaIS6_ENS_9_IdentityESt8equal_toIS6_ESt4hashIS6_ENS_18_Mod_range_hashingENS_20_Default_ranged_hashENS_20_Prime_rehash_policyENS_17_Hashtable_traitsILb1ELb1ELb1EEEE6insertERKS6_
   fun:_ZNSt13unordered_setINSt7__cxx1112basic_stringIcSt11char_traitsIcESaIcEEESt4hashIS5_ESt8equal_toIS5_ESaIS5_EE6insertERKS5_
   fun:_ZN10tensorflow22UnaryVariantOpRegistry24GetPersistentStringPieceERKNSt7__cxx1112basic_stringIcSt11char_traitsIcESaIcEEE
   fun:_ZN10tensorflow22UnaryVariantOpRegistry17RegisterUnaryOpFnENS_14VariantUnaryOpERKNSt7__cxx1112basic_stringIcSt11char_traitsIcESaIcEEERKNS_9TypeIndexERKSt8functionIFNS_6StatusEPNS_15OpKernelContextERKNS_7VariantEPSH_EE
   fun:_ZN10tensorflow35variant_op_registry_fn_registration31UnaryVariantUnaryOpRegistrationIiEC1ENS_14VariantUnaryOpERKNSt7__cxx1112basic_stringIcSt11char_traitsIcESaIcEEERKNS_9TypeIndexERKSt8functionIFNS_6StatusEPNS_15OpKernelContextERKiPiEE
   fun:_Z41__static_initialization_and_destruction_0ii
}
{
   <tensorflow_full>
   Memcheck:Leak
   match-leak-kinds: reachable
   fun:_Znwm
   fun:CreateInternal<google::protobuf::Map<std::__cxx11::basic_string<char>, google::protobuf::Value>::InnerMap, unsigned int, google::protobuf::hash<std::__cxx11::basic_string<char, std::char_traits<char>, std::allocator<char> > >, google::protobuf::Map<std::__cxx11::basic_string<char>, google::protobuf::Value>::MapAllocator<google::protobuf::Map<std::__cxx11::basic_string<char>, google::protobuf::Value>::KeyValuePair> >
   fun:DoCreateMaybeMessage<google::protobuf::Map<std::__cxx11::basic_string<char>, google::protobuf::Value>::InnerMap, unsigned int, google::protobuf::hash<std::__cxx11::basic_string<char, std::char_traits<char>, std::allocator<char> > >, google::protobuf::Map<std::__cxx11::basic_string<char>, google::protobuf::Value>::MapAllocator<google::protobuf::Map<std::__cxx11::basic_string<char>, google::protobuf::Value>::KeyValuePair> >
   fun:CreateMaybeMessage<google::protobuf::Map<std::__cxx11::basic_string<char>, google::protobuf::Value>::InnerMap, unsigned int, google::protobuf::hash<std::__cxx11::basic_string<char, std::char_traits<char>, std::allocator<char> > >, google::protobuf::Map<std::__cxx11::basic_string<char>, google::protobuf::Value>::MapAllocator<google::protobuf::Map<std::__cxx11::basic_string<char>, google::protobuf::Value>::KeyValuePair> >
   fun:CreateNoMessage<google::protobuf::Map<std::__cxx11::basic_string<char>, google::protobuf::Value>::InnerMap, unsigned int, google::protobuf::hash<std::__cxx11::basic_string<char, std::char_traits<char>, std::allocator<char> > >, google::protobuf::Map<std::__cxx11::basic_string<char>, google::protobuf::Value>::MapAllocator<google::protobuf::Map<std::__cxx11::basic_string<char>, google::protobuf::Value>::KeyValuePair> >
   fun:Create<google::protobuf::Map<std::__cxx11::basic_string<char>, google::protobuf::Value>::InnerMap, unsigned int, google::protobuf::hash<std::__cxx11::basic_string<char, std::char_traits<char>, std::allocator<char> > >, google::protobuf::Map<std::__cxx11::basic_string<char>, google::protobuf::Value>::MapAllocator<google::protobuf::Map<std::__cxx11::basic_string<char>, google::protobuf::Value>::KeyValuePair> >
   fun:_ZN6google8protobuf3MapINSt7__cxx1112basic_stringIcSt11char_traitsIcESaIcEEENS0_5ValueEE4InitEv
   fun:_ZN6google8protobuf3MapINSt7__cxx1112basic_stringIcSt11char_traitsIcESaIcEEENS0_5ValueEEC1Ev
   fun:_ZN6google8protobuf8internal12MapFieldLiteINS0_27Struct_FieldsEntry_DoNotUseENSt7__cxx1112basic_stringIcSt11char_traitsIcESaIcEEENS0_5ValueELNS1_14WireFormatLite9FieldTypeE9ELSC_11ELi0EEC1Ev
   fun:_ZN6google8protobuf8internal8MapFieldINS0_27Struct_FieldsEntry_DoNotUseENSt7__cxx1112basic_stringIcSt11char_traitsIcESaIcEEENS0_5ValueELNS1_14WireFormatLite9FieldTypeE9ELSC_11ELi0EEC1Ev
   fun:_ZN6google8protobuf6StructC1Ev
   fun:_ZL65InitDefaultsscc_info_ListValue_google_2fprotobuf_2fstruct_2eprotov
   fun:_ZN6google8protobuf8internal12_GLOBAL__N_111InitSCC_DFSEPNS1_11SCCInfoBaseE
   fun:_ZN6google8protobuf8internal11InitSCCImplEPNS1_11SCCInfoBaseE
   fun:_ZN6google8protobuf8internal7InitSCCEPNS1_11SCCInfoBaseE
   fun:_ZN6google8protobuf12_GLOBAL__N_118AddDescriptorsImplEPKNS0_8internal15DescriptorTableE
   fun:_ZN6google8protobuf8internal14AddDescriptorsEPKNS1_15DescriptorTableE
}
{
   <tensorflow_full>
   Memcheck:Leak
   match-leak-kinds: reachable
   fun:_Znwm
   fun:_ZN10tensorflow12_GLOBAL__N_121GetThreadNameRegistryEv
   fun:_ZN10tensorflow12_GLOBAL__N_17PThread8ThreadFnEPv
   fun:start_thread
   fun:clone
}
{
   <tensorflow_full>
   Memcheck:Leak
   match-leak-kinds: reachable
   fun:_Znwm
   fun:CreateMessageInternal<tensorflow::TensorShapeProto>
   fun:_ZN6google8protobuf5Arena18CreateMaybeMessageIN10tensorflow16TensorShapeProtoEJEEEPT_PS1_DpOT0_
   fun:_ZN6google8protobuf11MessageLite18CreateMaybeMessageIN10tensorflow16TensorShapeProtoEEEPT_PNS0_5ArenaE
   fun:_ZN10tensorflow9AttrValue13mutable_shapeEv
   fun:_ZN10tensorflow8internal21ProtoParseFromScannerEPNS_7strings7ScannerEbbPNS_9AttrValueE
   fun:_ZN10tensorflow20ProtoParseFromStringERKNSt7__cxx1112basic_stringIcSt11char_traitsIcESaIcEEEPNS_9AttrValueE
   fun:_ZN10tensorflow14ParseAttrValueEN4absl14lts_2020_02_2511string_viewES2_PNS_9AttrValueE
   fun:_ZN10tensorflow12_GLOBAL__N_112FinalizeAttrEN4absl14lts_2020_02_2511string_viewEPNS_5OpDefEPSt6vectorINSt7__cxx1112basic_stringIcSt11char_traitsIcESaIcEEESaISC_EE
   fun:_ZNK10tensorflow12OpDefBuilder8FinalizeEPNS_18OpRegistrationDataE
   fun:_ZZN10tensorflow11register_op20OpDefBuilderReceiverC4ERKNS0_19OpDefBuilderWrapperILb1EEEENKUlPNS_18OpRegistrationDataEE_clES7_
   fun:_ZNSt17_Function_handlerIFN10tensorflow6StatusEPNS0_18OpRegistrationDataEEZNS0_11register_op20OpDefBuilderReceiverC4ERKNS5_19OpDefBuilderWrapperILb1EEEEUlS3_E_E9_M_invokeERKSt9_Any_dataOS3_
   fun:_ZNKSt8functionIFN10tensorflow6StatusEPNS0_18OpRegistrationDataEEEclES3_
}
{
   <tensorflow_full>
   Memcheck:Leak
   match-leak-kinds: reachable
   fun:_Znwm
   fun:_ZN10tensorflow4Node17GetNodeClassForOpERKNSt7__cxx1112basic_stringIcSt11char_traitsIcESaIcEEE
   fun:_ZN10tensorflow5Graph7AddNodeENS_7NodeDefEPNS_6StatusE
   fun:_ZN10tensorflow5GraphC1EPKNS_19OpRegistryInterfaceE
   fun:_ZSt11make_uniqueIN10tensorflow5GraphEJPNS0_10OpRegistryEEENSt9_MakeUniqIT_E15__single_objectEDpOT0_
   fun:_ZN10tensorflow19GraphExecutionState16MakeForBaseGraphEONS_8GraphDefERKNS_26GraphExecutionStateOptionsEPSt10unique_ptrIS0_St14default_deleteIS0_EE
   fun:_ZN10tensorflow13DirectSession12ExtendLockedENS_8GraphDefE
   fun:_ZN10tensorflow13DirectSession6CreateEONS_8GraphDefE
   fun:_ZN10tensorflow13DirectSession6CreateERKNS_8GraphDefE
   fun:_ZN12TFModelState4initEPKc
   fun:DS_CreateModel
   fun:main
}
{
   <tensorflow_full>
   Memcheck:Leak
   match-leak-kinds: reachable
   fun:_Znwm
   fun:_ZN9__gnu_cxx13new_allocatorISt13_Rb_tree_nodeISt4pairIKSt5arrayINSt7__cxx1112basic_stringIcSt11char_traitsIcESaIcEEELm0EEN10tensorflow10monitoring11CounterCellEEEE8allocateEmPKv
   fun:_ZNSt16allocator_traitsISaISt13_Rb_tree_nodeISt4pairIKSt5arrayINSt7__cxx1112basic_stringIcSt11char_traitsIcESaIcEEELm0EEN10tensorflow10monitoring11CounterCellEEEEE8allocateERSG_m
   fun:_ZNSt8_Rb_treeISt5arrayINSt7__cxx1112basic_stringIcSt11char_traitsIcESaIcEEELm0EESt4pairIKS7_N10tensorflow10monitoring11CounterCellEESt10_Select1stISD_ESt4lessIS7_ESaISD_EE11_M_get_nodeEv
   fun:_ZNSt8_Rb_treeISt5arrayINSt7__cxx1112basic_stringIcSt11char_traitsIcESaIcEEELm0EESt4pairIKS7_N10tensorflow10monitoring11CounterCellEESt10_Select1stISD_ESt4lessIS7_ESaISD_EE14_M_create_nodeIJRKSt21piecewise_construct_tSt5tupleIJRS9_EESO_IJOiEEEEEPSt13_Rb_tree_nodeISD_EDpOT_
   fun:_ZNSt8_Rb_treeISt5arrayINSt7__cxx1112basic_stringIcSt11char_traitsIcESaIcEEELm0EESt4pairIKS7_N10tensorflow10monitoring11CounterCellEESt10_Select1stISD_ESt4lessIS7_ESaISD_EE17_M_emplace_uniqueIJRKSt21piecewise_construct_tSt5tupleIJRS9_EESO_IJOiEEEEES8_ISt17_Rb_tree_iteratorISD_EbEDpOT_
   fun:_ZNSt3mapISt5arrayINSt7__cxx1112basic_stringIcSt11char_traitsIcESaIcEEELm0EEN10tensorflow10monitoring11CounterCellESt4lessIS7_ESaISt4pairIKS7_SA_EEE7emplaceIJRKSt21piecewise_construct_tSt5tupleIJRSE_EESM_IJOiEEEEESD_ISt17_Rb_tree_iteratorISF_EbEDpOT_
   fun:_ZN10tensorflow10monitoring7CounterILi0EE7GetCellIJEEEPNS0_11CounterCellEDpRKT_
   fun:_ZN10tensorflow13DirectSession3RunERKNS_10RunOptionsERKSt6vectorISt4pairINSt7__cxx1112basic_stringIcSt11char_traitsIcESaIcEEENS_6TensorEESaISD_EERKS4_ISB_SaISB_EESL_PS4_ISC_SaISC_EEPNS_11RunMetadataERKNS_6thread17ThreadPoolOptionsE
   fun:_ZN10tensorflow13DirectSession3RunERKNS_10RunOptionsERKSt6vectorISt4pairINSt7__cxx1112basic_stringIcSt11char_traitsIcESaIcEEENS_6TensorEESaISD_EERKS4_ISB_SaISB_EESL_PS4_ISC_SaISC_EEPNS_11RunMetadataE
   fun:_ZN10tensorflow13DirectSession3RunERKSt6vectorISt4pairINSt7__cxx1112basic_stringIcSt11char_traitsIcESaIcEEENS_6TensorEESaISA_EERKS1_IS8_SaIS8_EESI_PS1_IS9_SaIS9_EE
   fun:_ZN12TFModelState4initEPKc
}
{
   <tensorflow_full>
   Memcheck:Leak
   match-leak-kinds: reachable
   fun:_Znwm
   fun:_ZN10tensorflow19xla_config_registry12_GLOBAL__N_117GetSingletonStateEv
   fun:_ZN10tensorflow19xla_config_registry17GetGlobalJitLevelENS_31OptimizerOptions_GlobalJitLevelE
   fun:_ZN10tensorflow8grappler12_GLOBAL__N_116IsXlaGlobalJitOnERKNS_31OptimizerOptions_GlobalJitLevelE
   fun:_ZN10tensorflow8grappler12_GLOBAL__N_122MemoryOptimizerEnabledENS_25RewriterConfig_MemOptTypeENS_31OptimizerOptions_GlobalJitLevelE
   fun:_ZNK10tensorflow8grappler13MetaOptimizer20InitializeOptimizersEPSt6vectorISt10unique_ptrINS0_14GraphOptimizerESt14default_deleteIS4_EESaIS7_EE
   fun:_ZN10tensorflow8grappler13MetaOptimizer13OptimizeGraphEPNS0_7ClusterEONS0_12GrapplerItemEPNS_8GraphDefE
   fun:_ZN10tensorflow8grappler13MetaOptimizer19OptimizeConsumeItemEPNS0_7ClusterEONS0_12GrapplerItemEPNS_8GraphDefE
   fun:_ZN10tensorflow8grappler16RunMetaOptimizerEONS0_12GrapplerItemERKNS_11ConfigProtoEPNS_10DeviceBaseEPNS0_7ClusterEPNS_8GraphDefE
   fun:_ZN10tensorflow19GraphExecutionState13OptimizeGraphERKNS_17BuildGraphOptionsEPSt10unique_ptrINS_5GraphESt14default_deleteIS5_EEPS4_INS_25FunctionLibraryDefinitionES6_ISA_EE
   fun:_ZN10tensorflow19GraphExecutionState10BuildGraphERKNS_17BuildGraphOptionsEPSt10unique_ptrINS_11ClientGraphESt14default_deleteIS5_EE
   fun:_ZN10tensorflow13DirectSession12CreateGraphsERKNS_17BuildGraphOptionsEPSt13unordered_mapINSt7__cxx1112basic_stringIcSt11char_traitsIcESaIcEEESt10unique_ptrINS_5GraphESt14default_deleteISC_EESt4hashISA_ESt8equal_toISA_ESaISt4pairIKSA_SF_EEEPSB_INS_25FunctionLibraryDefinitionESD_ISQ_EEPNS0_12RunStateArgsEPN4absl14lts_2020_02_2513InlinedVectorINS_8DataTypeELm4ESaISZ_EEES12_Px
}
{
   <tensorflow_full>
   Memcheck:Leak
   match-leak-kinds: reachable
   fun:_Znwm
   fun:CreateInternal<google::protobuf::Map<std::__cxx11::basic_string<char>, tensorflow::AttrValue>::InnerMap, unsigned int, google::protobuf::hash<std::__cxx11::basic_string<char, std::char_traits<char>, std::allocator<char> > >, google::protobuf::Map<std::__cxx11::basic_string<char>, tensorflow::AttrValue>::MapAllocator<google::protobuf::Map<std::__cxx11::basic_string<char>, tensorflow::AttrValue>::KeyValuePair> >
   fun:DoCreateMaybeMessage<google::protobuf::Map<std::__cxx11::basic_string<char>, tensorflow::AttrValue>::InnerMap, unsigned int, google::protobuf::hash<std::__cxx11::basic_string<char, std::char_traits<char>, std::allocator<char> > >, google::protobuf::Map<std::__cxx11::basic_string<char>, tensorflow::AttrValue>::MapAllocator<google::protobuf::Map<std::__cxx11::basic_string<char>, tensorflow::AttrValue>::KeyValuePair> >
   fun:CreateMaybeMessage<google::protobuf::Map<std::__cxx11::basic_string<char>, tensorflow::AttrValue>::InnerMap, unsigned int, google::protobuf::hash<std::__cxx11::basic_string<char, std::char_traits<char>, std::allocator<char> > >, google::protobuf::Map<std::__cxx11::basic_string<char>, tensorflow::AttrValue>::MapAllocator<google::protobuf::Map<std::__cxx11::basic_string<char>, tensorflow::AttrValue>::KeyValuePair> >
   fun:CreateNoMessage<google::protobuf::Map<std::__cxx11::basic_string<char>, tensorflow::AttrValue>::InnerMap, unsigned int, google::protobuf::hash<std::__cxx11::basic_string<char, std::char_traits<char>, std::allocator<char> > >, google::protobuf::Map<std::__cxx11::basic_string<char>, tensorflow::AttrValue>::MapAllocator<google::protobuf::Map<std::__cxx11::basic_string<char>, tensorflow::AttrValue>::KeyValuePair> >
   fun:Create<google::protobuf::Map<std::__cxx11::basic_string<char>, tensorflow::AttrValue>::InnerMap, unsigned int, google::protobuf::hash<std::__cxx11::basic_string<char, std::char_traits<char>, std::allocator<char> > >, google::protobuf::Map<std::__cxx11::basic_string<char>, tensorflow::AttrValue>::MapAllocator<google::protobuf::Map<std::__cxx11::basic_string<char>, tensorflow::AttrValue>::KeyValuePair> >
   fun:_ZN6google8protobuf3MapINSt7__cxx1112basic_stringIcSt11char_traitsIcESaIcEEEN10tensorflow9AttrValueEE4InitEv
   fun:_ZN6google8protobuf3MapINSt7__cxx1112basic_stringIcSt11char_traitsIcESaIcEEEN10tensorflow9AttrValueEEC1Ev
   fun:_ZN10tensorflow9AttrSliceC1Ev
   fun:_ZN10tensorflow8grappler5utils8internal16NodeViewInternalINS1_16MutableFaninViewENS1_17MutableFanoutViewENS1_16MutableGraphViewELb0EEC1Ev
   fun:_ZN10tensorflow8grappler5utils15MutableNodeViewC1Ev
   fun:_ZSt10_ConstructIN10tensorflow8grappler5utils15MutableNodeViewEJEEvPT_DpOT0_
   fun:_ZNSt27__uninitialized_default_n_1ILb0EE18__uninit_default_nIPN10tensorflow8grappler5utils15MutableNodeViewEmEET_S7_T0_
   fun:_ZSt25__uninitialized_default_nIPN10tensorflow8grappler5utils15MutableNodeViewEmET_S5_T0_
   fun:_ZSt27__uninitialized_default_n_aIPN10tensorflow8grappler5utils15MutableNodeViewEmS3_ET_S5_T0_RSaIT1_E
   fun:_ZNSt6vectorIN10tensorflow8grappler5utils15MutableNodeViewESaIS3_EE21_M_default_initializeEm
   fun:_ZNSt6vectorIN10tensorflow8grappler5utils15MutableNodeViewESaIS3_EEC1EmRKS4_
}
{
   <tensorflow_full>
   Memcheck:Leak
   match-leak-kinds: reachable
   fun:_Znwm
   fun:_ZN9__gnu_cxx13new_allocatorISt13_Rb_tree_nodeISt4pairIKSt5arrayINSt7__cxx1112basic_stringIcSt11char_traitsIcESaIcEEELm0EEN10tensorflow10monitoring11CounterCellEEEE8allocateEmPKv
   fun:_ZNSt16allocator_traitsISaISt13_Rb_tree_nodeISt4pairIKSt5arrayINSt7__cxx1112basic_stringIcSt11char_traitsIcESaIcEEELm0EEN10tensorflow10monitoring11CounterCellEEEEE8allocateERSG_m
   fun:_ZNSt8_Rb_treeISt5arrayINSt7__cxx1112basic_stringIcSt11char_traitsIcESaIcEEELm0EESt4pairIKS7_N10tensorflow10monitoring11CounterCellEESt10_Select1stISD_ESt4lessIS7_ESaISD_EE11_M_get_nodeEv
   fun:_ZNSt8_Rb_treeISt5arrayINSt7__cxx1112basic_stringIcSt11char_traitsIcESaIcEEELm0EESt4pairIKS7_N10tensorflow10monitoring11CounterCellEESt10_Select1stISD_ESt4lessIS7_ESaISD_EE14_M_create_nodeIJRKSt21piecewise_construct_tSt5tupleIJRS9_EESO_IJOiEEEEEPSt13_Rb_tree_nodeISD_EDpOT_
   fun:_ZNSt8_Rb_treeISt5arrayINSt7__cxx1112basic_stringIcSt11char_traitsIcESaIcEEELm0EESt4pairIKS7_N10tensorflow10monitoring11CounterCellEESt10_Select1stISD_ESt4lessIS7_ESaISD_EE17_M_emplace_uniqueIJRKSt21piecewise_construct_tSt5tupleIJRS9_EESO_IJOiEEEEES8_ISt17_Rb_tree_iteratorISD_EbEDpOT_
   fun:_ZNSt3mapISt5arrayINSt7__cxx1112basic_stringIcSt11char_traitsIcESaIcEEELm0EEN10tensorflow10monitoring11CounterCellESt4lessIS7_ESaISt4pairIKS7_SA_EEE7emplaceIJRKSt21piecewise_construct_tSt5tupleIJRSE_EESM_IJOiEEEEESD_ISt17_Rb_tree_iteratorISF_EbEDpOT_
   fun:_ZN10tensorflow10monitoring7CounterILi0EE7GetCellIJEEEPNS0_11CounterCellEDpRKT_
   fun:_ZN10tensorflow7metrics20UpdateGraphBuildTimeEy
   fun:_ZN10tensorflow19GraphExecutionState10BuildGraphERKNS_17BuildGraphOptionsEPSt10unique_ptrINS_11ClientGraphESt14default_deleteIS5_EE
   fun:_ZN10tensorflow13DirectSession12CreateGraphsERKNS_17BuildGraphOptionsEPSt13unordered_mapINSt7__cxx1112basic_stringIcSt11char_traitsIcESaIcEEESt10unique_ptrINS_5GraphESt14default_deleteISC_EESt4hashISA_ESt8equal_toISA_ESaISt4pairIKSA_SF_EEEPSB_INS_25FunctionLibraryDefinitionESD_ISQ_EEPNS0_12RunStateArgsEPN4absl14lts_2020_02_2513InlinedVectorINS_8DataTypeELm4ESaISZ_EEES12_Px
   fun:_ZN10tensorflow13DirectSession15CreateExecutorsERKNS_15CallableOptionsEPSt10unique_ptrINS0_16ExecutorsAndKeysESt14default_deleteIS5_EEPS4_INS0_12FunctionInfoES6_ISA_EEPNS0_12RunStateArgsE
}
{
   <tensorflow_full>
   Memcheck:Leak
   match-leak-kinds: reachable
   fun:_Znwm
   fun:_ZN10tensorflow12_GLOBAL__N_121GetSymbolicDeviceListEv
   fun:_ZN10tensorflow25IsSymbolicExecutionDeviceEN4absl14lts_2020_02_2511string_viewE
   fun:_ZN10tensorflow12_GLOBAL__N_122FindKernelRegistrationERKNS_10DeviceTypeEN4absl14lts_2020_02_2511string_viewEbRKNS_29NodeDef_ExperimentalDebugInfoES6_NS_9AttrSliceEPPKNS_18KernelRegistrationEPb
   fun:_ZN10tensorflow12_GLOBAL__N_122FindKernelRegistrationERKNS_10DeviceTypeERKNS_7NodeDefEPPKNS_18KernelRegistrationEPb
   fun:_ZN10tensorflow14CreateOpKernelENS_10DeviceTypeEPNS_10DeviceBaseEPNS_9AllocatorEPNS_22FunctionLibraryRuntimeEPNS_11ResourceMgrERKSt10shared_ptrIKNS_14NodePropertiesEEiPPNS_8OpKernelE
   fun:_ZN10tensorflow21CreateNonCachedKernelEPNS_6DeviceEPNS_22FunctionLibraryRuntimeERKSt10shared_ptrIKNS_14NodePropertiesEEiPPNS_8OpKernelE
   fun:_ZN10tensorflow26FunctionLibraryRuntimeImpl12CreateKernelERKSt10shared_ptrIKNS_14NodePropertiesEEPNS_22FunctionLibraryRuntimeEPPNS_8OpKernelE
   fun:_ZN10tensorflow26FunctionLibraryRuntimeImpl12CreateKernelERKSt10shared_ptrIKNS_14NodePropertiesEEPPNS_8OpKernelE
   fun:_ZZN10tensorflow13DirectSession15CreateExecutorsERKNS_15CallableOptionsEPSt10unique_ptrINS0_16ExecutorsAndKeysESt14default_deleteIS5_EEPS4_INS0_12FunctionInfoES6_ISA_EEPNS0_12RunStateArgsEENKUlRKSt10shared_ptrIKNS_14NodePropertiesEEPPNS_8OpKernelEE0_clESL_SO_
   fun:_ZNSt17_Function_handlerIFN10tensorflow6StatusERKSt10shared_ptrIKNS0_14NodePropertiesEEPPNS0_8OpKernelEEZNS0_13DirectSession15CreateExecutorsERKNS0_15CallableOptionsEPSt10unique_ptrINSC_16ExecutorsAndKeysESt14default_deleteISH_EEPSG_INSC_12FunctionInfoESI_ISM_EEPNSC_12RunStateArgsEEUlS7_SA_E0_E9_M_invokeERKSt9_Any_dataS7_OSA_
   fun:_ZNKSt8functionIFN10tensorflow6StatusERKSt10shared_ptrIKNS0_14NodePropertiesEEPPNS0_8OpKernelEEEclES7_SA_
}
{
   <tensorflow_full>
   Memcheck:Leak
   match-leak-kinds: reachable
   fun:_Znwm
   fun:_ZN9__gnu_cxx13new_allocatorISt13_Rb_tree_nodeISt4pairIKSt5arrayINSt7__cxx1112basic_stringIcSt11char_traitsIcESaIcEEELm0EEN10tensorflow10monitoring11CounterCellEEEE8allocateEmPKv
   fun:_ZNSt16allocator_traitsISaISt13_Rb_tree_nodeISt4pairIKSt5arrayINSt7__cxx1112basic_stringIcSt11char_traitsIcESaIcEEELm0EEN10tensorflow10monitoring11CounterCellEEEEE8allocateERSG_m
   fun:_ZNSt8_Rb_treeISt5arrayINSt7__cxx1112basic_stringIcSt11char_traitsIcESaIcEEELm0EESt4pairIKS7_N10tensorflow10monitoring11CounterCellEESt10_Select1stISD_ESt4lessIS7_ESaISD_EE11_M_get_nodeEv
   fun:_ZNSt8_Rb_treeISt5arrayINSt7__cxx1112basic_stringIcSt11char_traitsIcESaIcEEELm0EESt4pairIKS7_N10tensorflow10monitoring11CounterCellEESt10_Select1stISD_ESt4lessIS7_ESaISD_EE14_M_create_nodeIJRKSt21piecewise_construct_tSt5tupleIJRS9_EESO_IJOiEEEEEPSt13_Rb_tree_nodeISD_EDpOT_
   fun:_ZNSt8_Rb_treeISt5arrayINSt7__cxx1112basic_stringIcSt11char_traitsIcESaIcEEELm0EESt4pairIKS7_N10tensorflow10monitoring11CounterCellEESt10_Select1stISD_ESt4lessIS7_ESaISD_EE17_M_emplace_uniqueIJRKSt21piecewise_construct_tSt5tupleIJRS9_EESO_IJOiEEEEES8_ISt17_Rb_tree_iteratorISD_EbEDpOT_
   fun:_ZNSt3mapISt5arrayINSt7__cxx1112basic_stringIcSt11char_traitsIcESaIcEEELm0EEN10tensorflow10monitoring11CounterCellESt4lessIS7_ESaISt4pairIKS7_SA_EEE7emplaceIJRKSt21piecewise_construct_tSt5tupleIJRSE_EESM_IJOiEEEEESD_ISt17_Rb_tree_iteratorISF_EbEDpOT_
   fun:_ZN10tensorflow10monitoring7CounterILi0EE7GetCellIJEEEPNS0_11CounterCellEDpRKT_
   fun:_ZN10tensorflow7metrics19UpdateGraphExecTimeEy
   fun:_ZN10tensorflow13DirectSession11RunInternalExRKNS_10RunOptionsEPNS_18CallFrameInterfaceEPNS0_16ExecutorsAndKeysEPNS_11RunMetadataERKNS_6thread17ThreadPoolOptionsE
   fun:_ZN10tensorflow13DirectSession3RunERKNS_10RunOptionsERKSt6vectorISt4pairINSt7__cxx1112basic_stringIcSt11char_traitsIcESaIcEEENS_6TensorEESaISD_EERKS4_ISB_SaISB_EESL_PS4_ISC_SaISC_EEPNS_11RunMetadataERKNS_6thread17ThreadPoolOptionsE
   fun:_ZN10tensorflow13DirectSession3RunERKNS_10RunOptionsERKSt6vectorISt4pairINSt7__cxx1112basic_stringIcSt11char_traitsIcESaIcEEENS_6TensorEESaISD_EERKS4_ISB_SaISB_EESL_PS4_ISC_SaISC_EEPNS_11RunMetadataE
}
{
   <tensorflow_full>
   Memcheck:Leak
   match-leak-kinds: reachable
   fun:_Znwm
   fun:_ZN9__gnu_cxx13new_allocatorINSt8__detail10_Hash_nodeISt4pairIKmmELb0EEEE8allocateEmPKv
   fun:_ZNSt16allocator_traitsISaINSt8__detail10_Hash_nodeISt4pairIKmmELb0EEEEE8allocateERS6_m
   fun:_ZNSt8__detail16_Hashtable_allocISaINS_10_Hash_nodeISt4pairIKmmELb0EEEEE16_M_allocate_nodeIJRKSt21piecewise_construct_tSt5tupleIJOmEESC_IJEEEEEPS5_DpOT_
   fun:_ZNSt8__detail9_Map_baseImSt4pairIKmmESaIS3_ENS_10_Select1stESt8equal_toImESt4hashImENS_18_Mod_range_hashingENS_20_Default_ranged_hashENS_20_Prime_rehash_policyENS_17_Hashtable_traitsILb0ELb0ELb1EEELb1EEixEOm
   fun:_ZNSt13unordered_mapImmSt4hashImESt8equal_toImESaISt4pairIKmmEEEixEOm
   fun:_ZN5Xbyak13MmapAllocator5allocEm
   fun:_ZN5Xbyak9CodeArrayC1EmPvPNS_9AllocatorE
   fun:_ZN5Xbyak13CodeGeneratorC1EmPvPNS_9AllocatorE
   fun:_ZN6mkldnn4impl3cpu13jit_generatorC1EPvm
   fun:_ZN6mkldnn4impl3cpu26jit_avx2_kernel_sgemm_kernC1Eb
   fun:_ZZN6mkldnn4impl3cpu11gemm_info_tIfffE8jit_initEvENKUlvE_clEv
}
{
   <tensorflow_full>
   Memcheck:Leak
   match-leak-kinds: reachable
   fun:_Znwm
   fun:_ZN10tensorflow12_GLOBAL__N_117session_factoriesEv
   fun:_ZN10tensorflow14SessionFactory8RegisterERKNSt7__cxx1112basic_stringIcSt11char_traitsIcESaIcEEEPS0_
   fun:_ZN10tensorflow22DirectSessionRegistrarC1Ev
   fun:_Z41__static_initialization_and_destruction_0ii
   fun:_GLOBAL__sub_I_direct_session.cc
}
{
   <tensorflow_full>
   Memcheck:Leak
   match-leak-kinds: reachable
   fun:_Znwm
   fun:_ZN9__gnu_cxx13new_allocatorINSt8__detail10_Hash_nodeISt4pairIKNSt7__cxx1112basic_stringIcSt11char_traitsIcESaIcEEEPN10tensorflow14SessionFactoryEELb1EEEE8allocateEmPKv
   fun:_ZNSt16allocator_traitsISaINSt8__detail10_Hash_nodeISt4pairIKNSt7__cxx1112basic_stringIcSt11char_traitsIcESaIcEEEPN10tensorflow14SessionFactoryEELb1EEEEE8allocateERSF_m
   fun:_ZNSt8__detail16_Hashtable_allocISaINS_10_Hash_nodeISt4pairIKNSt7__cxx1112basic_stringIcSt11char_traitsIcESaIcEEEPN10tensorflow14SessionFactoryEELb1EEEEE16_M_allocate_nodeIJSD_EEEPSE_DpOT_
   fun:_ZNSt10_HashtableINSt7__cxx1112basic_stringIcSt11char_traitsIcESaIcEEESt4pairIKS5_PN10tensorflow14SessionFactoryEESaISB_ENSt8__detail10_Select1stESt8equal_toIS5_ESt4hashIS5_ENSD_18_Mod_range_hashingENSD_20_Default_ranged_hashENSD_20_Prime_rehash_policyENSD_17_Hashtable_traitsILb1ELb0ELb1EEEE10_M_emplaceIJSB_EEES6_INSD_14_Node_iteratorISB_Lb0ELb1EEEbESt17integral_constantIbLb1EEDpOT_
   fun:_ZNSt8__detail7_InsertINSt7__cxx1112basic_stringIcSt11char_traitsIcESaIcEEESt4pairIKS6_PN10tensorflow14SessionFactoryEESaISC_ENS_10_Select1stESt8equal_toIS6_ESt4hashIS6_ENS_18_Mod_range_hashingENS_20_Default_ranged_hashENS_20_Prime_rehash_policyENS_17_Hashtable_traitsILb1ELb0ELb1EEELb0EE6insertISC_vEES7_INS_14_Node_iteratorISC_Lb0ELb1EEEbEOT_
   fun:_ZNSt13unordered_mapINSt7__cxx1112basic_stringIcSt11char_traitsIcESaIcEEEPN10tensorflow14SessionFactoryESt4hashIS5_ESt8equal_toIS5_ESaISt4pairIKS5_S8_EEE6insertEOSF_
   fun:_ZN10tensorflow14SessionFactory8RegisterERKNSt7__cxx1112basic_stringIcSt11char_traitsIcESaIcEEEPS0_
   fun:_ZN10tensorflow22DirectSessionRegistrarC1Ev
   fun:_Z41__static_initialization_and_destruction_0ii
   fun:_GLOBAL__sub_I_direct_session.cc
}
{
   <tensorflow_full>
   Memcheck:Leak
   match-leak-kinds: reachable
   fun:_Znwm
   fun:_ZN10tensorflow8gradient16GetOpGradFactoryB5cxx11Ev
   fun:_ZN10tensorflow8gradient10RegisterOpERKNSt7__cxx1112basic_stringIcSt11char_traitsIcESaIcEEESt8functionIFNS_6StatusERKNS_9AttrSliceEPNS_11FunctionDefEEE
   fun:_Z41__static_initialization_and_destruction_0ii
   fun:_GLOBAL__sub_I_math_grad.cc
}
{
   <tensorflow_full>
   Memcheck:Leak
   match-leak-kinds: reachable
   fun:_Znwm
   fun:_Z41__static_initialization_and_destruction_0ii
   fun:_GLOBAL__sub_I_quantize_training.cc
}
{
   <tensorflow_full>
   Memcheck:Leak
   match-leak-kinds: reachable
   fun:_Znwm
   fun:_ZN10tensorflow12_GLOBAL__N_118executor_factoriesEv
   fun:_ZN10tensorflow15ExecutorFactory8RegisterERKNSt7__cxx1112basic_stringIcSt11char_traitsIcESaIcEEEPS0_
   fun:_ZN10tensorflow12_GLOBAL__N_124DefaultExecutorRegistrarC1Ev
   fun:_Z41__static_initialization_and_destruction_0ii
   fun:_GLOBAL__sub_I_executor.cc
}
{
   <tensorflow_full>
   Memcheck:Leak
   match-leak-kinds: reachable
   fun:_Znwm
   fun:_ZN9__gnu_cxx13new_allocatorINSt8__detail10_Hash_nodeISt4pairIKNSt7__cxx1112basic_stringIcSt11char_traitsIcESaIcEEEPN10tensorflow15ExecutorFactoryEELb1EEEE8allocateEmPKv
   fun:_ZNSt16allocator_traitsISaINSt8__detail10_Hash_nodeISt4pairIKNSt7__cxx1112basic_stringIcSt11char_traitsIcESaIcEEEPN10tensorflow15ExecutorFactoryEELb1EEEEE8allocateERSF_m
   fun:_ZNSt8__detail16_Hashtable_allocISaINS_10_Hash_nodeISt4pairIKNSt7__cxx1112basic_stringIcSt11char_traitsIcESaIcEEEPN10tensorflow15ExecutorFactoryEELb1EEEEE16_M_allocate_nodeIJSD_EEEPSE_DpOT_
   fun:_ZNSt10_HashtableINSt7__cxx1112basic_stringIcSt11char_traitsIcESaIcEEESt4pairIKS5_PN10tensorflow15ExecutorFactoryEESaISB_ENSt8__detail10_Select1stESt8equal_toIS5_ESt4hashIS5_ENSD_18_Mod_range_hashingENSD_20_Default_ranged_hashENSD_20_Prime_rehash_policyENSD_17_Hashtable_traitsILb1ELb0ELb1EEEE10_M_emplaceIJSB_EEES6_INSD_14_Node_iteratorISB_Lb0ELb1EEEbESt17integral_constantIbLb1EEDpOT_
   fun:_ZNSt8__detail7_InsertINSt7__cxx1112basic_stringIcSt11char_traitsIcESaIcEEESt4pairIKS6_PN10tensorflow15ExecutorFactoryEESaISC_ENS_10_Select1stESt8equal_toIS6_ESt4hashIS6_ENS_18_Mod_range_hashingENS_20_Default_ranged_hashENS_20_Prime_rehash_policyENS_17_Hashtable_traitsILb1ELb0ELb1EEELb0EE6insertISC_vEES7_INS_14_Node_iteratorISC_Lb0ELb1EEEbEOT_
   fun:_ZNSt13unordered_mapINSt7__cxx1112basic_stringIcSt11char_traitsIcESaIcEEEPN10tensorflow15ExecutorFactoryESt4hashIS5_ESt8equal_toIS5_ESaISt4pairIKS5_S8_EEE6insertEOSF_
   fun:_ZN10tensorflow15ExecutorFactory8RegisterERKNSt7__cxx1112basic_stringIcSt11char_traitsIcESaIcEEEPS0_
   fun:_ZN10tensorflow12_GLOBAL__N_124DefaultExecutorRegistrarC1Ev
   fun:_Z41__static_initialization_and_destruction_0ii
   fun:_GLOBAL__sub_I_executor.cc
}
{
   <tensorflow_full>
   Memcheck:Leak
   match-leak-kinds: reachable
   fun:_Znwm
   fun:_ZN10tensorflow12_GLOBAL__N_116device_factoriesEv
   fun:_ZN10tensorflow13DeviceFactory8RegisterERKNSt7__cxx1112basic_stringIcSt11char_traitsIcESaIcEEEPS0_i
   fun:_ZN10tensorflow8dfactory9RegistrarINS_23ThreadPoolDeviceFactoryEEC1ERKNSt7__cxx1112basic_stringIcSt11char_traitsIcESaIcEEEi
   fun:_Z41__static_initialization_and_destruction_0ii
   fun:_GLOBAL__sub_I_threadpool_device_factory.cc
}
{
   <tensorflow_full>
   Memcheck:Leak
   match-leak-kinds: reachable
   fun:_Znwm
   fun:_ZN10tensorflow22UnaryVariantOpRegistry23PersistentStringStorageB5cxx11Ev
   fun:_ZN10tensorflow22UnaryVariantOpRegistry24GetPersistentStringPieceERKNSt7__cxx1112basic_stringIcSt11char_traitsIcESaIcEEE
   fun:_ZN10tensorflow22UnaryVariantOpRegistry16RegisterDecodeFnERKNSt7__cxx1112basic_stringIcSt11char_traitsIcESaIcEEERKSt8functionIFbPNS_7VariantEEE
   fun:_ZN10tensorflow35variant_op_registry_fn_registration30UnaryVariantDecodeRegistrationINS_4data12_GLOBAL__N_128WrappedDatasetVariantWrapperEEC1ERKNSt7__cxx1112basic_stringIcSt11char_traitsIcESaIcEEE
   fun:_Z41__static_initialization_and_destruction_0ii
   fun:_GLOBAL__sub_I_dataset.cc
}
{
   <tensorflow_full>
   Memcheck:Leak
   match-leak-kinds: reachable
   fun:_Znwm
   fun:_ZN10tensorflow24AllocatorFactoryRegistry9singletonEv
   fun:_ZN10tensorflow28AllocatorFactoryRegistrationC1EPKciRKNSt7__cxx1112basic_stringIcSt11char_traitsIcESaIcEEEiPNS_16AllocatorFactoryE
   fun:_Z41__static_initialization_and_destruction_0ii
   fun:_GLOBAL__sub_I_cpu_allocator_impl.cc
}
{
   <tensorflow_full>
   Memcheck:Leak
   match-leak-kinds: reachable
   fun:_Znwm
   fun:_ZN9__gnu_cxx13new_allocatorINSt8__detail10_Hash_nodeISt4pairIKNSt7__cxx1112basic_stringIcSt11char_traitsIcESaIcEEESt10unique_ptrIN10tensorflow10FileSystemESt14default_deleteISD_EEELb1EEEE8allocateEmPKv
   fun:_ZNSt16allocator_traitsISaINSt8__detail10_Hash_nodeISt4pairIKNSt7__cxx1112basic_stringIcSt11char_traitsIcESaIcEEESt10unique_ptrIN10tensorflow10FileSystemESt14default_deleteISC_EEELb1EEEEE8allocateERSI_m
   fun:_ZNSt8__detail16_Hashtable_allocISaINS_10_Hash_nodeISt4pairIKNSt7__cxx1112basic_stringIcSt11char_traitsIcESaIcEEESt10unique_ptrIN10tensorflow10FileSystemESt14default_deleteISC_EEELb1EEEEE16_M_allocate_nodeIJRS9_SF_EEEPSH_DpOT_
   fun:_ZNSt10_HashtableINSt7__cxx1112basic_stringIcSt11char_traitsIcESaIcEEESt4pairIKS5_St10unique_ptrIN10tensorflow10FileSystemESt14default_deleteISA_EEESaISE_ENSt8__detail10_Select1stESt8equal_toIS5_ESt4hashIS5_ENSG_18_Mod_range_hashingENSG_20_Default_ranged_hashENSG_20_Prime_rehash_policyENSG_17_Hashtable_traitsILb1ELb0ELb1EEEE10_M_emplaceIJRS7_SD_EEES6_INSG_14_Node_iteratorISE_Lb0ELb1EEEbESt17integral_constantIbLb1EEDpOT_
   fun:_ZNSt10_HashtableINSt7__cxx1112basic_stringIcSt11char_traitsIcESaIcEEESt4pairIKS5_St10unique_ptrIN10tensorflow10FileSystemESt14default_deleteISA_EEESaISE_ENSt8__detail10_Select1stESt8equal_toIS5_ESt4hashIS5_ENSG_18_Mod_range_hashingENSG_20_Default_ranged_hashENSG_20_Prime_rehash_policyENSG_17_Hashtable_traitsILb1ELb0ELb1EEEE7emplaceIJRS7_SD_EEES6_INSG_14_Node_iteratorISE_Lb0ELb1EEEbEDpOT_
   fun:_ZNSt13unordered_mapINSt7__cxx1112basic_stringIcSt11char_traitsIcESaIcEEESt10unique_ptrIN10tensorflow10FileSystemESt14default_deleteIS8_EESt4hashIS5_ESt8equal_toIS5_ESaISt4pairIKS5_SB_EEE7emplaceIJRSH_SB_EEESG_INSt8__detail14_Node_iteratorISI_Lb0ELb1EEEbEDpOT_
   fun:_ZN10tensorflow22FileSystemRegistryImpl8RegisterERKNSt7__cxx1112basic_stringIcSt11char_traitsIcESaIcEEESt8functionIFPNS_10FileSystemEvEE
   fun:_ZN10tensorflow3Env18RegisterFileSystemERKNSt7__cxx1112basic_stringIcSt11char_traitsIcESaIcEEESt8functionIFPNS_10FileSystemEvEE
   fun:_ZN10tensorflow20register_file_system8RegisterINS_15PosixFileSystemEEC1EPNS_3EnvERKNSt7__cxx1112basic_stringIcSt11char_traitsIcESaIcEEE
   fun:_Z41__static_initialization_and_destruction_0ii
   fun:_GLOBAL__sub_I_env.cc
}
{
   <tensorflow_full>
   Memcheck:Leak
   match-leak-kinds: reachable
   fun:_Znwm
   fun:_ZN9__gnu_cxx13new_allocatorINSt8__detail10_Hash_nodeISt4pairIKNSt7__cxx1112basic_stringIcSt11char_traitsIcESaIcEEESt10unique_ptrIN10tensorflow10FileSystemESt14default_deleteISD_EEELb1EEEE8allocateEmPKv
   fun:_ZNSt16allocator_traitsISaINSt8__detail10_Hash_nodeISt4pairIKNSt7__cxx1112basic_stringIcSt11char_traitsIcESaIcEEESt10unique_ptrIN10tensorflow10FileSystemESt14default_deleteISC_EEELb1EEEEE8allocateERSI_m
   fun:_ZNSt8__detail16_Hashtable_allocISaINS_10_Hash_nodeISt4pairIKNSt7__cxx1112basic_stringIcSt11char_traitsIcESaIcEEESt10unique_ptrIN10tensorflow10FileSystemESt14default_deleteISC_EEELb1EEEEE16_M_allocate_nodeIJRS9_SF_EEEPSH_DpOT_
   fun:_ZNSt10_HashtableINSt7__cxx1112basic_stringIcSt11char_traitsIcESaIcEEESt4pairIKS5_St10unique_ptrIN10tensorflow10FileSystemESt14default_deleteISA_EEESaISE_ENSt8__detail10_Select1stESt8equal_toIS5_ESt4hashIS5_ENSG_18_Mod_range_hashingENSG_20_Default_ranged_hashENSG_20_Prime_rehash_policyENSG_17_Hashtable_traitsILb1ELb0ELb1EEEE10_M_emplaceIJRS7_SD_EEES6_INSG_14_Node_iteratorISE_Lb0ELb1EEEbESt17integral_constantIbLb1EEDpOT_
   fun:_ZNSt10_HashtableINSt7__cxx1112basic_stringIcSt11char_traitsIcESaIcEEESt4pairIKS5_St10unique_ptrIN10tensorflow10FileSystemESt14default_deleteISA_EEESaISE_ENSt8__detail10_Select1stESt8equal_toIS5_ESt4hashIS5_ENSG_18_Mod_range_hashingENSG_20_Default_ranged_hashENSG_20_Prime_rehash_policyENSG_17_Hashtable_traitsILb1ELb0ELb1EEEE7emplaceIJRS7_SD_EEES6_INSG_14_Node_iteratorISE_Lb0ELb1EEEbEDpOT_
   fun:_ZNSt13unordered_mapINSt7__cxx1112basic_stringIcSt11char_traitsIcESaIcEEESt10unique_ptrIN10tensorflow10FileSystemESt14default_deleteIS8_EESt4hashIS5_ESt8equal_toIS5_ESaISt4pairIKS5_SB_EEE7emplaceIJRSH_SB_EEESG_INSt8__detail14_Node_iteratorISI_Lb0ELb1EEEbEDpOT_
   fun:_ZN10tensorflow22FileSystemRegistryImpl8RegisterERKNSt7__cxx1112basic_stringIcSt11char_traitsIcESaIcEEESt8functionIFPNS_10FileSystemEvEE
   fun:_ZN10tensorflow3Env18RegisterFileSystemERKNSt7__cxx1112basic_stringIcSt11char_traitsIcESaIcEEESt8functionIFPNS_10FileSystemEvEE
   fun:_ZN10tensorflow20register_file_system8RegisterINS_20LocalPosixFileSystemEEC1EPNS_3EnvERKNSt7__cxx1112basic_stringIcSt11char_traitsIcESaIcEEE
   fun:_Z41__static_initialization_and_destruction_0ii
   fun:_GLOBAL__sub_I_env.cc
}
{
   <tensorflow_full>
   Memcheck:Leak
   match-leak-kinds: reachable
   fun:_Znwm
   fun:_ZN9__gnu_cxx13new_allocatorINSt8__detail10_Hash_nodeISt4pairIKNSt7__cxx1112basic_stringIcSt11char_traitsIcESaIcEEESt10unique_ptrIN10tensorflow10FileSystemESt14default_deleteISD_EEELb1EEEE8allocateEmPKv
   fun:_ZNSt16allocator_traitsISaINSt8__detail10_Hash_nodeISt4pairIKNSt7__cxx1112basic_stringIcSt11char_traitsIcESaIcEEESt10unique_ptrIN10tensorflow10FileSystemESt14default_deleteISC_EEELb1EEEEE8allocateERSI_m
   fun:_ZNSt8__detail16_Hashtable_allocISaINS_10_Hash_nodeISt4pairIKNSt7__cxx1112basic_stringIcSt11char_traitsIcESaIcEEESt10unique_ptrIN10tensorflow10FileSystemESt14default_deleteISC_EEELb1EEEEE16_M_allocate_nodeIJRS9_SF_EEEPSH_DpOT_
   fun:_ZNSt10_HashtableINSt7__cxx1112basic_stringIcSt11char_traitsIcESaIcEEESt4pairIKS5_St10unique_ptrIN10tensorflow10FileSystemESt14default_deleteISA_EEESaISE_ENSt8__detail10_Select1stESt8equal_toIS5_ESt4hashIS5_ENSG_18_Mod_range_hashingENSG_20_Default_ranged_hashENSG_20_Prime_rehash_policyENSG_17_Hashtable_traitsILb1ELb0ELb1EEEE10_M_emplaceIJRS7_SD_EEES6_INSG_14_Node_iteratorISE_Lb0ELb1EEEbESt17integral_constantIbLb1EEDpOT_
   fun:_ZNSt10_HashtableINSt7__cxx1112basic_stringIcSt11char_traitsIcESaIcEEESt4pairIKS5_St10unique_ptrIN10tensorflow10FileSystemESt14default_deleteISA_EEESaISE_ENSt8__detail10_Select1stESt8equal_toIS5_ESt4hashIS5_ENSG_18_Mod_range_hashingENSG_20_Default_ranged_hashENSG_20_Prime_rehash_policyENSG_17_Hashtable_traitsILb1ELb0ELb1EEEE7emplaceIJRS7_SD_EEES6_INSG_14_Node_iteratorISE_Lb0ELb1EEEbEDpOT_
   fun:_ZNSt13unordered_mapINSt7__cxx1112basic_stringIcSt11char_traitsIcESaIcEEESt10unique_ptrIN10tensorflow10FileSystemESt14default_deleteIS8_EESt4hashIS5_ESt8equal_toIS5_ESaISt4pairIKS5_SB_EEE7emplaceIJRSH_SB_EEESG_INSt8__detail14_Node_iteratorISI_Lb0ELb1EEEbEDpOT_
   fun:_ZN10tensorflow22FileSystemRegistryImpl8RegisterERKNSt7__cxx1112basic_stringIcSt11char_traitsIcESaIcEEESt8functionIFPNS_10FileSystemEvEE
   fun:_ZN10tensorflow3Env18RegisterFileSystemERKNSt7__cxx1112basic_stringIcSt11char_traitsIcESaIcEEESt8functionIFPNS_10FileSystemEvEE
   fun:_ZN10tensorflow20register_file_system8RegisterINS_13RamFileSystemEEC1EPNS_3EnvERKNSt7__cxx1112basic_stringIcSt11char_traitsIcESaIcEEE
   fun:_Z41__static_initialization_and_destruction_0ii
   fun:_GLOBAL__sub_I_env.cc
}
{
   <tensorflow_full>
   Memcheck:Leak
   match-leak-kinds: reachable
   fun:_Znwm
   fun:_ZN6google8protobuf8internal12ShutdownData3getEv
   fun:_ZN6google8protobuf8internal13OnShutdownRunEPFvPKvES3_
   fun:_ZN6google8protobuf8internal23OnShutdownDestroyStringEPKNSt7__cxx1112basic_stringIcSt11char_traitsIcESaIcEEE
   fun:_ZN6google8protobuf8internalL24InitProtobufDefaultsImplEv
   fun:_ZN6google8protobuf8internal20InitProtobufDefaultsEv
   fun:_ZN6google8protobuf8internal11InitSCCImplEPNS1_11SCCInfoBaseE
   fun:_ZN6google8protobuf8internal7InitSCCEPNS1_11SCCInfoBaseE
   fun:_ZN10tensorflow9KernelDef10SharedCtorEv
   fun:_ZN10tensorflow9KernelDefC1Ev
   fun:_ZN10tensorflow16KernelDefBuilderC1EPKc
   fun:_ZN10tensorflow15register_kernel6system4NameC1EPKc
}
{
   <tensorflow_full>
   Memcheck:Leak
   match-leak-kinds: reachable
   fun:_Znwm
   fun:_ZN6google8protobuf3MapINSt7__cxx1112basic_stringIcSt11char_traitsIcESaIcEEEN10tensorflow9AttrValueEE12MapAllocatorIPvE8allocateEmPKv
   fun:_ZN6google8protobuf3MapINSt7__cxx1112basic_stringIcSt11char_traitsIcESaIcEEEN10tensorflow9AttrValueEE8InnerMap5AllocIPvEEPT_m
   fun:_ZN6google8protobuf3MapINSt7__cxx1112basic_stringIcSt11char_traitsIcESaIcEEEN10tensorflow9AttrValueEE8InnerMap16CreateEmptyTableEm
   fun:_ZN6google8protobuf3MapINSt7__cxx1112basic_stringIcSt11char_traitsIcESaIcEEEN10tensorflow9AttrValueEE8InnerMapC1EmNS0_4hashIS7_EENSA_12MapAllocatorINSA_12KeyValuePairEEE
   fun:CreateInternal<google::protobuf::Map<std::__cxx11::basic_string<char>, tensorflow::AttrValue>::InnerMap, unsigned int, google::protobuf::hash<std::__cxx11::basic_string<char, std::char_traits<char>, std::allocator<char> > >, google::protobuf::Map<std::__cxx11::basic_string<char>, tensorflow::AttrValue>::MapAllocator<google::protobuf::Map<std::__cxx11::basic_string<char>, tensorflow::AttrValue>::KeyValuePair> >
   fun:DoCreateMaybeMessage<google::protobuf::Map<std::__cxx11::basic_string<char>, tensorflow::AttrValue>::InnerMap, unsigned int, google::protobuf::hash<std::__cxx11::basic_string<char, std::char_traits<char>, std::allocator<char> > >, google::protobuf::Map<std::__cxx11::basic_string<char>, tensorflow::AttrValue>::MapAllocator<google::protobuf::Map<std::__cxx11::basic_string<char>, tensorflow::AttrValue>::KeyValuePair> >
   fun:CreateMaybeMessage<google::protobuf::Map<std::__cxx11::basic_string<char>, tensorflow::AttrValue>::InnerMap, unsigned int, google::protobuf::hash<std::__cxx11::basic_string<char, std::char_traits<char>, std::allocator<char> > >, google::protobuf::Map<std::__cxx11::basic_string<char>, tensorflow::AttrValue>::MapAllocator<google::protobuf::Map<std::__cxx11::basic_string<char>, tensorflow::AttrValue>::KeyValuePair> >
   fun:CreateNoMessage<google::protobuf::Map<std::__cxx11::basic_string<char>, tensorflow::AttrValue>::InnerMap, unsigned int, google::protobuf::hash<std::__cxx11::basic_string<char, std::char_traits<char>, std::allocator<char> > >, google::protobuf::Map<std::__cxx11::basic_string<char>, tensorflow::AttrValue>::MapAllocator<google::protobuf::Map<std::__cxx11::basic_string<char>, tensorflow::AttrValue>::KeyValuePair> >
   fun:Create<google::protobuf::Map<std::__cxx11::basic_string<char>, tensorflow::AttrValue>::InnerMap, unsigned int, google::protobuf::hash<std::__cxx11::basic_string<char, std::char_traits<char>, std::allocator<char> > >, google::protobuf::Map<std::__cxx11::basic_string<char>, tensorflow::AttrValue>::MapAllocator<google::protobuf::Map<std::__cxx11::basic_string<char>, tensorflow::AttrValue>::KeyValuePair> >
   fun:_ZN6google8protobuf3MapINSt7__cxx1112basic_stringIcSt11char_traitsIcESaIcEEEN10tensorflow9AttrValueEE4InitEv
   fun:_ZN6google8protobuf3MapINSt7__cxx1112basic_stringIcSt11char_traitsIcESaIcEEEN10tensorflow9AttrValueEEC1Ev
   fun:_ZN6google8protobuf8internal12MapFieldLiteIN10tensorflow31NameAttrList_AttrEntry_DoNotUseENSt7__cxx1112basic_stringIcSt11char_traitsIcESaIcEEENS3_9AttrValueELNS1_14WireFormatLite9FieldTypeE9ELSD_11ELi0EEC1Ev
   fun:_ZN6google8protobuf8internal8MapFieldIN10tensorflow31NameAttrList_AttrEntry_DoNotUseENSt7__cxx1112basic_stringIcSt11char_traitsIcESaIcEEENS3_9AttrValueELNS1_14WireFormatLite9FieldTypeE9ELSD_11ELi0EEC1Ev
   fun:_ZN10tensorflow12NameAttrListC1Ev
   fun:_ZL83InitDefaultsscc_info_AttrValue_tensorflow_2fcore_2fframework_2fattr_5fvalue_2eprotov
   fun:_ZN6google8protobuf8internal12_GLOBAL__N_111InitSCC_DFSEPNS1_11SCCInfoBaseE
}
{
   <tensorflow_full>
   Memcheck:Leak
   match-leak-kinds: reachable
   fun:_Znwm
   fun:_ZN9__gnu_cxx13new_allocatorISt13_Rb_tree_nodeISt4pairIKiSt6vectorISt10unique_ptrIN10tensorflow21GraphOptimizationPassESt14default_deleteIS7_EESaISA_EEEEE8allocateEmPKv
   fun:_ZNSt16allocator_traitsISaISt13_Rb_tree_nodeISt4pairIKiSt6vectorISt10unique_ptrIN10tensorflow21GraphOptimizationPassESt14default_deleteIS6_EESaIS9_EEEEEE8allocateERSE_m
   fun:_ZNSt8_Rb_treeIiSt4pairIKiSt6vectorISt10unique_ptrIN10tensorflow21GraphOptimizationPassESt14default_deleteIS5_EESaIS8_EEESt10_Select1stISB_ESt4lessIiESaISB_EE11_M_get_nodeEv
   fun:_ZNSt8_Rb_treeIiSt4pairIKiSt6vectorISt10unique_ptrIN10tensorflow21GraphOptimizationPassESt14default_deleteIS5_EESaIS8_EEESt10_Select1stISB_ESt4lessIiESaISB_EE14_M_create_nodeIJRKSt21piecewise_construct_tSt5tupleIJRS1_EESM_IJEEEEEPSt13_Rb_tree_nodeISB_EDpOT_
   fun:_ZNSt8_Rb_treeIiSt4pairIKiSt6vectorISt10unique_ptrIN10tensorflow21GraphOptimizationPassESt14default_deleteIS5_EESaIS8_EEESt10_Select1stISB_ESt4lessIiESaISB_EE22_M_emplace_hint_uniqueIJRKSt21piecewise_construct_tSt5tupleIJRS1_EESM_IJEEEEESt17_Rb_tree_iteratorISB_ESt23_Rb_tree_const_iteratorISB_EDpOT_
   fun:_ZNSt3mapIiSt6vectorISt10unique_ptrIN10tensorflow21GraphOptimizationPassESt14default_deleteIS3_EESaIS6_EESt4lessIiESaISt4pairIKiS8_EEEixERSC_
   fun:_ZN10tensorflow24OptimizationPassRegistry8RegisterENS0_8GroupingEiSt10unique_ptrINS_21GraphOptimizationPassESt14default_deleteIS3_EE
   fun:_ZN10tensorflow25optimization_registration28OptimizationPassRegistrationC1ENS_24OptimizationPassRegistry8GroupingEiSt10unique_ptrINS_21GraphOptimizationPassESt14default_deleteIS5_EENSt7__cxx1112basic_stringIcSt11char_traitsIcESaIcEEE
   fun:_Z41__static_initialization_and_destruction_0ii
   fun:_GLOBAL__sub_I_accumulate_n_optimizer.cc
}
{
   <tensorflow_full>
   Memcheck:Leak
   match-leak-kinds: reachable
   fun:_Znwm
   fun:_ZN9__gnu_cxx13new_allocatorISt13_Rb_tree_nodeISt4pairIKiSt6vectorISt10unique_ptrIN10tensorflow21GraphOptimizationPassESt14default_deleteIS7_EESaISA_EEEEE8allocateEmPKv
   fun:_ZNSt16allocator_traitsISaISt13_Rb_tree_nodeISt4pairIKiSt6vectorISt10unique_ptrIN10tensorflow21GraphOptimizationPassESt14default_deleteIS6_EESaIS9_EEEEEE8allocateERSE_m
   fun:_ZNSt8_Rb_treeIiSt4pairIKiSt6vectorISt10unique_ptrIN10tensorflow21GraphOptimizationPassESt14default_deleteIS5_EESaIS8_EEESt10_Select1stISB_ESt4lessIiESaISB_EE11_M_get_nodeEv
   fun:_ZNSt8_Rb_treeIiSt4pairIKiSt6vectorISt10unique_ptrIN10tensorflow21GraphOptimizationPassESt14default_deleteIS5_EESaIS8_EEESt10_Select1stISB_ESt4lessIiESaISB_EE14_M_create_nodeIJRKSt21piecewise_construct_tSt5tupleIJRS1_EESM_IJEEEEEPSt13_Rb_tree_nodeISB_EDpOT_
   fun:_ZNSt8_Rb_treeIiSt4pairIKiSt6vectorISt10unique_ptrIN10tensorflow21GraphOptimizationPassESt14default_deleteIS5_EESaIS8_EEESt10_Select1stISB_ESt4lessIiESaISB_EE22_M_emplace_hint_uniqueIJRKSt21piecewise_construct_tSt5tupleIJRS1_EESM_IJEEEEESt17_Rb_tree_iteratorISB_ESt23_Rb_tree_const_iteratorISB_EDpOT_
   fun:_ZNSt3mapIiSt6vectorISt10unique_ptrIN10tensorflow21GraphOptimizationPassESt14default_deleteIS3_EESaIS6_EESt4lessIiESaISt4pairIKiS8_EEEixERSC_
   fun:_ZN10tensorflow24OptimizationPassRegistry8RegisterENS0_8GroupingEiSt10unique_ptrINS_21GraphOptimizationPassESt14default_deleteIS3_EE
   fun:_ZN10tensorflow25optimization_registration28OptimizationPassRegistrationC1ENS_24OptimizationPassRegistry8GroupingEiSt10unique_ptrINS_21GraphOptimizationPassESt14default_deleteIS5_EENSt7__cxx1112basic_stringIcSt11char_traitsIcESaIcEEE
   fun:_Z41__static_initialization_and_destruction_0ii
   fun:_GLOBAL__sub_I_isolate_placer_inspection_required_ops_pass.cc
}
{
   <tensorflow_full>
   Memcheck:Leak
   match-leak-kinds: reachable
   fun:_Znwm
   fun:_ZNSt14_Function_base13_Base_managerIZN10tensorflow35variant_op_registry_fn_registration34UnaryVariantDeviceCopyRegistrationINS1_6TensorEEC4ENS1_26VariantDeviceCopyDirectionERKNS1_9TypeIndexERKSt8functionIFNS1_6StatusERKS4_PS4_SA_IFSB_SD_SE_EEEEEUlRKNS1_7VariantEPSL_SG_E_E8_M_cloneERSt9_Any_dataRKSR_St17integral_constantIbLb0EE
   fun:_ZNSt14_Function_base13_Base_managerIZN10tensorflow35variant_op_registry_fn_registration34UnaryVariantDeviceCopyRegistrationINS1_6TensorEEC4ENS1_26VariantDeviceCopyDirectionERKNS1_9TypeIndexERKSt8functionIFNS1_6StatusERKS4_PS4_SA_IFSB_SD_SE_EEEEEUlRKNS1_7VariantEPSL_SG_E_E10_M_managerERSt9_Any_dataRKSR_St18_Manager_operation
   fun:_ZNSt8functionIFN10tensorflow6StatusERKNS0_7VariantEPS2_S_IFS1_RKNS0_6TensorEPS6_EEEEC1ERKSD_
   fun:_ZN10tensorflow3gtl7FlatMapISt4pairINS_26VariantDeviceCopyDirectionENS_9TypeIndexEESt8functionIFNS_6StatusERKNS_7VariantEPS8_S6_IFS7_RKNS_6TensorEPSC_EEEENS_22UnaryVariantOpRegistry8PairHashESt8equal_toIS5_EE6Bucket7InitValIRKSJ_EEvjOT_
   fun:_ZN10tensorflow3gtl7FlatMapISt4pairINS_26VariantDeviceCopyDirectionENS_9TypeIndexEESt8functionIFNS_6StatusERKNS_7VariantEPS8_S6_IFS7_RKNS_6TensorEPSC_EEEENS_22UnaryVariantOpRegistry8PairHashESt8equal_toIS5_EE6InsertIRKS5_RKSJ_EES2_INSO_8iteratorEbEOT_OT0_
   fun:_ZN10tensorflow3gtl7FlatMapISt4pairINS_26VariantDeviceCopyDirectionENS_9TypeIndexEESt8functionIFNS_6StatusERKNS_7VariantEPS8_S6_IFS7_RKNS_6TensorEPSC_EEEENS_22UnaryVariantOpRegistry8PairHashESt8equal_toIS5_EE6insertIS2_IS5_SJ_EEES2_INSO_8iteratorEbERKT_
   fun:_ZN10tensorflow22UnaryVariantOpRegistry20RegisterDeviceCopyFnENS_26VariantDeviceCopyDirectionERKNS_9TypeIndexERKSt8functionIFNS_6StatusERKNS_7VariantEPS7_S5_IFS6_RKNS_6TensorEPSB_EEEE
   fun:_ZN10tensorflow35variant_op_registry_fn_registration34UnaryVariantDeviceCopyRegistrationINS_6TensorEEC1ENS_26VariantDeviceCopyDirectionERKNS_9TypeIndexERKSt8functionIFNS_6StatusERKS2_PS2_S8_IFS9_SB_SC_EEEE
   fun:_Z41__static_initialization_and_destruction_0ii
   fun:_GLOBAL__sub_I_copy_tensor.cc
}
{
   <tensorflow_full>
   Memcheck:Leak
   match-leak-kinds: reachable
   fun:_Znwm
   fun:_ZN9__gnu_cxx13new_allocatorINSt8__detail10_Hash_nodeISt4pairIKNSt7__cxx1112basic_stringIcSt11char_traitsIcESaIcEEEN10tensorflow12_GLOBAL__N_111FactoryItemEELb1EEEE8allocateEmPKv
   fun:_ZNSt16allocator_traitsISaINSt8__detail10_Hash_nodeISt4pairIKNSt7__cxx1112basic_stringIcSt11char_traitsIcESaIcEEEN10tensorflow12_GLOBAL__N_111FactoryItemEELb1EEEEE8allocateERSF_m
   fun:_ZNSt8__detail16_Hashtable_allocISaINS_10_Hash_nodeISt4pairIKNSt7__cxx1112basic_stringIcSt11char_traitsIcESaIcEEEN10tensorflow12_GLOBAL__N_111FactoryItemEELb1EEEEE16_M_allocate_nodeIJRKSt21piecewise_construct_tSt5tupleIJRS9_EESL_IJEEEEEPSE_DpOT_
   fun:_ZNSt8__detail9_Map_baseINSt7__cxx1112basic_stringIcSt11char_traitsIcESaIcEEESt4pairIKS6_N10tensorflow12_GLOBAL__N_111FactoryItemEESaISC_ENS_10_Select1stESt8equal_toIS6_ESt4hashIS6_ENS_18_Mod_range_hashingENS_20_Default_ranged_hashENS_20_Prime_rehash_policyENS_17_Hashtable_traitsILb1ELb0ELb1EEELb1EEixERS8_
   fun:_ZNSt13unordered_mapINSt7__cxx1112basic_stringIcSt11char_traitsIcESaIcEEEN10tensorflow12_GLOBAL__N_111FactoryItemESt4hashIS5_ESt8equal_toIS5_ESaISt4pairIKS5_S8_EEEixERSE_
   fun:_ZN10tensorflow13DeviceFactory8RegisterERKNSt7__cxx1112basic_stringIcSt11char_traitsIcESaIcEEEPS0_i
   fun:_ZN10tensorflow8dfactory9RegistrarINS_23ThreadPoolDeviceFactoryEEC1ERKNSt7__cxx1112basic_stringIcSt11char_traitsIcESaIcEEEi
   fun:_Z41__static_initialization_and_destruction_0ii
   fun:_GLOBAL__sub_I_threadpool_device_factory.cc
}
{
   <tensorflow_full>
   Memcheck:Leak
   match-leak-kinds: reachable
   fun:_Znwm
   fun:_ZNSt14_Function_base13_Base_managerIZN10tensorflow35variant_op_registry_fn_registration34UnaryVariantDeviceCopyRegistrationINS1_4data12_GLOBAL__N_128WrappedDatasetVariantWrapperEEC4ENS1_26VariantDeviceCopyDirectionERKNS1_9TypeIndexERKSt8functionIFNS1_6StatusERKS6_PS6_SC_IFSD_RKNS1_6TensorEPSH_EEEEEUlRKNS1_7VariantEPSR_SM_E_E8_M_cloneERSt9_Any_dataRKSX_St17integral_constantIbLb0EE
   fun:_ZNSt14_Function_base13_Base_managerIZN10tensorflow35variant_op_registry_fn_registration34UnaryVariantDeviceCopyRegistrationINS1_4data12_GLOBAL__N_128WrappedDatasetVariantWrapperEEC4ENS1_26VariantDeviceCopyDirectionERKNS1_9TypeIndexERKSt8functionIFNS1_6StatusERKS6_PS6_SC_IFSD_RKNS1_6TensorEPSH_EEEEEUlRKNS1_7VariantEPSR_SM_E_E10_M_managerERSt9_Any_dataRKSX_St18_Manager_operation
   fun:_ZNSt8functionIFN10tensorflow6StatusERKNS0_7VariantEPS2_S_IFS1_RKNS0_6TensorEPS6_EEEEC1ERKSD_
   fun:_ZN10tensorflow3gtl7FlatMapISt4pairINS_26VariantDeviceCopyDirectionENS_9TypeIndexEESt8functionIFNS_6StatusERKNS_7VariantEPS8_S6_IFS7_RKNS_6TensorEPSC_EEEENS_22UnaryVariantOpRegistry8PairHashESt8equal_toIS5_EE6Bucket7InitValIRKSJ_EEvjOT_
   fun:_ZN10tensorflow3gtl7FlatMapISt4pairINS_26VariantDeviceCopyDirectionENS_9TypeIndexEESt8functionIFNS_6StatusERKNS_7VariantEPS8_S6_IFS7_RKNS_6TensorEPSC_EEEENS_22UnaryVariantOpRegistry8PairHashESt8equal_toIS5_EE6InsertIRKS5_RKSJ_EES2_INSO_8iteratorEbEOT_OT0_
   fun:_ZN10tensorflow3gtl7FlatMapISt4pairINS_26VariantDeviceCopyDirectionENS_9TypeIndexEESt8functionIFNS_6StatusERKNS_7VariantEPS8_S6_IFS7_RKNS_6TensorEPSC_EEEENS_22UnaryVariantOpRegistry8PairHashESt8equal_toIS5_EE6insertIS2_IS5_SJ_EEES2_INSO_8iteratorEbERKT_
   fun:_ZN10tensorflow22UnaryVariantOpRegistry20RegisterDeviceCopyFnENS_26VariantDeviceCopyDirectionERKNS_9TypeIndexERKSt8functionIFNS_6StatusERKNS_7VariantEPS7_S5_IFS6_RKNS_6TensorEPSB_EEEE
   fun:_ZN10tensorflow35variant_op_registry_fn_registration34UnaryVariantDeviceCopyRegistrationINS_4data12_GLOBAL__N_128WrappedDatasetVariantWrapperEEC1ENS_26VariantDeviceCopyDirectionERKNS_9TypeIndexERKSt8functionIFNS_6StatusERKS4_PS4_SA_IFSB_RKNS_6TensorEPSF_EEEE
   fun:_Z41__static_initialization_and_destruction_0ii
   fun:_GLOBAL__sub_I_dataset.cc
}
{
   <tensorflow_full>
   Memcheck:Leak
   match-leak-kinds: reachable
   fun:_Znwm
   fun:_ZN9__gnu_cxx13new_allocatorINSt7__cxx1112basic_stringIcSt11char_traitsIcESaIcEEEE8allocateEmPKv
   fun:_ZNSt16allocator_traitsISaINSt7__cxx1112basic_stringIcSt11char_traitsIcESaIcEEEEE8allocateERS6_m
   fun:_ZNSt12_Vector_baseINSt7__cxx1112basic_stringIcSt11char_traitsIcESaIcEEESaIS5_EE11_M_allocateEm
   fun:_ZNSt12_Vector_baseINSt7__cxx1112basic_stringIcSt11char_traitsIcESaIcEEESaIS5_EE17_M_create_storageEm
   fun:_ZNSt12_Vector_baseINSt7__cxx1112basic_stringIcSt11char_traitsIcESaIcEEESaIS5_EEC1EmRKS6_
   fun:_ZNSt6vectorINSt7__cxx1112basic_stringIcSt11char_traitsIcESaIcEEESaIS5_EEC1ERKS7_
   fun:_ZN10tensorflow10monitoring17AbstractMetricDefC1ERKS1_
   fun:_ZN10tensorflow10monitoring9MetricDefILNS0_10MetricKindE1ExLi2EEC1ERKS3_
   fun:_ZN10tensorflow10monitoring7CounterILi2EEC1ERKNS0_9MetricDefILNS0_10MetricKindE1ExLi2EEE
   fun:_ZN10tensorflow10monitoring7CounterILi2EE3NewIJRA42_KcRA75_S4_RA5_S4_SA_EEEPS2_DpOT_
   fun:_Z41__static_initialization_and_destruction_0ii
}
{
   <tensorflow_full>
   Memcheck:Leak
   match-leak-kinds: reachable
   fun:_Znwm
   fun:_ZN6google8protobuf3MapINSt7__cxx1112basic_stringIcSt11char_traitsIcESaIcEEES7_E12MapAllocatorIPvE8allocateEmPKv
   fun:_ZN6google8protobuf3MapINSt7__cxx1112basic_stringIcSt11char_traitsIcESaIcEEES7_E8InnerMap5AllocIPvEEPT_m
   fun:_ZN6google8protobuf3MapINSt7__cxx1112basic_stringIcSt11char_traitsIcESaIcEEES7_E8InnerMap16CreateEmptyTableEm
   fun:_ZN6google8protobuf3MapINSt7__cxx1112basic_stringIcSt11char_traitsIcESaIcEEES7_E8InnerMapC1EmNS0_4hashIS7_EENS8_12MapAllocatorINS8_12KeyValuePairEEE
   fun:CreateInternal<google::protobuf::Map<std::__cxx11::basic_string<char>, std::__cxx11::basic_string<char> >::InnerMap, unsigned int, google::protobuf::hash<std::__cxx11::basic_string<char, std::char_traits<char>, std::allocator<char> > >, google::protobuf::Map<std::__cxx11::basic_string<char>, std::__cxx11::basic_string<char> >::MapAllocator<google::protobuf::Map<std::__cxx11::basic_string<char>, std::__cxx11::basic_string<char> >::KeyValuePair> >
   fun:DoCreateMaybeMessage<google::protobuf::Map<std::__cxx11::basic_string<char>, std::__cxx11::basic_string<char> >::InnerMap, unsigned int, google::protobuf::hash<std::__cxx11::basic_string<char, std::char_traits<char>, std::allocator<char> > >, google::protobuf::Map<std::__cxx11::basic_string<char>, std::__cxx11::basic_string<char> >::MapAllocator<google::protobuf::Map<std::__cxx11::basic_string<char>, std::__cxx11::basic_string<char> >::KeyValuePair> >
   fun:CreateMaybeMessage<google::protobuf::Map<std::__cxx11::basic_string<char>, std::__cxx11::basic_string<char> >::InnerMap, unsigned int, google::protobuf::hash<std::__cxx11::basic_string<char, std::char_traits<char>, std::allocator<char> > >, google::protobuf::Map<std::__cxx11::basic_string<char>, std::__cxx11::basic_string<char> >::MapAllocator<google::protobuf::Map<std::__cxx11::basic_string<char>, std::__cxx11::basic_string<char> >::KeyValuePair> >
   fun:CreateNoMessage<google::protobuf::Map<std::__cxx11::basic_string<char>, std::__cxx11::basic_string<char> >::InnerMap, unsigned int, google::protobuf::hash<std::__cxx11::basic_string<char, std::char_traits<char>, std::allocator<char> > >, google::protobuf::Map<std::__cxx11::basic_string<char>, std::__cxx11::basic_string<char> >::MapAllocator<google::protobuf::Map<std::__cxx11::basic_string<char>, std::__cxx11::basic_string<char> >::KeyValuePair> >
   fun:Create<google::protobuf::Map<std::__cxx11::basic_string<char>, std::__cxx11::basic_string<char> >::InnerMap, unsigned int, google::protobuf::hash<std::__cxx11::basic_string<char, std::char_traits<char>, std::allocator<char> > >, google::protobuf::Map<std::__cxx11::basic_string<char>, std::__cxx11::basic_string<char> >::MapAllocator<google::protobuf::Map<std::__cxx11::basic_string<char>, std::__cxx11::basic_string<char> >::KeyValuePair> >
   fun:_ZN6google8protobuf3MapINSt7__cxx1112basic_stringIcSt11char_traitsIcESaIcEEES7_E4InitEv
   fun:_ZN6google8protobuf3MapINSt7__cxx1112basic_stringIcSt11char_traitsIcESaIcEEES7_EC1Ev
   fun:_ZN6google8protobuf8internal12MapFieldLiteIN10tensorflow42DeviceProperties_EnvironmentEntry_DoNotUseENSt7__cxx1112basic_stringIcSt11char_traitsIcESaIcEEESA_LNS1_14WireFormatLite9FieldTypeE9ELSC_9ELi0EEC1Ev
   fun:_ZN6google8protobuf8internal8MapFieldIN10tensorflow42DeviceProperties_EnvironmentEntry_DoNotUseENSt7__cxx1112basic_stringIcSt11char_traitsIcESaIcEEESA_LNS1_14WireFormatLite9FieldTypeE9ELSC_9ELi0EEC1Ev
   fun:_ZN10tensorflow16DevicePropertiesC1Ev
   fun:_ZL96InitDefaultsscc_info_DeviceProperties_tensorflow_2fcore_2fprotobuf_2fdevice_5fproperties_2eprotov
   fun:_ZN6google8protobuf8internal12_GLOBAL__N_111InitSCC_DFSEPNS1_11SCCInfoBaseE
}
{
   <tensorflow_full>
   Memcheck:Leak
   match-leak-kinds: reachable
   fun:_Znwm
   fun:_ZN6google8protobuf3MapINSt7__cxx1112basic_stringIcSt11char_traitsIcESaIcEEEN10tensorflow9AttrValueEE12MapAllocatorIPvE8allocateEmPKv
   fun:_ZN6google8protobuf3MapINSt7__cxx1112basic_stringIcSt11char_traitsIcESaIcEEEN10tensorflow9AttrValueEE8InnerMap5AllocIPvEEPT_m
   fun:_ZN6google8protobuf3MapINSt7__cxx1112basic_stringIcSt11char_traitsIcESaIcEEEN10tensorflow9AttrValueEE8InnerMap16CreateEmptyTableEm
   fun:_ZN6google8protobuf3MapINSt7__cxx1112basic_stringIcSt11char_traitsIcESaIcEEEN10tensorflow9AttrValueEE8InnerMapC1EmNS0_4hashIS7_EENSA_12MapAllocatorINSA_12KeyValuePairEEE
   fun:CreateInternal<google::protobuf::Map<std::__cxx11::basic_string<char>, tensorflow::AttrValue>::InnerMap, unsigned int, google::protobuf::hash<std::__cxx11::basic_string<char, std::char_traits<char>, std::allocator<char> > >, google::protobuf::Map<std::__cxx11::basic_string<char>, tensorflow::AttrValue>::MapAllocator<google::protobuf::Map<std::__cxx11::basic_string<char>, tensorflow::AttrValue>::KeyValuePair> >
   fun:DoCreateMaybeMessage<google::protobuf::Map<std::__cxx11::basic_string<char>, tensorflow::AttrValue>::InnerMap, unsigned int, google::protobuf::hash<std::__cxx11::basic_string<char, std::char_traits<char>, std::allocator<char> > >, google::protobuf::Map<std::__cxx11::basic_string<char>, tensorflow::AttrValue>::MapAllocator<google::protobuf::Map<std::__cxx11::basic_string<char>, tensorflow::AttrValue>::KeyValuePair> >
   fun:CreateMaybeMessage<google::protobuf::Map<std::__cxx11::basic_string<char>, tensorflow::AttrValue>::InnerMap, unsigned int, google::protobuf::hash<std::__cxx11::basic_string<char, std::char_traits<char>, std::allocator<char> > >, google::protobuf::Map<std::__cxx11::basic_string<char>, tensorflow::AttrValue>::MapAllocator<google::protobuf::Map<std::__cxx11::basic_string<char>, tensorflow::AttrValue>::KeyValuePair> >
   fun:CreateNoMessage<google::protobuf::Map<std::__cxx11::basic_string<char>, tensorflow::AttrValue>::InnerMap, unsigned int, google::protobuf::hash<std::__cxx11::basic_string<char, std::char_traits<char>, std::allocator<char> > >, google::protobuf::Map<std::__cxx11::basic_string<char>, tensorflow::AttrValue>::MapAllocator<google::protobuf::Map<std::__cxx11::basic_string<char>, tensorflow::AttrValue>::KeyValuePair> >
   fun:Create<google::protobuf::Map<std::__cxx11::basic_string<char>, tensorflow::AttrValue>::InnerMap, unsigned int, google::protobuf::hash<std::__cxx11::basic_string<char, std::char_traits<char>, std::allocator<char> > >, google::protobuf::Map<std::__cxx11::basic_string<char>, tensorflow::AttrValue>::MapAllocator<google::protobuf::Map<std::__cxx11::basic_string<char>, tensorflow::AttrValue>::KeyValuePair> >
   fun:_ZN6google8protobuf3MapINSt7__cxx1112basic_stringIcSt11char_traitsIcESaIcEEEN10tensorflow9AttrValueEE4InitEv
   fun:_ZN6google8protobuf3MapINSt7__cxx1112basic_stringIcSt11char_traitsIcESaIcEEEN10tensorflow9AttrValueEEC1Ev
   fun:_ZN6google8protobuf8internal12MapFieldLiteIN10tensorflow25OpInfo_AttrEntry_DoNotUseENSt7__cxx1112basic_stringIcSt11char_traitsIcESaIcEEENS3_9AttrValueELNS1_14WireFormatLite9FieldTypeE9ELSD_11ELi0EEC1Ev
   fun:_ZN6google8protobuf8internal8MapFieldIN10tensorflow25OpInfo_AttrEntry_DoNotUseENSt7__cxx1112basic_stringIcSt11char_traitsIcESaIcEEENS3_9AttrValueELNS1_14WireFormatLite9FieldTypeE9ELSD_11ELi0EEC1Ev
   fun:_ZN10tensorflow6OpInfoC1Ev
   fun:_ZL98InitDefaultsscc_info_OpInfo_tensorflow_2fcore_2fgrappler_2fcosts_2fop_5fperformance_5fdata_2eprotov
   fun:_ZN6google8protobuf8internal12_GLOBAL__N_111InitSCC_DFSEPNS1_11SCCInfoBaseE
}
{
   <tensorflow_full>
   Memcheck:Leak
   match-leak-kinds: reachable
   fun:_Znwm
   fun:_ZN6google8protobuf3MapINSt7__cxx1112basic_stringIcSt11char_traitsIcESaIcEEEN10tensorflow7FeatureEE12MapAllocatorIPvE8allocateEmPKv
   fun:_ZN6google8protobuf3MapINSt7__cxx1112basic_stringIcSt11char_traitsIcESaIcEEEN10tensorflow7FeatureEE8InnerMap5AllocIPvEEPT_m
   fun:_ZN6google8protobuf3MapINSt7__cxx1112basic_stringIcSt11char_traitsIcESaIcEEEN10tensorflow7FeatureEE8InnerMap16CreateEmptyTableEm
   fun:_ZN6google8protobuf3MapINSt7__cxx1112basic_stringIcSt11char_traitsIcESaIcEEEN10tensorflow7FeatureEE8InnerMapC1EmNS0_4hashIS7_EENSA_12MapAllocatorINSA_12KeyValuePairEEE
   fun:CreateInternal<google::protobuf::Map<std::__cxx11::basic_string<char>, tensorflow::Feature>::InnerMap, unsigned int, google::protobuf::hash<std::__cxx11::basic_string<char, std::char_traits<char>, std::allocator<char> > >, google::protobuf::Map<std::__cxx11::basic_string<char>, tensorflow::Feature>::MapAllocator<google::protobuf::Map<std::__cxx11::basic_string<char>, tensorflow::Feature>::KeyValuePair> >
   fun:DoCreateMaybeMessage<google::protobuf::Map<std::__cxx11::basic_string<char>, tensorflow::Feature>::InnerMap, unsigned int, google::protobuf::hash<std::__cxx11::basic_string<char, std::char_traits<char>, std::allocator<char> > >, google::protobuf::Map<std::__cxx11::basic_string<char>, tensorflow::Feature>::MapAllocator<google::protobuf::Map<std::__cxx11::basic_string<char>, tensorflow::Feature>::KeyValuePair> >
   fun:CreateMaybeMessage<google::protobuf::Map<std::__cxx11::basic_string<char>, tensorflow::Feature>::InnerMap, unsigned int, google::protobuf::hash<std::__cxx11::basic_string<char, std::char_traits<char>, std::allocator<char> > >, google::protobuf::Map<std::__cxx11::basic_string<char>, tensorflow::Feature>::MapAllocator<google::protobuf::Map<std::__cxx11::basic_string<char>, tensorflow::Feature>::KeyValuePair> >
   fun:CreateNoMessage<google::protobuf::Map<std::__cxx11::basic_string<char>, tensorflow::Feature>::InnerMap, unsigned int, google::protobuf::hash<std::__cxx11::basic_string<char, std::char_traits<char>, std::allocator<char> > >, google::protobuf::Map<std::__cxx11::basic_string<char>, tensorflow::Feature>::MapAllocator<google::protobuf::Map<std::__cxx11::basic_string<char>, tensorflow::Feature>::KeyValuePair> >
   fun:Create<google::protobuf::Map<std::__cxx11::basic_string<char>, tensorflow::Feature>::InnerMap, unsigned int, google::protobuf::hash<std::__cxx11::basic_string<char, std::char_traits<char>, std::allocator<char> > >, google::protobuf::Map<std::__cxx11::basic_string<char>, tensorflow::Feature>::MapAllocator<google::protobuf::Map<std::__cxx11::basic_string<char>, tensorflow::Feature>::KeyValuePair> >
   fun:_ZN6google8protobuf3MapINSt7__cxx1112basic_stringIcSt11char_traitsIcESaIcEEEN10tensorflow7FeatureEE4InitEv
   fun:_ZN6google8protobuf3MapINSt7__cxx1112basic_stringIcSt11char_traitsIcESaIcEEEN10tensorflow7FeatureEEC1Ev
   fun:_ZN6google8protobuf8internal12MapFieldLiteIN10tensorflow30Features_FeatureEntry_DoNotUseENSt7__cxx1112basic_stringIcSt11char_traitsIcESaIcEEENS3_7FeatureELNS1_14WireFormatLite9FieldTypeE9ELSD_11ELi0EEC1Ev
   fun:_ZN6google8protobuf8internal8MapFieldIN10tensorflow30Features_FeatureEntry_DoNotUseENSt7__cxx1112basic_stringIcSt11char_traitsIcESaIcEEENS3_7FeatureELNS1_14WireFormatLite9FieldTypeE9ELSD_11ELi0EEC1Ev
   fun:_ZN10tensorflow8FeaturesC1Ev
   fun:_ZL75InitDefaultsscc_info_Features_tensorflow_2fcore_2fexample_2ffeature_2eprotov
   fun:_ZN6google8protobuf8internal12_GLOBAL__N_111InitSCC_DFSEPNS1_11SCCInfoBaseE
}
{
   <tensorflow_full>
   Memcheck:Leak
   match-leak-kinds: reachable
   fun:_Znwm
   fun:_ZN6google8protobuf3MapINSt7__cxx1112basic_stringIcSt11char_traitsIcESaIcEEEN10tensorflow11FeatureListEE12MapAllocatorIPvE8allocateEmPKv
   fun:_ZN6google8protobuf3MapINSt7__cxx1112basic_stringIcSt11char_traitsIcESaIcEEEN10tensorflow11FeatureListEE8InnerMap5AllocIPvEEPT_m
   fun:_ZN6google8protobuf3MapINSt7__cxx1112basic_stringIcSt11char_traitsIcESaIcEEEN10tensorflow11FeatureListEE8InnerMap16CreateEmptyTableEm
   fun:_ZN6google8protobuf3MapINSt7__cxx1112basic_stringIcSt11char_traitsIcESaIcEEEN10tensorflow11FeatureListEE8InnerMapC1EmNS0_4hashIS7_EENSA_12MapAllocatorINSA_12KeyValuePairEEE
   fun:CreateInternal<google::protobuf::Map<std::__cxx11::basic_string<char>, tensorflow::FeatureList>::InnerMap, unsigned int, google::protobuf::hash<std::__cxx11::basic_string<char, std::char_traits<char>, std::allocator<char> > >, google::protobuf::Map<std::__cxx11::basic_string<char>, tensorflow::FeatureList>::MapAllocator<google::protobuf::Map<std::__cxx11::basic_string<char>, tensorflow::FeatureList>::KeyValuePair> >
   fun:DoCreateMaybeMessage<google::protobuf::Map<std::__cxx11::basic_string<char>, tensorflow::FeatureList>::InnerMap, unsigned int, google::protobuf::hash<std::__cxx11::basic_string<char, std::char_traits<char>, std::allocator<char> > >, google::protobuf::Map<std::__cxx11::basic_string<char>, tensorflow::FeatureList>::MapAllocator<google::protobuf::Map<std::__cxx11::basic_string<char>, tensorflow::FeatureList>::KeyValuePair> >
   fun:CreateMaybeMessage<google::protobuf::Map<std::__cxx11::basic_string<char>, tensorflow::FeatureList>::InnerMap, unsigned int, google::protobuf::hash<std::__cxx11::basic_string<char, std::char_traits<char>, std::allocator<char> > >, google::protobuf::Map<std::__cxx11::basic_string<char>, tensorflow::FeatureList>::MapAllocator<google::protobuf::Map<std::__cxx11::basic_string<char>, tensorflow::FeatureList>::KeyValuePair> >
   fun:CreateNoMessage<google::protobuf::Map<std::__cxx11::basic_string<char>, tensorflow::FeatureList>::InnerMap, unsigned int, google::protobuf::hash<std::__cxx11::basic_string<char, std::char_traits<char>, std::allocator<char> > >, google::protobuf::Map<std::__cxx11::basic_string<char>, tensorflow::FeatureList>::MapAllocator<google::protobuf::Map<std::__cxx11::basic_string<char>, tensorflow::FeatureList>::KeyValuePair> >
   fun:Create<google::protobuf::Map<std::__cxx11::basic_string<char>, tensorflow::FeatureList>::InnerMap, unsigned int, google::protobuf::hash<std::__cxx11::basic_string<char, std::char_traits<char>, std::allocator<char> > >, google::protobuf::Map<std::__cxx11::basic_string<char>, tensorflow::FeatureList>::MapAllocator<google::protobuf::Map<std::__cxx11::basic_string<char>, tensorflow::FeatureList>::KeyValuePair> >
   fun:_ZN6google8protobuf3MapINSt7__cxx1112basic_stringIcSt11char_traitsIcESaIcEEEN10tensorflow11FeatureListEE4InitEv
   fun:_ZN6google8protobuf3MapINSt7__cxx1112basic_stringIcSt11char_traitsIcESaIcEEEN10tensorflow11FeatureListEEC1Ev
   fun:_ZN6google8protobuf8internal12MapFieldLiteIN10tensorflow38FeatureLists_FeatureListEntry_DoNotUseENSt7__cxx1112basic_stringIcSt11char_traitsIcESaIcEEENS3_11FeatureListELNS1_14WireFormatLite9FieldTypeE9ELSD_11ELi0EEC1Ev
   fun:_ZN6google8protobuf8internal8MapFieldIN10tensorflow38FeatureLists_FeatureListEntry_DoNotUseENSt7__cxx1112basic_stringIcSt11char_traitsIcESaIcEEENS3_11FeatureListELNS1_14WireFormatLite9FieldTypeE9ELSD_11ELi0EEC1Ev
   fun:_ZN10tensorflow12FeatureListsC1Ev
   fun:_ZL79InitDefaultsscc_info_FeatureLists_tensorflow_2fcore_2fexample_2ffeature_2eprotov
   fun:_ZN6google8protobuf8internal12_GLOBAL__N_111InitSCC_DFSEPNS1_11SCCInfoBaseE
}
{
   <tensorflow_full>
   Memcheck:Leak
   match-leak-kinds: reachable
   fun:_Znwm
   fun:_ZN6google8protobuf3MapINSt7__cxx1112basic_stringIcSt11char_traitsIcESaIcEEEN10tensorflow20FeatureConfigurationEE12MapAllocatorIPvE8allocateEmPKv
   fun:_ZN6google8protobuf3MapINSt7__cxx1112basic_stringIcSt11char_traitsIcESaIcEEEN10tensorflow20FeatureConfigurationEE8InnerMap5AllocIPvEEPT_m
   fun:_ZN6google8protobuf3MapINSt7__cxx1112basic_stringIcSt11char_traitsIcESaIcEEEN10tensorflow20FeatureConfigurationEE8InnerMap16CreateEmptyTableEm
   fun:_ZN6google8protobuf3MapINSt7__cxx1112basic_stringIcSt11char_traitsIcESaIcEEEN10tensorflow20FeatureConfigurationEE8InnerMapC1EmNS0_4hashIS7_EENSA_12MapAllocatorINSA_12KeyValuePairEEE
   fun:CreateInternal<google::protobuf::Map<std::__cxx11::basic_string<char>, tensorflow::FeatureConfiguration>::InnerMap, unsigned int, google::protobuf::hash<std::__cxx11::basic_string<char, std::char_traits<char>, std::allocator<char> > >, google::protobuf::Map<std::__cxx11::basic_string<char>, tensorflow::FeatureConfiguration>::MapAllocator<google::protobuf::Map<std::__cxx11::basic_string<char>, tensorflow::FeatureConfiguration>::KeyValuePair> >
   fun:DoCreateMaybeMessage<google::protobuf::Map<std::__cxx11::basic_string<char>, tensorflow::FeatureConfiguration>::InnerMap, unsigned int, google::protobuf::hash<std::__cxx11::basic_string<char, std::char_traits<char>, std::allocator<char> > >, google::protobuf::Map<std::__cxx11::basic_string<char>, tensorflow::FeatureConfiguration>::MapAllocator<google::protobuf::Map<std::__cxx11::basic_string<char>, tensorflow::FeatureConfiguration>::KeyValuePair> >
   fun:CreateMaybeMessage<google::protobuf::Map<std::__cxx11::basic_string<char>, tensorflow::FeatureConfiguration>::InnerMap, unsigned int, google::protobuf::hash<std::__cxx11::basic_string<char, std::char_traits<char>, std::allocator<char> > >, google::protobuf::Map<std::__cxx11::basic_string<char>, tensorflow::FeatureConfiguration>::MapAllocator<google::protobuf::Map<std::__cxx11::basic_string<char>, tensorflow::FeatureConfiguration>::KeyValuePair> >
   fun:CreateNoMessage<google::protobuf::Map<std::__cxx11::basic_string<char>, tensorflow::FeatureConfiguration>::InnerMap, unsigned int, google::protobuf::hash<std::__cxx11::basic_string<char, std::char_traits<char>, std::allocator<char> > >, google::protobuf::Map<std::__cxx11::basic_string<char>, tensorflow::FeatureConfiguration>::MapAllocator<google::protobuf::Map<std::__cxx11::basic_string<char>, tensorflow::FeatureConfiguration>::KeyValuePair> >
   fun:Create<google::protobuf::Map<std::__cxx11::basic_string<char>, tensorflow::FeatureConfiguration>::InnerMap, unsigned int, google::protobuf::hash<std::__cxx11::basic_string<char, std::char_traits<char>, std::allocator<char> > >, google::protobuf::Map<std::__cxx11::basic_string<char>, tensorflow::FeatureConfiguration>::MapAllocator<google::protobuf::Map<std::__cxx11::basic_string<char>, tensorflow::FeatureConfiguration>::KeyValuePair> >
   fun:_ZN6google8protobuf3MapINSt7__cxx1112basic_stringIcSt11char_traitsIcESaIcEEEN10tensorflow20FeatureConfigurationEE4InitEv
   fun:_ZN6google8protobuf3MapINSt7__cxx1112basic_stringIcSt11char_traitsIcESaIcEEEN10tensorflow20FeatureConfigurationEEC1Ev
   fun:_ZN6google8protobuf8internal12MapFieldLiteIN10tensorflow51ExampleParserConfiguration_FeatureMapEntry_DoNotUseENSt7__cxx1112basic_stringIcSt11char_traitsIcESaIcEEENS3_20FeatureConfigurationELNS1_14WireFormatLite9FieldTypeE9ELSD_11ELi0EEC1Ev
   fun:_ZN6google8protobuf8internal8MapFieldIN10tensorflow51ExampleParserConfiguration_FeatureMapEntry_DoNotUseENSt7__cxx1112basic_stringIcSt11char_traitsIcESaIcEEENS3_20FeatureConfigurationELNS1_14WireFormatLite9FieldTypeE9ELSD_11ELi0EEC1Ev
   fun:_ZN10tensorflow26ExampleParserConfigurationC1Ev
   fun:_ZL118InitDefaultsscc_info_ExampleParserConfiguration_tensorflow_2fcore_2fexample_2fexample_5fparser_5fconfiguration_2eprotov
   fun:_ZN6google8protobuf8internal12_GLOBAL__N_111InitSCC_DFSEPNS1_11SCCInfoBaseE
}
{
   <tensorflow_full>
   Memcheck:Leak
   match-leak-kinds: reachable
   fun:_Znwm
   fun:_ZN6google8protobuf3MapINSt7__cxx1112basic_stringIcSt11char_traitsIcESaIcEEES7_E12MapAllocatorIPvE8allocateEmPKv
   fun:_ZN6google8protobuf3MapINSt7__cxx1112basic_stringIcSt11char_traitsIcESaIcEEES7_E8InnerMap5AllocIPvEEPT_m
   fun:_ZN6google8protobuf3MapINSt7__cxx1112basic_stringIcSt11char_traitsIcESaIcEEES7_E8InnerMap16CreateEmptyTableEm
   fun:_ZN6google8protobuf3MapINSt7__cxx1112basic_stringIcSt11char_traitsIcESaIcEEES7_E8InnerMapC1EmNS0_4hashIS7_EENS8_12MapAllocatorINS8_12KeyValuePairEEE
   fun:CreateInternal<google::protobuf::Map<std::__cxx11::basic_string<char>, std::__cxx11::basic_string<char> >::InnerMap, unsigned int, google::protobuf::hash<std::__cxx11::basic_string<char, std::char_traits<char>, std::allocator<char> > >, google::protobuf::Map<std::__cxx11::basic_string<char>, std::__cxx11::basic_string<char> >::MapAllocator<google::protobuf::Map<std::__cxx11::basic_string<char>, std::__cxx11::basic_string<char> >::KeyValuePair> >
   fun:DoCreateMaybeMessage<google::protobuf::Map<std::__cxx11::basic_string<char>, std::__cxx11::basic_string<char> >::InnerMap, unsigned int, google::protobuf::hash<std::__cxx11::basic_string<char, std::char_traits<char>, std::allocator<char> > >, google::protobuf::Map<std::__cxx11::basic_string<char>, std::__cxx11::basic_string<char> >::MapAllocator<google::protobuf::Map<std::__cxx11::basic_string<char>, std::__cxx11::basic_string<char> >::KeyValuePair> >
   fun:CreateMaybeMessage<google::protobuf::Map<std::__cxx11::basic_string<char>, std::__cxx11::basic_string<char> >::InnerMap, unsigned int, google::protobuf::hash<std::__cxx11::basic_string<char, std::char_traits<char>, std::allocator<char> > >, google::protobuf::Map<std::__cxx11::basic_string<char>, std::__cxx11::basic_string<char> >::MapAllocator<google::protobuf::Map<std::__cxx11::basic_string<char>, std::__cxx11::basic_string<char> >::KeyValuePair> >
   fun:CreateNoMessage<google::protobuf::Map<std::__cxx11::basic_string<char>, std::__cxx11::basic_string<char> >::InnerMap, unsigned int, google::protobuf::hash<std::__cxx11::basic_string<char, std::char_traits<char>, std::allocator<char> > >, google::protobuf::Map<std::__cxx11::basic_string<char>, std::__cxx11::basic_string<char> >::MapAllocator<google::protobuf::Map<std::__cxx11::basic_string<char>, std::__cxx11::basic_string<char> >::KeyValuePair> >
   fun:Create<google::protobuf::Map<std::__cxx11::basic_string<char>, std::__cxx11::basic_string<char> >::InnerMap, unsigned int, google::protobuf::hash<std::__cxx11::basic_string<char, std::char_traits<char>, std::allocator<char> > >, google::protobuf::Map<std::__cxx11::basic_string<char>, std::__cxx11::basic_string<char> >::MapAllocator<google::protobuf::Map<std::__cxx11::basic_string<char>, std::__cxx11::basic_string<char> >::KeyValuePair> >
   fun:_ZN6google8protobuf3MapINSt7__cxx1112basic_stringIcSt11char_traitsIcESaIcEEES7_E4InitEv
   fun:_ZN6google8protobuf3MapINSt7__cxx1112basic_stringIcSt11char_traitsIcESaIcEEES7_EC1Ev
   fun:_ZN6google8protobuf8internal12MapFieldLiteIN10tensorflow41CallableOptions_FeedDevicesEntry_DoNotUseENSt7__cxx1112basic_stringIcSt11char_traitsIcESaIcEEESA_LNS1_14WireFormatLite9FieldTypeE9ELSC_9ELi0EEC1Ev
   fun:_ZN6google8protobuf8internal8MapFieldIN10tensorflow41CallableOptions_FeedDevicesEntry_DoNotUseENSt7__cxx1112basic_stringIcSt11char_traitsIcESaIcEEESA_LNS1_14WireFormatLite9FieldTypeE9ELSC_9ELi0EEC1Ev
   fun:_ZN10tensorflow15CallableOptionsC1Ev
   fun:_ZL82InitDefaultsscc_info_CallableOptions_tensorflow_2fcore_2fprotobuf_2fconfig_2eprotov
   fun:_ZN6google8protobuf8internal12_GLOBAL__N_111InitSCC_DFSEPNS1_11SCCInfoBaseE
}
{
   <tensorflow_full>
   Memcheck:Leak
   match-leak-kinds: reachable
   fun:_Znwm
   fun:_ZN6google8protobuf3MapINSt7__cxx1112basic_stringIcSt11char_traitsIcESaIcEEES7_E12MapAllocatorIPvE8allocateEmPKv
   fun:_ZN6google8protobuf3MapINSt7__cxx1112basic_stringIcSt11char_traitsIcESaIcEEES7_E8InnerMap5AllocIPvEEPT_m
   fun:_ZN6google8protobuf3MapINSt7__cxx1112basic_stringIcSt11char_traitsIcESaIcEEES7_E8InnerMap16CreateEmptyTableEm
   fun:_ZN6google8protobuf3MapINSt7__cxx1112basic_stringIcSt11char_traitsIcESaIcEEES7_E8InnerMapC1EmNS0_4hashIS7_EENS8_12MapAllocatorINS8_12KeyValuePairEEE
   fun:CreateInternal<google::protobuf::Map<std::__cxx11::basic_string<char>, std::__cxx11::basic_string<char> >::InnerMap, unsigned int, google::protobuf::hash<std::__cxx11::basic_string<char, std::char_traits<char>, std::allocator<char> > >, google::protobuf::Map<std::__cxx11::basic_string<char>, std::__cxx11::basic_string<char> >::MapAllocator<google::protobuf::Map<std::__cxx11::basic_string<char>, std::__cxx11::basic_string<char> >::KeyValuePair> >
   fun:DoCreateMaybeMessage<google::protobuf::Map<std::__cxx11::basic_string<char>, std::__cxx11::basic_string<char> >::InnerMap, unsigned int, google::protobuf::hash<std::__cxx11::basic_string<char, std::char_traits<char>, std::allocator<char> > >, google::protobuf::Map<std::__cxx11::basic_string<char>, std::__cxx11::basic_string<char> >::MapAllocator<google::protobuf::Map<std::__cxx11::basic_string<char>, std::__cxx11::basic_string<char> >::KeyValuePair> >
   fun:CreateMaybeMessage<google::protobuf::Map<std::__cxx11::basic_string<char>, std::__cxx11::basic_string<char> >::InnerMap, unsigned int, google::protobuf::hash<std::__cxx11::basic_string<char, std::char_traits<char>, std::allocator<char> > >, google::protobuf::Map<std::__cxx11::basic_string<char>, std::__cxx11::basic_string<char> >::MapAllocator<google::protobuf::Map<std::__cxx11::basic_string<char>, std::__cxx11::basic_string<char> >::KeyValuePair> >
   fun:CreateNoMessage<google::protobuf::Map<std::__cxx11::basic_string<char>, std::__cxx11::basic_string<char> >::InnerMap, unsigned int, google::protobuf::hash<std::__cxx11::basic_string<char, std::char_traits<char>, std::allocator<char> > >, google::protobuf::Map<std::__cxx11::basic_string<char>, std::__cxx11::basic_string<char> >::MapAllocator<google::protobuf::Map<std::__cxx11::basic_string<char>, std::__cxx11::basic_string<char> >::KeyValuePair> >
   fun:Create<google::protobuf::Map<std::__cxx11::basic_string<char>, std::__cxx11::basic_string<char> >::InnerMap, unsigned int, google::protobuf::hash<std::__cxx11::basic_string<char, std::char_traits<char>, std::allocator<char> > >, google::protobuf::Map<std::__cxx11::basic_string<char>, std::__cxx11::basic_string<char> >::MapAllocator<google::protobuf::Map<std::__cxx11::basic_string<char>, std::__cxx11::basic_string<char> >::KeyValuePair> >
   fun:_ZN6google8protobuf3MapINSt7__cxx1112basic_stringIcSt11char_traitsIcESaIcEEES7_E4InitEv
   fun:_ZN6google8protobuf3MapINSt7__cxx1112basic_stringIcSt11char_traitsIcESaIcEEES7_EC1Ev
   fun:_ZN6google8protobuf8internal12MapFieldLiteIN10tensorflow42CallableOptions_FetchDevicesEntry_DoNotUseENSt7__cxx1112basic_stringIcSt11char_traitsIcESaIcEEESA_LNS1_14WireFormatLite9FieldTypeE9ELSC_9ELi0EEC1Ev
   fun:_ZN6google8protobuf8internal8MapFieldIN10tensorflow42CallableOptions_FetchDevicesEntry_DoNotUseENSt7__cxx1112basic_stringIcSt11char_traitsIcESaIcEEESA_LNS1_14WireFormatLite9FieldTypeE9ELSC_9ELi0EEC1Ev
   fun:_ZN10tensorflow15CallableOptionsC1Ev
   fun:_ZL82InitDefaultsscc_info_CallableOptions_tensorflow_2fcore_2fprotobuf_2fconfig_2eprotov
   fun:_ZN6google8protobuf8internal12_GLOBAL__N_111InitSCC_DFSEPNS1_11SCCInfoBaseE
}
{
   <tensorflow_full>
   Memcheck:Leak
   match-leak-kinds: reachable
   fun:_Znwm
   fun:_ZN6google8protobuf3MapINSt7__cxx1112basic_stringIcSt11char_traitsIcESaIcEEEN10tensorflow9AttrValueEE12MapAllocatorIPvE8allocateEmPKv
   fun:_ZN6google8protobuf3MapINSt7__cxx1112basic_stringIcSt11char_traitsIcESaIcEEEN10tensorflow9AttrValueEE8InnerMap5AllocIPvEEPT_m
   fun:_ZN6google8protobuf3MapINSt7__cxx1112basic_stringIcSt11char_traitsIcESaIcEEEN10tensorflow9AttrValueEE8InnerMap16CreateEmptyTableEm
   fun:_ZN6google8protobuf3MapINSt7__cxx1112basic_stringIcSt11char_traitsIcESaIcEEEN10tensorflow9AttrValueEE8InnerMapC1EmNS0_4hashIS7_EENSA_12MapAllocatorINSA_12KeyValuePairEEE
   fun:CreateInternal<google::protobuf::Map<std::__cxx11::basic_string<char>, tensorflow::AttrValue>::InnerMap, unsigned int, google::protobuf::hash<std::__cxx11::basic_string<char, std::char_traits<char>, std::allocator<char> > >, google::protobuf::Map<std::__cxx11::basic_string<char>, tensorflow::AttrValue>::MapAllocator<google::protobuf::Map<std::__cxx11::basic_string<char>, tensorflow::AttrValue>::KeyValuePair> >
   fun:DoCreateMaybeMessage<google::protobuf::Map<std::__cxx11::basic_string<char>, tensorflow::AttrValue>::InnerMap, unsigned int, google::protobuf::hash<std::__cxx11::basic_string<char, std::char_traits<char>, std::allocator<char> > >, google::protobuf::Map<std::__cxx11::basic_string<char>, tensorflow::AttrValue>::MapAllocator<google::protobuf::Map<std::__cxx11::basic_string<char>, tensorflow::AttrValue>::KeyValuePair> >
   fun:CreateMaybeMessage<google::protobuf::Map<std::__cxx11::basic_string<char>, tensorflow::AttrValue>::InnerMap, unsigned int, google::protobuf::hash<std::__cxx11::basic_string<char, std::char_traits<char>, std::allocator<char> > >, google::protobuf::Map<std::__cxx11::basic_string<char>, tensorflow::AttrValue>::MapAllocator<google::protobuf::Map<std::__cxx11::basic_string<char>, tensorflow::AttrValue>::KeyValuePair> >
   fun:CreateNoMessage<google::protobuf::Map<std::__cxx11::basic_string<char>, tensorflow::AttrValue>::InnerMap, unsigned int, google::protobuf::hash<std::__cxx11::basic_string<char, std::char_traits<char>, std::allocator<char> > >, google::protobuf::Map<std::__cxx11::basic_string<char>, tensorflow::AttrValue>::MapAllocator<google::protobuf::Map<std::__cxx11::basic_string<char>, tensorflow::AttrValue>::KeyValuePair> >
   fun:Create<google::protobuf::Map<std::__cxx11::basic_string<char>, tensorflow::AttrValue>::InnerMap, unsigned int, google::protobuf::hash<std::__cxx11::basic_string<char, std::char_traits<char>, std::allocator<char> > >, google::protobuf::Map<std::__cxx11::basic_string<char>, tensorflow::AttrValue>::MapAllocator<google::protobuf::Map<std::__cxx11::basic_string<char>, tensorflow::AttrValue>::KeyValuePair> >
   fun:_ZN6google8protobuf3MapINSt7__cxx1112basic_stringIcSt11char_traitsIcESaIcEEEN10tensorflow9AttrValueEE4InitEv
   fun:_ZN6google8protobuf3MapINSt7__cxx1112basic_stringIcSt11char_traitsIcESaIcEEEN10tensorflow9AttrValueEEC1Ev
   fun:_ZN6google8protobuf8internal12MapFieldLiteIN10tensorflow62RewriterConfig_CustomGraphOptimizer_ParameterMapEntry_DoNotUseENSt7__cxx1112basic_stringIcSt11char_traitsIcESaIcEEENS3_9AttrValueELNS1_14WireFormatLite9FieldTypeE9ELSD_11ELi0EEC1Ev
   fun:_ZN6google8protobuf8internal8MapFieldIN10tensorflow62RewriterConfig_CustomGraphOptimizer_ParameterMapEntry_DoNotUseENSt7__cxx1112basic_stringIcSt11char_traitsIcESaIcEEENS3_9AttrValueELNS1_14WireFormatLite9FieldTypeE9ELSD_11ELi0EEC1Ev
   fun:_ZN10tensorflow35RewriterConfig_CustomGraphOptimizerC1Ev
   fun:_ZL113InitDefaultsscc_info_RewriterConfig_CustomGraphOptimizer_tensorflow_2fcore_2fprotobuf_2frewriter_5fconfig_2eprotov
   fun:_ZN6google8protobuf8internal12_GLOBAL__N_111InitSCC_DFSEPNS1_11SCCInfoBaseE
}
{
   <tensorflow_full>
   Memcheck:Leak
   match-leak-kinds: reachable
   fun:_Znwm
   fun:_ZN6google8protobuf3MapIiNSt7__cxx1112basic_stringIcSt11char_traitsIcESaIcEEEE12MapAllocatorIPvE8allocateEmPKv
   fun:_ZN6google8protobuf3MapIiNSt7__cxx1112basic_stringIcSt11char_traitsIcESaIcEEEE8InnerMap5AllocIPvEEPT_m
   fun:_ZN6google8protobuf3MapIiNSt7__cxx1112basic_stringIcSt11char_traitsIcESaIcEEEE8InnerMap16CreateEmptyTableEm
   fun:_ZN6google8protobuf3MapIiNSt7__cxx1112basic_stringIcSt11char_traitsIcESaIcEEEE8InnerMapC1EmNS0_4hashIiEENS8_12MapAllocatorINS8_12KeyValuePairEEE
   fun:CreateInternal<google::protobuf::Map<int, std::__cxx11::basic_string<char> >::InnerMap, unsigned int, google::protobuf::hash<int>, google::protobuf::Map<int, std::__cxx11::basic_string<char> >::MapAllocator<google::protobuf::Map<int, std::__cxx11::basic_string<char> >::KeyValuePair> >
   fun:DoCreateMaybeMessage<google::protobuf::Map<int, std::__cxx11::basic_string<char> >::InnerMap, unsigned int, google::protobuf::hash<int>, google::protobuf::Map<int, std::__cxx11::basic_string<char> >::MapAllocator<google::protobuf::Map<int, std::__cxx11::basic_string<char> >::KeyValuePair> >
   fun:CreateMaybeMessage<google::protobuf::Map<int, std::__cxx11::basic_string<char> >::InnerMap, unsigned int, google::protobuf::hash<int>, google::protobuf::Map<int, std::__cxx11::basic_string<char> >::MapAllocator<google::protobuf::Map<int, std::__cxx11::basic_string<char> >::KeyValuePair> >
   fun:CreateNoMessage<google::protobuf::Map<int, std::__cxx11::basic_string<char> >::InnerMap, unsigned int, google::protobuf::hash<int>, google::protobuf::Map<int, std::__cxx11::basic_string<char> >::MapAllocator<google::protobuf::Map<int, std::__cxx11::basic_string<char> >::KeyValuePair> >
   fun:Create<google::protobuf::Map<int, std::__cxx11::basic_string<char> >::InnerMap, unsigned int, google::protobuf::hash<int>, google::protobuf::Map<int, std::__cxx11::basic_string<char> >::MapAllocator<google::protobuf::Map<int, std::__cxx11::basic_string<char> >::KeyValuePair> >
   fun:_ZN6google8protobuf3MapIiNSt7__cxx1112basic_stringIcSt11char_traitsIcESaIcEEEE4InitEv
   fun:_ZN6google8protobuf3MapIiNSt7__cxx1112basic_stringIcSt11char_traitsIcESaIcEEEEC1Ev
   fun:_ZN6google8protobuf8internal12MapFieldLiteIN10tensorflow26JobDef_TasksEntry_DoNotUseEiNSt7__cxx1112basic_stringIcSt11char_traitsIcESaIcEEELNS1_14WireFormatLite9FieldTypeE5ELSC_9ELi0EEC1Ev
   fun:_ZN6google8protobuf8internal8MapFieldIN10tensorflow26JobDef_TasksEntry_DoNotUseEiNSt7__cxx1112basic_stringIcSt11char_traitsIcESaIcEEELNS1_14WireFormatLite9FieldTypeE5ELSC_9ELi0EEC1Ev
   fun:_ZN10tensorflow6JobDefC1Ev
   fun:_ZL74InitDefaultsscc_info_JobDef_tensorflow_2fcore_2fprotobuf_2fcluster_2eprotov
   fun:_ZN6google8protobuf8internal12_GLOBAL__N_111InitSCC_DFSEPNS1_11SCCInfoBaseE
}
{
   <tensorflow_full>
   Memcheck:Leak
   match-leak-kinds: reachable
   fun:_Znwm
   fun:_ZN6google8protobuf3MapINSt7__cxx1112basic_stringIcSt11char_traitsIcESaIcEEEiE12MapAllocatorIPvE8allocateEmPKv
   fun:_ZN6google8protobuf3MapINSt7__cxx1112basic_stringIcSt11char_traitsIcESaIcEEEiE8InnerMap5AllocIPvEEPT_m
   fun:_ZN6google8protobuf3MapINSt7__cxx1112basic_stringIcSt11char_traitsIcESaIcEEEiE8InnerMap16CreateEmptyTableEm
   fun:_ZN6google8protobuf3MapINSt7__cxx1112basic_stringIcSt11char_traitsIcESaIcEEEiE8InnerMapC1EmNS0_4hashIS7_EENS8_12MapAllocatorINS8_12KeyValuePairEEE
   fun:CreateInternal<google::protobuf::Map<std::__cxx11::basic_string<char>, int>::InnerMap, unsigned int, google::protobuf::hash<std::__cxx11::basic_string<char, std::char_traits<char>, std::allocator<char> > >, google::protobuf::Map<std::__cxx11::basic_string<char>, int>::MapAllocator<google::protobuf::Map<std::__cxx11::basic_string<char>, int>::KeyValuePair> >
   fun:DoCreateMaybeMessage<google::protobuf::Map<std::__cxx11::basic_string<char>, int>::InnerMap, unsigned int, google::protobuf::hash<std::__cxx11::basic_string<char, std::char_traits<char>, std::allocator<char> > >, google::protobuf::Map<std::__cxx11::basic_string<char>, int>::MapAllocator<google::protobuf::Map<std::__cxx11::basic_string<char>, int>::KeyValuePair> >
   fun:CreateMaybeMessage<google::protobuf::Map<std::__cxx11::basic_string<char>, int>::InnerMap, unsigned int, google::protobuf::hash<std::__cxx11::basic_string<char, std::char_traits<char>, std::allocator<char> > >, google::protobuf::Map<std::__cxx11::basic_string<char>, int>::MapAllocator<google::protobuf::Map<std::__cxx11::basic_string<char>, int>::KeyValuePair> >
   fun:CreateNoMessage<google::protobuf::Map<std::__cxx11::basic_string<char>, int>::InnerMap, unsigned int, google::protobuf::hash<std::__cxx11::basic_string<char, std::char_traits<char>, std::allocator<char> > >, google::protobuf::Map<std::__cxx11::basic_string<char>, int>::MapAllocator<google::protobuf::Map<std::__cxx11::basic_string<char>, int>::KeyValuePair> >
   fun:Create<google::protobuf::Map<std::__cxx11::basic_string<char>, int>::InnerMap, unsigned int, google::protobuf::hash<std::__cxx11::basic_string<char, std::char_traits<char>, std::allocator<char> > >, google::protobuf::Map<std::__cxx11::basic_string<char>, int>::MapAllocator<google::protobuf::Map<std::__cxx11::basic_string<char>, int>::KeyValuePair> >
   fun:_ZN6google8protobuf3MapINSt7__cxx1112basic_stringIcSt11char_traitsIcESaIcEEEiE4InitEv
   fun:_ZN6google8protobuf3MapINSt7__cxx1112basic_stringIcSt11char_traitsIcESaIcEEEiEC1Ev
   fun:_ZN6google8protobuf8internal12MapFieldLiteIN10tensorflow37ConfigProto_DeviceCountEntry_DoNotUseENSt7__cxx1112basic_stringIcSt11char_traitsIcESaIcEEEiLNS1_14WireFormatLite9FieldTypeE9ELSC_5ELi0EEC1Ev
   fun:_ZN6google8protobuf8internal8MapFieldIN10tensorflow37ConfigProto_DeviceCountEntry_DoNotUseENSt7__cxx1112basic_stringIcSt11char_traitsIcESaIcEEEiLNS1_14WireFormatLite9FieldTypeE9ELSC_5ELi0EEC1Ev
   fun:_ZN10tensorflow11ConfigProtoC1Ev
   fun:_ZL78InitDefaultsscc_info_ConfigProto_tensorflow_2fcore_2fprotobuf_2fconfig_2eprotov
   fun:_ZN6google8protobuf8internal12_GLOBAL__N_111InitSCC_DFSEPNS1_11SCCInfoBaseE
}
{
   <tensorflow_full>
   Memcheck:Leak
   match-leak-kinds: reachable
   fun:_Znwm
   fun:_ZN6google8protobuf3MapIjNSt7__cxx1112basic_stringIcSt11char_traitsIcESaIcEEEE12MapAllocatorIPvE8allocateEmPKv
   fun:_ZN6google8protobuf3MapIjNSt7__cxx1112basic_stringIcSt11char_traitsIcESaIcEEEE8InnerMap5AllocIPvEEPT_m
   fun:_ZN6google8protobuf3MapIjNSt7__cxx1112basic_stringIcSt11char_traitsIcESaIcEEEE8InnerMap16CreateEmptyTableEm
   fun:_ZN6google8protobuf3MapIjNSt7__cxx1112basic_stringIcSt11char_traitsIcESaIcEEEE8InnerMapC1EmNS0_4hashIjEENS8_12MapAllocatorINS8_12KeyValuePairEEE
   fun:CreateInternal<google::protobuf::Map<unsigned int, std::__cxx11::basic_string<char> >::InnerMap, unsigned int, google::protobuf::hash<unsigned int>, google::protobuf::Map<unsigned int, std::__cxx11::basic_string<char> >::MapAllocator<google::protobuf::Map<unsigned int, std::__cxx11::basic_string<char> >::KeyValuePair> >
   fun:DoCreateMaybeMessage<google::protobuf::Map<unsigned int, std::__cxx11::basic_string<char> >::InnerMap, unsigned int, google::protobuf::hash<unsigned int>, google::protobuf::Map<unsigned int, std::__cxx11::basic_string<char> >::MapAllocator<google::protobuf::Map<unsigned int, std::__cxx11::basic_string<char> >::KeyValuePair> >
   fun:CreateMaybeMessage<google::protobuf::Map<unsigned int, std::__cxx11::basic_string<char> >::InnerMap, unsigned int, google::protobuf::hash<unsigned int>, google::protobuf::Map<unsigned int, std::__cxx11::basic_string<char> >::MapAllocator<google::protobuf::Map<unsigned int, std::__cxx11::basic_string<char> >::KeyValuePair> >
   fun:CreateNoMessage<google::protobuf::Map<unsigned int, std::__cxx11::basic_string<char> >::InnerMap, unsigned int, google::protobuf::hash<unsigned int>, google::protobuf::Map<unsigned int, std::__cxx11::basic_string<char> >::MapAllocator<google::protobuf::Map<unsigned int, std::__cxx11::basic_string<char> >::KeyValuePair> >
   fun:Create<google::protobuf::Map<unsigned int, std::__cxx11::basic_string<char> >::InnerMap, unsigned int, google::protobuf::hash<unsigned int>, google::protobuf::Map<unsigned int, std::__cxx11::basic_string<char> >::MapAllocator<google::protobuf::Map<unsigned int, std::__cxx11::basic_string<char> >::KeyValuePair> >
   fun:_ZN6google8protobuf3MapIjNSt7__cxx1112basic_stringIcSt11char_traitsIcESaIcEEEE4InitEv
   fun:_ZN6google8protobuf3MapIjNSt7__cxx1112basic_stringIcSt11char_traitsIcESaIcEEEEC1Ev
   fun:_ZN6google8protobuf8internal12MapFieldLiteIN10tensorflow41DeviceStepStats_ThreadNamesEntry_DoNotUseEjNSt7__cxx1112basic_stringIcSt11char_traitsIcESaIcEEELNS1_14WireFormatLite9FieldTypeE13ELSC_9ELi0EEC1Ev
   fun:_ZN6google8protobuf8internal8MapFieldIN10tensorflow41DeviceStepStats_ThreadNamesEntry_DoNotUseEjNSt7__cxx1112basic_stringIcSt11char_traitsIcESaIcEEELNS1_14WireFormatLite9FieldTypeE13ELSC_9ELi0EEC1Ev
   fun:_ZN10tensorflow15DeviceStepStatsC1Ev
   fun:_ZL89InitDefaultsscc_info_DeviceStepStats_tensorflow_2fcore_2fframework_2fstep_5fstats_2eprotov
   fun:_ZN6google8protobuf8internal12_GLOBAL__N_111InitSCC_DFSEPNS1_11SCCInfoBaseE
}
{
   <tensorflow_full>
   Memcheck:Leak
   match-leak-kinds: reachable
   fun:_Znwm
   fun:_ZN6google8protobuf3MapINSt7__cxx1112basic_stringIcSt11char_traitsIcESaIcEEEN10tensorflow9AttrValueEE12MapAllocatorIPvE8allocateEmPKv
   fun:_ZN6google8protobuf3MapINSt7__cxx1112basic_stringIcSt11char_traitsIcESaIcEEEN10tensorflow9AttrValueEE8InnerMap5AllocIPvEEPT_m
   fun:_ZN6google8protobuf3MapINSt7__cxx1112basic_stringIcSt11char_traitsIcESaIcEEEN10tensorflow9AttrValueEE8InnerMap16CreateEmptyTableEm
   fun:_ZN6google8protobuf3MapINSt7__cxx1112basic_stringIcSt11char_traitsIcESaIcEEEN10tensorflow9AttrValueEE8InnerMapC1EmNS0_4hashIS7_EENSA_12MapAllocatorINSA_12KeyValuePairEEE
   fun:CreateInternal<google::protobuf::Map<std::__cxx11::basic_string<char>, tensorflow::AttrValue>::InnerMap, unsigned int, google::protobuf::hash<std::__cxx11::basic_string<char, std::char_traits<char>, std::allocator<char> > >, google::protobuf::Map<std::__cxx11::basic_string<char>, tensorflow::AttrValue>::MapAllocator<google::protobuf::Map<std::__cxx11::basic_string<char>, tensorflow::AttrValue>::KeyValuePair> >
   fun:DoCreateMaybeMessage<google::protobuf::Map<std::__cxx11::basic_string<char>, tensorflow::AttrValue>::InnerMap, unsigned int, google::protobuf::hash<std::__cxx11::basic_string<char, std::char_traits<char>, std::allocator<char> > >, google::protobuf::Map<std::__cxx11::basic_string<char>, tensorflow::AttrValue>::MapAllocator<google::protobuf::Map<std::__cxx11::basic_string<char>, tensorflow::AttrValue>::KeyValuePair> >
   fun:CreateMaybeMessage<google::protobuf::Map<std::__cxx11::basic_string<char>, tensorflow::AttrValue>::InnerMap, unsigned int, google::protobuf::hash<std::__cxx11::basic_string<char, std::char_traits<char>, std::allocator<char> > >, google::protobuf::Map<std::__cxx11::basic_string<char>, tensorflow::AttrValue>::MapAllocator<google::protobuf::Map<std::__cxx11::basic_string<char>, tensorflow::AttrValue>::KeyValuePair> >
   fun:CreateNoMessage<google::protobuf::Map<std::__cxx11::basic_string<char>, tensorflow::AttrValue>::InnerMap, unsigned int, google::protobuf::hash<std::__cxx11::basic_string<char, std::char_traits<char>, std::allocator<char> > >, google::protobuf::Map<std::__cxx11::basic_string<char>, tensorflow::AttrValue>::MapAllocator<google::protobuf::Map<std::__cxx11::basic_string<char>, tensorflow::AttrValue>::KeyValuePair> >
   fun:Create<google::protobuf::Map<std::__cxx11::basic_string<char>, tensorflow::AttrValue>::InnerMap, unsigned int, google::protobuf::hash<std::__cxx11::basic_string<char, std::char_traits<char>, std::allocator<char> > >, google::protobuf::Map<std::__cxx11::basic_string<char>, tensorflow::AttrValue>::MapAllocator<google::protobuf::Map<std::__cxx11::basic_string<char>, tensorflow::AttrValue>::KeyValuePair> >
   fun:_ZN6google8protobuf3MapINSt7__cxx1112basic_stringIcSt11char_traitsIcESaIcEEEN10tensorflow9AttrValueEE4InitEv
   fun:_ZN6google8protobuf3MapINSt7__cxx1112basic_stringIcSt11char_traitsIcESaIcEEEN10tensorflow9AttrValueEEC1Ev
   fun:_ZN6google8protobuf8internal12MapFieldLiteIN10tensorflow26NodeDef_AttrEntry_DoNotUseENSt7__cxx1112basic_stringIcSt11char_traitsIcESaIcEEENS3_9AttrValueELNS1_14WireFormatLite9FieldTypeE9ELSD_11ELi0EEC1Ev
   fun:_ZN6google8protobuf8internal8MapFieldIN10tensorflow26NodeDef_AttrEntry_DoNotUseENSt7__cxx1112basic_stringIcSt11char_traitsIcESaIcEEENS3_9AttrValueELNS1_14WireFormatLite9FieldTypeE9ELSD_11ELi0EEC1Ev
   fun:_ZN10tensorflow7NodeDefC1Ev
   fun:_ZL79InitDefaultsscc_info_NodeDef_tensorflow_2fcore_2fframework_2fnode_5fdef_2eprotov
   fun:_ZN6google8protobuf8internal12_GLOBAL__N_111InitSCC_DFSEPNS1_11SCCInfoBaseE
}
{
   <tensorflow_full>
   Memcheck:Leak
   match-leak-kinds: reachable
   fun:_Znwm
   fun:_ZN6google8protobuf3MapINSt7__cxx1112basic_stringIcSt11char_traitsIcESaIcEEEN10tensorflow9AttrValueEE12MapAllocatorIPvE8allocateEmPKv
   fun:_ZN6google8protobuf3MapINSt7__cxx1112basic_stringIcSt11char_traitsIcESaIcEEEN10tensorflow9AttrValueEE8InnerMap5AllocIPvEEPT_m
   fun:_ZN6google8protobuf3MapINSt7__cxx1112basic_stringIcSt11char_traitsIcESaIcEEEN10tensorflow9AttrValueEE8InnerMap16CreateEmptyTableEm
   fun:_ZN6google8protobuf3MapINSt7__cxx1112basic_stringIcSt11char_traitsIcESaIcEEEN10tensorflow9AttrValueEE8InnerMapC1EmNS0_4hashIS7_EENSA_12MapAllocatorINSA_12KeyValuePairEEE
   fun:CreateInternal<google::protobuf::Map<std::__cxx11::basic_string<char>, tensorflow::AttrValue>::InnerMap, unsigned int, google::protobuf::hash<std::__cxx11::basic_string<char, std::char_traits<char>, std::allocator<char> > >, google::protobuf::Map<std::__cxx11::basic_string<char>, tensorflow::AttrValue>::MapAllocator<google::protobuf::Map<std::__cxx11::basic_string<char>, tensorflow::AttrValue>::KeyValuePair> >
   fun:DoCreateMaybeMessage<google::protobuf::Map<std::__cxx11::basic_string<char>, tensorflow::AttrValue>::InnerMap, unsigned int, google::protobuf::hash<std::__cxx11::basic_string<char, std::char_traits<char>, std::allocator<char> > >, google::protobuf::Map<std::__cxx11::basic_string<char>, tensorflow::AttrValue>::MapAllocator<google::protobuf::Map<std::__cxx11::basic_string<char>, tensorflow::AttrValue>::KeyValuePair> >
   fun:CreateMaybeMessage<google::protobuf::Map<std::__cxx11::basic_string<char>, tensorflow::AttrValue>::InnerMap, unsigned int, google::protobuf::hash<std::__cxx11::basic_string<char, std::char_traits<char>, std::allocator<char> > >, google::protobuf::Map<std::__cxx11::basic_string<char>, tensorflow::AttrValue>::MapAllocator<google::protobuf::Map<std::__cxx11::basic_string<char>, tensorflow::AttrValue>::KeyValuePair> >
   fun:CreateNoMessage<google::protobuf::Map<std::__cxx11::basic_string<char>, tensorflow::AttrValue>::InnerMap, unsigned int, google::protobuf::hash<std::__cxx11::basic_string<char, std::char_traits<char>, std::allocator<char> > >, google::protobuf::Map<std::__cxx11::basic_string<char>, tensorflow::AttrValue>::MapAllocator<google::protobuf::Map<std::__cxx11::basic_string<char>, tensorflow::AttrValue>::KeyValuePair> >
   fun:Create<google::protobuf::Map<std::__cxx11::basic_string<char>, tensorflow::AttrValue>::InnerMap, unsigned int, google::protobuf::hash<std::__cxx11::basic_string<char, std::char_traits<char>, std::allocator<char> > >, google::protobuf::Map<std::__cxx11::basic_string<char>, tensorflow::AttrValue>::MapAllocator<google::protobuf::Map<std::__cxx11::basic_string<char>, tensorflow::AttrValue>::KeyValuePair> >
   fun:_ZN6google8protobuf3MapINSt7__cxx1112basic_stringIcSt11char_traitsIcESaIcEEEN10tensorflow9AttrValueEE4InitEv
   fun:_ZN6google8protobuf3MapINSt7__cxx1112basic_stringIcSt11char_traitsIcESaIcEEEN10tensorflow9AttrValueEEC1Ev
   fun:_ZN6google8protobuf8internal12MapFieldLiteIN10tensorflow39FunctionDef_ArgAttrs_AttrEntry_DoNotUseENSt7__cxx1112basic_stringIcSt11char_traitsIcESaIcEEENS3_9AttrValueELNS1_14WireFormatLite9FieldTypeE9ELSD_11ELi0EEC1Ev
   fun:_ZN6google8protobuf8internal8MapFieldIN10tensorflow39FunctionDef_ArgAttrs_AttrEntry_DoNotUseENSt7__cxx1112basic_stringIcSt11char_traitsIcESaIcEEENS3_9AttrValueELNS1_14WireFormatLite9FieldTypeE9ELSD_11ELi0EEC1Ev
   fun:_ZN10tensorflow20FunctionDef_ArgAttrsC1Ev
   fun:_ZL90InitDefaultsscc_info_FunctionDef_ArgAttrs_tensorflow_2fcore_2fframework_2ffunction_2eprotov
   fun:_ZN6google8protobuf8internal12_GLOBAL__N_111InitSCC_DFSEPNS1_11SCCInfoBaseE
}
{
   <tensorflow_full>
   Memcheck:Leak
   match-leak-kinds: reachable
   fun:_Znwm
   fun:_ZN6google8protobuf3MapINSt7__cxx1112basic_stringIcSt11char_traitsIcESaIcEEES7_E12MapAllocatorIPvE8allocateEmPKv
   fun:_ZN6google8protobuf3MapINSt7__cxx1112basic_stringIcSt11char_traitsIcESaIcEEES7_E8InnerMap5AllocIPvEEPT_m
   fun:_ZN6google8protobuf3MapINSt7__cxx1112basic_stringIcSt11char_traitsIcESaIcEEES7_E8InnerMap16CreateEmptyTableEm
   fun:_ZN6google8protobuf3MapINSt7__cxx1112basic_stringIcSt11char_traitsIcESaIcEEES7_E8InnerMapC1EmNS0_4hashIS7_EENS8_12MapAllocatorINS8_12KeyValuePairEEE
   fun:CreateInternal<google::protobuf::Map<std::__cxx11::basic_string<char>, std::__cxx11::basic_string<char> >::InnerMap, unsigned int, google::protobuf::hash<std::__cxx11::basic_string<char, std::char_traits<char>, std::allocator<char> > >, google::protobuf::Map<std::__cxx11::basic_string<char>, std::__cxx11::basic_string<char> >::MapAllocator<google::protobuf::Map<std::__cxx11::basic_string<char>, std::__cxx11::basic_string<char> >::KeyValuePair> >
   fun:DoCreateMaybeMessage<google::protobuf::Map<std::__cxx11::basic_string<char>, std::__cxx11::basic_string<char> >::InnerMap, unsigned int, google::protobuf::hash<std::__cxx11::basic_string<char, std::char_traits<char>, std::allocator<char> > >, google::protobuf::Map<std::__cxx11::basic_string<char>, std::__cxx11::basic_string<char> >::MapAllocator<google::protobuf::Map<std::__cxx11::basic_string<char>, std::__cxx11::basic_string<char> >::KeyValuePair> >
   fun:CreateMaybeMessage<google::protobuf::Map<std::__cxx11::basic_string<char>, std::__cxx11::basic_string<char> >::InnerMap, unsigned int, google::protobuf::hash<std::__cxx11::basic_string<char, std::char_traits<char>, std::allocator<char> > >, google::protobuf::Map<std::__cxx11::basic_string<char>, std::__cxx11::basic_string<char> >::MapAllocator<google::protobuf::Map<std::__cxx11::basic_string<char>, std::__cxx11::basic_string<char> >::KeyValuePair> >
   fun:CreateNoMessage<google::protobuf::Map<std::__cxx11::basic_string<char>, std::__cxx11::basic_string<char> >::InnerMap, unsigned int, google::protobuf::hash<std::__cxx11::basic_string<char, std::char_traits<char>, std::allocator<char> > >, google::protobuf::Map<std::__cxx11::basic_string<char>, std::__cxx11::basic_string<char> >::MapAllocator<google::protobuf::Map<std::__cxx11::basic_string<char>, std::__cxx11::basic_string<char> >::KeyValuePair> >
   fun:Create<google::protobuf::Map<std::__cxx11::basic_string<char>, std::__cxx11::basic_string<char> >::InnerMap, unsigned int, google::protobuf::hash<std::__cxx11::basic_string<char, std::char_traits<char>, std::allocator<char> > >, google::protobuf::Map<std::__cxx11::basic_string<char>, std::__cxx11::basic_string<char> >::MapAllocator<google::protobuf::Map<std::__cxx11::basic_string<char>, std::__cxx11::basic_string<char> >::KeyValuePair> >
   fun:_ZN6google8protobuf3MapINSt7__cxx1112basic_stringIcSt11char_traitsIcESaIcEEES7_E4InitEv
   fun:_ZN6google8protobuf3MapINSt7__cxx1112basic_stringIcSt11char_traitsIcESaIcEEES7_EC1Ev
   fun:_ZN6google8protobuf8internal12MapFieldLiteIN10tensorflow29FunctionDef_RetEntry_DoNotUseENSt7__cxx1112basic_stringIcSt11char_traitsIcESaIcEEESA_LNS1_14WireFormatLite9FieldTypeE9ELSC_9ELi0EEC1Ev
   fun:_ZN6google8protobuf8internal8MapFieldIN10tensorflow29FunctionDef_RetEntry_DoNotUseENSt7__cxx1112basic_stringIcSt11char_traitsIcESaIcEEESA_LNS1_14WireFormatLite9FieldTypeE9ELSC_9ELi0EEC1Ev
   fun:_ZN10tensorflow11FunctionDefC1Ev
   fun:_ZL81InitDefaultsscc_info_FunctionDef_tensorflow_2fcore_2fframework_2ffunction_2eprotov
   fun:_ZN6google8protobuf8internal12_GLOBAL__N_111InitSCC_DFSEPNS1_11SCCInfoBaseE
}
{
   <tensorflow_full>
   Memcheck:Leak
   match-leak-kinds: reachable
   fun:_Znwm
   fun:_ZN6google8protobuf3MapINSt7__cxx1112basic_stringIcSt11char_traitsIcESaIcEEEN10tensorflow9AttrValueEE12MapAllocatorIPvE8allocateEmPKv
   fun:_ZN6google8protobuf3MapINSt7__cxx1112basic_stringIcSt11char_traitsIcESaIcEEEN10tensorflow9AttrValueEE8InnerMap5AllocIPvEEPT_m
   fun:_ZN6google8protobuf3MapINSt7__cxx1112basic_stringIcSt11char_traitsIcESaIcEEEN10tensorflow9AttrValueEE8InnerMap16CreateEmptyTableEm
   fun:_ZN6google8protobuf3MapINSt7__cxx1112basic_stringIcSt11char_traitsIcESaIcEEEN10tensorflow9AttrValueEE8InnerMapC1EmNS0_4hashIS7_EENSA_12MapAllocatorINSA_12KeyValuePairEEE
   fun:CreateInternal<google::protobuf::Map<std::__cxx11::basic_string<char>, tensorflow::AttrValue>::InnerMap, unsigned int, google::protobuf::hash<std::__cxx11::basic_string<char, std::char_traits<char>, std::allocator<char> > >, google::protobuf::Map<std::__cxx11::basic_string<char>, tensorflow::AttrValue>::MapAllocator<google::protobuf::Map<std::__cxx11::basic_string<char>, tensorflow::AttrValue>::KeyValuePair> >
   fun:DoCreateMaybeMessage<google::protobuf::Map<std::__cxx11::basic_string<char>, tensorflow::AttrValue>::InnerMap, unsigned int, google::protobuf::hash<std::__cxx11::basic_string<char, std::char_traits<char>, std::allocator<char> > >, google::protobuf::Map<std::__cxx11::basic_string<char>, tensorflow::AttrValue>::MapAllocator<google::protobuf::Map<std::__cxx11::basic_string<char>, tensorflow::AttrValue>::KeyValuePair> >
   fun:CreateMaybeMessage<google::protobuf::Map<std::__cxx11::basic_string<char>, tensorflow::AttrValue>::InnerMap, unsigned int, google::protobuf::hash<std::__cxx11::basic_string<char, std::char_traits<char>, std::allocator<char> > >, google::protobuf::Map<std::__cxx11::basic_string<char>, tensorflow::AttrValue>::MapAllocator<google::protobuf::Map<std::__cxx11::basic_string<char>, tensorflow::AttrValue>::KeyValuePair> >
   fun:CreateNoMessage<google::protobuf::Map<std::__cxx11::basic_string<char>, tensorflow::AttrValue>::InnerMap, unsigned int, google::protobuf::hash<std::__cxx11::basic_string<char, std::char_traits<char>, std::allocator<char> > >, google::protobuf::Map<std::__cxx11::basic_string<char>, tensorflow::AttrValue>::MapAllocator<google::protobuf::Map<std::__cxx11::basic_string<char>, tensorflow::AttrValue>::KeyValuePair> >
   fun:Create<google::protobuf::Map<std::__cxx11::basic_string<char>, tensorflow::AttrValue>::InnerMap, unsigned int, google::protobuf::hash<std::__cxx11::basic_string<char, std::char_traits<char>, std::allocator<char> > >, google::protobuf::Map<std::__cxx11::basic_string<char>, tensorflow::AttrValue>::MapAllocator<google::protobuf::Map<std::__cxx11::basic_string<char>, tensorflow::AttrValue>::KeyValuePair> >
   fun:_ZN6google8protobuf3MapINSt7__cxx1112basic_stringIcSt11char_traitsIcESaIcEEEN10tensorflow9AttrValueEE4InitEv
   fun:_ZN6google8protobuf3MapINSt7__cxx1112basic_stringIcSt11char_traitsIcESaIcEEEN10tensorflow9AttrValueEEC1Ev
   fun:_ZN6google8protobuf8internal12MapFieldLiteIN10tensorflow30FunctionDef_AttrEntry_DoNotUseENSt7__cxx1112basic_stringIcSt11char_traitsIcESaIcEEENS3_9AttrValueELNS1_14WireFormatLite9FieldTypeE9ELSD_11ELi0EEC1Ev
   fun:_ZN6google8protobuf8internal8MapFieldIN10tensorflow30FunctionDef_AttrEntry_DoNotUseENSt7__cxx1112basic_stringIcSt11char_traitsIcESaIcEEENS3_9AttrValueELNS1_14WireFormatLite9FieldTypeE9ELSD_11ELi0EEC1Ev
   fun:_ZN10tensorflow11FunctionDefC1Ev
   fun:_ZL81InitDefaultsscc_info_FunctionDef_tensorflow_2fcore_2fframework_2ffunction_2eprotov
   fun:_ZN6google8protobuf8internal12_GLOBAL__N_111InitSCC_DFSEPNS1_11SCCInfoBaseE
}
{
   <tensorflow_full>
   Memcheck:Leak
   match-leak-kinds: reachable
   fun:_Znwm
   fun:_ZN6google8protobuf3MapINSt7__cxx1112basic_stringIcSt11char_traitsIcESaIcEEES7_E12MapAllocatorIPvE8allocateEmPKv
   fun:_ZN6google8protobuf3MapINSt7__cxx1112basic_stringIcSt11char_traitsIcESaIcEEES7_E8InnerMap5AllocIPvEEPT_m
   fun:_ZN6google8protobuf3MapINSt7__cxx1112basic_stringIcSt11char_traitsIcESaIcEEES7_E8InnerMap16CreateEmptyTableEm
   fun:_ZN6google8protobuf3MapINSt7__cxx1112basic_stringIcSt11char_traitsIcESaIcEEES7_E8InnerMapC1EmNS0_4hashIS7_EENS8_12MapAllocatorINS8_12KeyValuePairEEE
   fun:CreateInternal<google::protobuf::Map<std::__cxx11::basic_string<char>, std::__cxx11::basic_string<char> >::InnerMap, unsigned int, google::protobuf::hash<std::__cxx11::basic_string<char, std::char_traits<char>, std::allocator<char> > >, google::protobuf::Map<std::__cxx11::basic_string<char>, std::__cxx11::basic_string<char> >::MapAllocator<google::protobuf::Map<std::__cxx11::basic_string<char>, std::__cxx11::basic_string<char> >::KeyValuePair> >
   fun:DoCreateMaybeMessage<google::protobuf::Map<std::__cxx11::basic_string<char>, std::__cxx11::basic_string<char> >::InnerMap, unsigned int, google::protobuf::hash<std::__cxx11::basic_string<char, std::char_traits<char>, std::allocator<char> > >, google::protobuf::Map<std::__cxx11::basic_string<char>, std::__cxx11::basic_string<char> >::MapAllocator<google::protobuf::Map<std::__cxx11::basic_string<char>, std::__cxx11::basic_string<char> >::KeyValuePair> >
   fun:CreateMaybeMessage<google::protobuf::Map<std::__cxx11::basic_string<char>, std::__cxx11::basic_string<char> >::InnerMap, unsigned int, google::protobuf::hash<std::__cxx11::basic_string<char, std::char_traits<char>, std::allocator<char> > >, google::protobuf::Map<std::__cxx11::basic_string<char>, std::__cxx11::basic_string<char> >::MapAllocator<google::protobuf::Map<std::__cxx11::basic_string<char>, std::__cxx11::basic_string<char> >::KeyValuePair> >
   fun:CreateNoMessage<google::protobuf::Map<std::__cxx11::basic_string<char>, std::__cxx11::basic_string<char> >::InnerMap, unsigned int, google::protobuf::hash<std::__cxx11::basic_string<char, std::char_traits<char>, std::allocator<char> > >, google::protobuf::Map<std::__cxx11::basic_string<char>, std::__cxx11::basic_string<char> >::MapAllocator<google::protobuf::Map<std::__cxx11::basic_string<char>, std::__cxx11::basic_string<char> >::KeyValuePair> >
   fun:Create<google::protobuf::Map<std::__cxx11::basic_string<char>, std::__cxx11::basic_string<char> >::InnerMap, unsigned int, google::protobuf::hash<std::__cxx11::basic_string<char, std::char_traits<char>, std::allocator<char> > >, google::protobuf::Map<std::__cxx11::basic_string<char>, std::__cxx11::basic_string<char> >::MapAllocator<google::protobuf::Map<std::__cxx11::basic_string<char>, std::__cxx11::basic_string<char> >::KeyValuePair> >
   fun:_ZN6google8protobuf3MapINSt7__cxx1112basic_stringIcSt11char_traitsIcESaIcEEES7_E4InitEv
   fun:_ZN6google8protobuf3MapINSt7__cxx1112basic_stringIcSt11char_traitsIcESaIcEEES7_EC1Ev
   fun:_ZN6google8protobuf8internal12MapFieldLiteIN10tensorflow36FunctionDef_ControlRetEntry_DoNotUseENSt7__cxx1112basic_stringIcSt11char_traitsIcESaIcEEESA_LNS1_14WireFormatLite9FieldTypeE9ELSC_9ELi0EEC1Ev
   fun:_ZN6google8protobuf8internal8MapFieldIN10tensorflow36FunctionDef_ControlRetEntry_DoNotUseENSt7__cxx1112basic_stringIcSt11char_traitsIcESaIcEEESA_LNS1_14WireFormatLite9FieldTypeE9ELSC_9ELi0EEC1Ev
   fun:_ZN10tensorflow11FunctionDefC1Ev
   fun:_ZL81InitDefaultsscc_info_FunctionDef_tensorflow_2fcore_2fframework_2ffunction_2eprotov
   fun:_ZN6google8protobuf8internal12_GLOBAL__N_111InitSCC_DFSEPNS1_11SCCInfoBaseE
}
{
   <tensorflow_full>
   Memcheck:Leak
   match-leak-kinds: reachable
   fun:_Znwm
   fun:_ZN6google8protobuf3MapIjN10tensorflow20FunctionDef_ArgAttrsEE12MapAllocatorIPvE8allocateEmPKv
   fun:_ZN6google8protobuf3MapIjN10tensorflow20FunctionDef_ArgAttrsEE8InnerMap5AllocIPvEEPT_m
   fun:_ZN6google8protobuf3MapIjN10tensorflow20FunctionDef_ArgAttrsEE8InnerMap16CreateEmptyTableEm
   fun:_ZN6google8protobuf3MapIjN10tensorflow20FunctionDef_ArgAttrsEE8InnerMapC1EmNS0_4hashIjEENS4_12MapAllocatorINS4_12KeyValuePairEEE
   fun:CreateInternal<google::protobuf::Map<unsigned int, tensorflow::FunctionDef_ArgAttrs>::InnerMap, unsigned int, google::protobuf::hash<unsigned int>, google::protobuf::Map<unsigned int, tensorflow::FunctionDef_ArgAttrs>::MapAllocator<google::protobuf::Map<unsigned int, tensorflow::FunctionDef_ArgAttrs>::KeyValuePair> >
   fun:DoCreateMaybeMessage<google::protobuf::Map<unsigned int, tensorflow::FunctionDef_ArgAttrs>::InnerMap, unsigned int, google::protobuf::hash<unsigned int>, google::protobuf::Map<unsigned int, tensorflow::FunctionDef_ArgAttrs>::MapAllocator<google::protobuf::Map<unsigned int, tensorflow::FunctionDef_ArgAttrs>::KeyValuePair> >
   fun:CreateMaybeMessage<google::protobuf::Map<unsigned int, tensorflow::FunctionDef_ArgAttrs>::InnerMap, unsigned int, google::protobuf::hash<unsigned int>, google::protobuf::Map<unsigned int, tensorflow::FunctionDef_ArgAttrs>::MapAllocator<google::protobuf::Map<unsigned int, tensorflow::FunctionDef_ArgAttrs>::KeyValuePair> >
   fun:CreateNoMessage<google::protobuf::Map<unsigned int, tensorflow::FunctionDef_ArgAttrs>::InnerMap, unsigned int, google::protobuf::hash<unsigned int>, google::protobuf::Map<unsigned int, tensorflow::FunctionDef_ArgAttrs>::MapAllocator<google::protobuf::Map<unsigned int, tensorflow::FunctionDef_ArgAttrs>::KeyValuePair> >
   fun:Create<google::protobuf::Map<unsigned int, tensorflow::FunctionDef_ArgAttrs>::InnerMap, unsigned int, google::protobuf::hash<unsigned int>, google::protobuf::Map<unsigned int, tensorflow::FunctionDef_ArgAttrs>::MapAllocator<google::protobuf::Map<unsigned int, tensorflow::FunctionDef_ArgAttrs>::KeyValuePair> >
   fun:_ZN6google8protobuf3MapIjN10tensorflow20FunctionDef_ArgAttrsEE4InitEv
   fun:_ZN6google8protobuf3MapIjN10tensorflow20FunctionDef_ArgAttrsEEC1Ev
   fun:_ZN6google8protobuf8internal12MapFieldLiteIN10tensorflow33FunctionDef_ArgAttrEntry_DoNotUseEjNS3_20FunctionDef_ArgAttrsELNS1_14WireFormatLite9FieldTypeE13ELS7_11ELi0EEC1Ev
   fun:_ZN6google8protobuf8internal8MapFieldIN10tensorflow33FunctionDef_ArgAttrEntry_DoNotUseEjNS3_20FunctionDef_ArgAttrsELNS1_14WireFormatLite9FieldTypeE13ELS7_11ELi0EEC1Ev
   fun:_ZN10tensorflow11FunctionDefC1Ev
   fun:_ZL81InitDefaultsscc_info_FunctionDef_tensorflow_2fcore_2fframework_2ffunction_2eprotov
   fun:_ZN6google8protobuf8internal12_GLOBAL__N_111InitSCC_DFSEPNS1_11SCCInfoBaseE
}
{
   <tensorflow_full>
   Memcheck:Leak
   match-leak-kinds: reachable
   fun:_Znwm
   fun:_ZN6google8protobuf3MapIjjE12MapAllocatorIPvE8allocateEmPKv
   fun:_ZN6google8protobuf3MapIjjE8InnerMap5AllocIPvEEPT_m
   fun:_ZN6google8protobuf3MapIjjE8InnerMap16CreateEmptyTableEm
   fun:_ZN6google8protobuf3MapIjjE8InnerMapC1EmNS0_4hashIjEENS2_12MapAllocatorINS2_12KeyValuePairEEE
   fun:CreateInternal<google::protobuf::Map<unsigned int, unsigned int>::InnerMap, unsigned int, google::protobuf::hash<unsigned int>, google::protobuf::Map<unsigned int, unsigned int>::MapAllocator<google::protobuf::Map<unsigned int, unsigned int>::KeyValuePair> >
   fun:DoCreateMaybeMessage<google::protobuf::Map<unsigned int, unsigned int>::InnerMap, unsigned int, google::protobuf::hash<unsigned int>, google::protobuf::Map<unsigned int, unsigned int>::MapAllocator<google::protobuf::Map<unsigned int, unsigned int>::KeyValuePair> >
   fun:CreateMaybeMessage<google::protobuf::Map<unsigned int, unsigned int>::InnerMap, unsigned int, google::protobuf::hash<unsigned int>, google::protobuf::Map<unsigned int, unsigned int>::MapAllocator<google::protobuf::Map<unsigned int, unsigned int>::KeyValuePair> >
   fun:CreateNoMessage<google::protobuf::Map<unsigned int, unsigned int>::InnerMap, unsigned int, google::protobuf::hash<unsigned int>, google::protobuf::Map<unsigned int, unsigned int>::MapAllocator<google::protobuf::Map<unsigned int, unsigned int>::KeyValuePair> >
   fun:Create<google::protobuf::Map<unsigned int, unsigned int>::InnerMap, unsigned int, google::protobuf::hash<unsigned int>, google::protobuf::Map<unsigned int, unsigned int>::MapAllocator<google::protobuf::Map<unsigned int, unsigned int>::KeyValuePair> >
   fun:_ZN6google8protobuf3MapIjjE4InitEv
   fun:_ZN6google8protobuf3MapIjjEC1Ev
   fun:_ZN6google8protobuf8internal12MapFieldLiteIN10tensorflow45FunctionDef_ResourceArgUniqueIdEntry_DoNotUseEjjLNS1_14WireFormatLite9FieldTypeE13ELS6_13ELi0EEC1Ev
   fun:_ZN6google8protobuf8internal8MapFieldIN10tensorflow45FunctionDef_ResourceArgUniqueIdEntry_DoNotUseEjjLNS1_14WireFormatLite9FieldTypeE13ELS6_13ELi0EEC1Ev
   fun:_ZN10tensorflow11FunctionDefC1Ev
   fun:_ZL81InitDefaultsscc_info_FunctionDef_tensorflow_2fcore_2fframework_2ffunction_2eprotov
   fun:_ZN6google8protobuf8internal12_GLOBAL__N_111InitSCC_DFSEPNS1_11SCCInfoBaseE
}
{
   <tensorflow_full>
   Memcheck:Leak
   match-leak-kinds: reachable
   fun:_Znwm
   fun:_ZN6google8protobuf3MapIiN10tensorflow17TaskDeviceFiltersEE12MapAllocatorIPvE8allocateEmPKv
   fun:_ZN6google8protobuf3MapIiN10tensorflow17TaskDeviceFiltersEE8InnerMap5AllocIPvEEPT_m
   fun:_ZN6google8protobuf3MapIiN10tensorflow17TaskDeviceFiltersEE8InnerMap16CreateEmptyTableEm
   fun:_ZN6google8protobuf3MapIiN10tensorflow17TaskDeviceFiltersEE8InnerMapC1EmNS0_4hashIiEENS4_12MapAllocatorINS4_12KeyValuePairEEE
   fun:CreateInternal<google::protobuf::Map<int, tensorflow::TaskDeviceFilters>::InnerMap, unsigned int, google::protobuf::hash<int>, google::protobuf::Map<int, tensorflow::TaskDeviceFilters>::MapAllocator<google::protobuf::Map<int, tensorflow::TaskDeviceFilters>::KeyValuePair> >
   fun:DoCreateMaybeMessage<google::protobuf::Map<int, tensorflow::TaskDeviceFilters>::InnerMap, unsigned int, google::protobuf::hash<int>, google::protobuf::Map<int, tensorflow::TaskDeviceFilters>::MapAllocator<google::protobuf::Map<int, tensorflow::TaskDeviceFilters>::KeyValuePair> >
   fun:CreateMaybeMessage<google::protobuf::Map<int, tensorflow::TaskDeviceFilters>::InnerMap, unsigned int, google::protobuf::hash<int>, google::protobuf::Map<int, tensorflow::TaskDeviceFilters>::MapAllocator<google::protobuf::Map<int, tensorflow::TaskDeviceFilters>::KeyValuePair> >
   fun:CreateNoMessage<google::protobuf::Map<int, tensorflow::TaskDeviceFilters>::InnerMap, unsigned int, google::protobuf::hash<int>, google::protobuf::Map<int, tensorflow::TaskDeviceFilters>::MapAllocator<google::protobuf::Map<int, tensorflow::TaskDeviceFilters>::KeyValuePair> >
   fun:Create<google::protobuf::Map<int, tensorflow::TaskDeviceFilters>::InnerMap, unsigned int, google::protobuf::hash<int>, google::protobuf::Map<int, tensorflow::TaskDeviceFilters>::MapAllocator<google::protobuf::Map<int, tensorflow::TaskDeviceFilters>::KeyValuePair> >
   fun:_ZN6google8protobuf3MapIiN10tensorflow17TaskDeviceFiltersEE4InitEv
   fun:_ZN6google8protobuf3MapIiN10tensorflow17TaskDeviceFiltersEEC1Ev
   fun:_ZN6google8protobuf8internal12MapFieldLiteIN10tensorflow36JobDeviceFilters_TasksEntry_DoNotUseEiNS3_17TaskDeviceFiltersELNS1_14WireFormatLite9FieldTypeE5ELS7_11ELi0EEC1Ev
   fun:_ZN6google8protobuf8internal8MapFieldIN10tensorflow36JobDeviceFilters_TasksEntry_DoNotUseEiNS3_17TaskDeviceFiltersELNS1_14WireFormatLite9FieldTypeE5ELS7_11ELi0EEC1Ev
   fun:_ZN10tensorflow16JobDeviceFiltersC1Ev
   fun:_ZL93InitDefaultsscc_info_JobDeviceFilters_tensorflow_2fcore_2fprotobuf_2fdevice_5ffilters_2eprotov
   fun:_ZN6google8protobuf8internal12_GLOBAL__N_111InitSCC_DFSEPNS1_11SCCInfoBaseE
}
{
   <tensorflow_full>
   Memcheck:Leak
   match-leak-kinds: reachable
   fun:_Znwm
   fun:_ZN6google8protobuf3MapINSt7__cxx1112basic_stringIcSt11char_traitsIcESaIcEEEN10tensorflow25GraphDebugInfo_StackTraceEE12MapAllocatorIPvE8allocateEmPKv
   fun:_ZN6google8protobuf3MapINSt7__cxx1112basic_stringIcSt11char_traitsIcESaIcEEEN10tensorflow25GraphDebugInfo_StackTraceEE8InnerMap5AllocIPvEEPT_m
   fun:_ZN6google8protobuf3MapINSt7__cxx1112basic_stringIcSt11char_traitsIcESaIcEEEN10tensorflow25GraphDebugInfo_StackTraceEE8InnerMap16CreateEmptyTableEm
   fun:_ZN6google8protobuf3MapINSt7__cxx1112basic_stringIcSt11char_traitsIcESaIcEEEN10tensorflow25GraphDebugInfo_StackTraceEE8InnerMapC1EmNS0_4hashIS7_EENSA_12MapAllocatorINSA_12KeyValuePairEEE
   fun:CreateInternal<google::protobuf::Map<std::__cxx11::basic_string<char>, tensorflow::GraphDebugInfo_StackTrace>::InnerMap, unsigned int, google::protobuf::hash<std::__cxx11::basic_string<char, std::char_traits<char>, std::allocator<char> > >, google::protobuf::Map<std::__cxx11::basic_string<char>, tensorflow::GraphDebugInfo_StackTrace>::MapAllocator<google::protobuf::Map<std::__cxx11::basic_string<char>, tensorflow::GraphDebugInfo_StackTrace>::KeyValuePair> >
   fun:DoCreateMaybeMessage<google::protobuf::Map<std::__cxx11::basic_string<char>, tensorflow::GraphDebugInfo_StackTrace>::InnerMap, unsigned int, google::protobuf::hash<std::__cxx11::basic_string<char, std::char_traits<char>, std::allocator<char> > >, google::protobuf::Map<std::__cxx11::basic_string<char>, tensorflow::GraphDebugInfo_StackTrace>::MapAllocator<google::protobuf::Map<std::__cxx11::basic_string<char>, tensorflow::GraphDebugInfo_StackTrace>::KeyValuePair> >
   fun:CreateMaybeMessage<google::protobuf::Map<std::__cxx11::basic_string<char>, tensorflow::GraphDebugInfo_StackTrace>::InnerMap, unsigned int, google::protobuf::hash<std::__cxx11::basic_string<char, std::char_traits<char>, std::allocator<char> > >, google::protobuf::Map<std::__cxx11::basic_string<char>, tensorflow::GraphDebugInfo_StackTrace>::MapAllocator<google::protobuf::Map<std::__cxx11::basic_string<char>, tensorflow::GraphDebugInfo_StackTrace>::KeyValuePair> >
   fun:CreateNoMessage<google::protobuf::Map<std::__cxx11::basic_string<char>, tensorflow::GraphDebugInfo_StackTrace>::InnerMap, unsigned int, google::protobuf::hash<std::__cxx11::basic_string<char, std::char_traits<char>, std::allocator<char> > >, google::protobuf::Map<std::__cxx11::basic_string<char>, tensorflow::GraphDebugInfo_StackTrace>::MapAllocator<google::protobuf::Map<std::__cxx11::basic_string<char>, tensorflow::GraphDebugInfo_StackTrace>::KeyValuePair> >
   fun:Create<google::protobuf::Map<std::__cxx11::basic_string<char>, tensorflow::GraphDebugInfo_StackTrace>::InnerMap, unsigned int, google::protobuf::hash<std::__cxx11::basic_string<char, std::char_traits<char>, std::allocator<char> > >, google::protobuf::Map<std::__cxx11::basic_string<char>, tensorflow::GraphDebugInfo_StackTrace>::MapAllocator<google::protobuf::Map<std::__cxx11::basic_string<char>, tensorflow::GraphDebugInfo_StackTrace>::KeyValuePair> >
   fun:_ZN6google8protobuf3MapINSt7__cxx1112basic_stringIcSt11char_traitsIcESaIcEEEN10tensorflow25GraphDebugInfo_StackTraceEE4InitEv
   fun:_ZN6google8protobuf3MapINSt7__cxx1112basic_stringIcSt11char_traitsIcESaIcEEEN10tensorflow25GraphDebugInfo_StackTraceEEC1Ev
   fun:_ZN6google8protobuf8internal12MapFieldLiteIN10tensorflow35GraphDebugInfo_TracesEntry_DoNotUseENSt7__cxx1112basic_stringIcSt11char_traitsIcESaIcEEENS3_25GraphDebugInfo_StackTraceELNS1_14WireFormatLite9FieldTypeE9ELSD_11ELi0EEC1Ev
   fun:_ZN6google8protobuf8internal8MapFieldIN10tensorflow35GraphDebugInfo_TracesEntry_DoNotUseENSt7__cxx1112basic_stringIcSt11char_traitsIcESaIcEEENS3_25GraphDebugInfo_StackTraceELNS1_14WireFormatLite9FieldTypeE9ELSD_11ELi0EEC1Ev
   fun:_ZN10tensorflow14GraphDebugInfoC1Ev
   fun:_ZL95InitDefaultsscc_info_GraphDebugInfo_tensorflow_2fcore_2fprotobuf_2fgraph_5fdebug_5finfo_2eprotov
   fun:_ZN6google8protobuf8internal12_GLOBAL__N_111InitSCC_DFSEPNS1_11SCCInfoBaseE
}
{
   <tensorflow_full>
   Memcheck:Leak
   match-leak-kinds: reachable
   fun:_Znwm
   fun:_ZN6google8protobuf3MapINSt7__cxx1112basic_stringIcSt11char_traitsIcESaIcEEES7_E12MapAllocatorIPvE8allocateEmPKv
   fun:_ZN6google8protobuf3MapINSt7__cxx1112basic_stringIcSt11char_traitsIcESaIcEEES7_E8InnerMap5AllocIPvEEPT_m
   fun:_ZN6google8protobuf3MapINSt7__cxx1112basic_stringIcSt11char_traitsIcESaIcEEES7_E8InnerMap16CreateEmptyTableEm
   fun:_ZN6google8protobuf3MapINSt7__cxx1112basic_stringIcSt11char_traitsIcESaIcEEES7_E8InnerMapC1EmNS0_4hashIS7_EENS8_12MapAllocatorINS8_12KeyValuePairEEE
   fun:CreateInternal<google::protobuf::Map<std::__cxx11::basic_string<char>, std::__cxx11::basic_string<char> >::InnerMap, unsigned int, google::protobuf::hash<std::__cxx11::basic_string<char, std::char_traits<char>, std::allocator<char> > >, google::protobuf::Map<std::__cxx11::basic_string<char>, std::__cxx11::basic_string<char> >::MapAllocator<google::protobuf::Map<std::__cxx11::basic_string<char>, std::__cxx11::basic_string<char> >::KeyValuePair> >
   fun:DoCreateMaybeMessage<google::protobuf::Map<std::__cxx11::basic_string<char>, std::__cxx11::basic_string<char> >::InnerMap, unsigned int, google::protobuf::hash<std::__cxx11::basic_string<char, std::char_traits<char>, std::allocator<char> > >, google::protobuf::Map<std::__cxx11::basic_string<char>, std::__cxx11::basic_string<char> >::MapAllocator<google::protobuf::Map<std::__cxx11::basic_string<char>, std::__cxx11::basic_string<char> >::KeyValuePair> >
   fun:CreateMaybeMessage<google::protobuf::Map<std::__cxx11::basic_string<char>, std::__cxx11::basic_string<char> >::InnerMap, unsigned int, google::protobuf::hash<std::__cxx11::basic_string<char, std::char_traits<char>, std::allocator<char> > >, google::protobuf::Map<std::__cxx11::basic_string<char>, std::__cxx11::basic_string<char> >::MapAllocator<google::protobuf::Map<std::__cxx11::basic_string<char>, std::__cxx11::basic_string<char> >::KeyValuePair> >
   fun:CreateNoMessage<google::protobuf::Map<std::__cxx11::basic_string<char>, std::__cxx11::basic_string<char> >::InnerMap, unsigned int, google::protobuf::hash<std::__cxx11::basic_string<char, std::char_traits<char>, std::allocator<char> > >, google::protobuf::Map<std::__cxx11::basic_string<char>, std::__cxx11::basic_string<char> >::MapAllocator<google::protobuf::Map<std::__cxx11::basic_string<char>, std::__cxx11::basic_string<char> >::KeyValuePair> >
   fun:Create<google::protobuf::Map<std::__cxx11::basic_string<char>, std::__cxx11::basic_string<char> >::InnerMap, unsigned int, google::protobuf::hash<std::__cxx11::basic_string<char, std::char_traits<char>, std::allocator<char> > >, google::protobuf::Map<std::__cxx11::basic_string<char>, std::__cxx11::basic_string<char> >::MapAllocator<google::protobuf::Map<std::__cxx11::basic_string<char>, std::__cxx11::basic_string<char> >::KeyValuePair> >
   fun:_ZN6google8protobuf3MapINSt7__cxx1112basic_stringIcSt11char_traitsIcESaIcEEES7_E4InitEv
   fun:_ZN6google8protobuf3MapINSt7__cxx1112basic_stringIcSt11char_traitsIcESaIcEEES7_EC1Ev
   fun:_ZN6google8protobuf8internal12MapFieldLiteIN10tensorflow38ValuesDef_ExternalValuesEntry_DoNotUseENSt7__cxx1112basic_stringIcSt11char_traitsIcESaIcEEESA_LNS1_14WireFormatLite9FieldTypeE9ELSC_9ELi0EEC1Ev
   fun:_ZN6google8protobuf8internal8MapFieldIN10tensorflow38ValuesDef_ExternalValuesEntry_DoNotUseENSt7__cxx1112basic_stringIcSt11char_traitsIcESaIcEEESA_LNS1_14WireFormatLite9FieldTypeE9ELSC_9ELi0EEC1Ev
   fun:_ZN10tensorflow9ValuesDefC1Ev
   fun:_ZL84InitDefaultsscc_info_ValuesDef_tensorflow_2fcore_2fprotobuf_2fcontrol_5fflow_2eprotov
   fun:_ZN6google8protobuf8internal12_GLOBAL__N_111InitSCC_DFSEPNS1_11SCCInfoBaseE
}
{
   <tensorflow_full>
   Memcheck:Leak
   match-leak-kinds: reachable
   fun:_Znwm
   fun:_ZN6google8protobuf3MapINSt7__cxx1112basic_stringIcSt11char_traitsIcESaIcEEEN10tensorflow15StructuredValueEE12MapAllocatorIPvE8allocateEmPKv
   fun:_ZN6google8protobuf3MapINSt7__cxx1112basic_stringIcSt11char_traitsIcESaIcEEEN10tensorflow15StructuredValueEE8InnerMap5AllocIPvEEPT_m
   fun:_ZN6google8protobuf3MapINSt7__cxx1112basic_stringIcSt11char_traitsIcESaIcEEEN10tensorflow15StructuredValueEE8InnerMap16CreateEmptyTableEm
   fun:_ZN6google8protobuf3MapINSt7__cxx1112basic_stringIcSt11char_traitsIcESaIcEEEN10tensorflow15StructuredValueEE8InnerMapC1EmNS0_4hashIS7_EENSA_12MapAllocatorINSA_12KeyValuePairEEE
   fun:CreateInternal<google::protobuf::Map<std::__cxx11::basic_string<char>, tensorflow::StructuredValue>::InnerMap, unsigned int, google::protobuf::hash<std::__cxx11::basic_string<char, std::char_traits<char>, std::allocator<char> > >, google::protobuf::Map<std::__cxx11::basic_string<char>, tensorflow::StructuredValue>::MapAllocator<google::protobuf::Map<std::__cxx11::basic_string<char>, tensorflow::StructuredValue>::KeyValuePair> >
   fun:DoCreateMaybeMessage<google::protobuf::Map<std::__cxx11::basic_string<char>, tensorflow::StructuredValue>::InnerMap, unsigned int, google::protobuf::hash<std::__cxx11::basic_string<char, std::char_traits<char>, std::allocator<char> > >, google::protobuf::Map<std::__cxx11::basic_string<char>, tensorflow::StructuredValue>::MapAllocator<google::protobuf::Map<std::__cxx11::basic_string<char>, tensorflow::StructuredValue>::KeyValuePair> >
   fun:CreateMaybeMessage<google::protobuf::Map<std::__cxx11::basic_string<char>, tensorflow::StructuredValue>::InnerMap, unsigned int, google::protobuf::hash<std::__cxx11::basic_string<char, std::char_traits<char>, std::allocator<char> > >, google::protobuf::Map<std::__cxx11::basic_string<char>, tensorflow::StructuredValue>::MapAllocator<google::protobuf::Map<std::__cxx11::basic_string<char>, tensorflow::StructuredValue>::KeyValuePair> >
   fun:CreateNoMessage<google::protobuf::Map<std::__cxx11::basic_string<char>, tensorflow::StructuredValue>::InnerMap, unsigned int, google::protobuf::hash<std::__cxx11::basic_string<char, std::char_traits<char>, std::allocator<char> > >, google::protobuf::Map<std::__cxx11::basic_string<char>, tensorflow::StructuredValue>::MapAllocator<google::protobuf::Map<std::__cxx11::basic_string<char>, tensorflow::StructuredValue>::KeyValuePair> >
   fun:Create<google::protobuf::Map<std::__cxx11::basic_string<char>, tensorflow::StructuredValue>::InnerMap, unsigned int, google::protobuf::hash<std::__cxx11::basic_string<char, std::char_traits<char>, std::allocator<char> > >, google::protobuf::Map<std::__cxx11::basic_string<char>, tensorflow::StructuredValue>::MapAllocator<google::protobuf::Map<std::__cxx11::basic_string<char>, tensorflow::StructuredValue>::KeyValuePair> >
   fun:_ZN6google8protobuf3MapINSt7__cxx1112basic_stringIcSt11char_traitsIcESaIcEEEN10tensorflow15StructuredValueEE4InitEv
   fun:_ZN6google8protobuf3MapINSt7__cxx1112basic_stringIcSt11char_traitsIcESaIcEEEN10tensorflow15StructuredValueEEC1Ev
   fun:_ZN6google8protobuf8internal12MapFieldLiteIN10tensorflow30DictValue_FieldsEntry_DoNotUseENSt7__cxx1112basic_stringIcSt11char_traitsIcESaIcEEENS3_15StructuredValueELNS1_14WireFormatLite9FieldTypeE9ELSD_11ELi0EEC1Ev
   fun:_ZN6google8protobuf8internal8MapFieldIN10tensorflow30DictValue_FieldsEntry_DoNotUseENSt7__cxx1112basic_stringIcSt11char_traitsIcESaIcEEENS3_15StructuredValueELNS1_14WireFormatLite9FieldTypeE9ELSD_11ELi0EEC1Ev
   fun:_ZN10tensorflow9DictValueC1Ev
   fun:_ZL76InitDefaultsscc_info_DictValue_tensorflow_2fcore_2fprotobuf_2fstruct_2eprotov
   fun:_ZN6google8protobuf8internal12_GLOBAL__N_111InitSCC_DFSEPNS1_11SCCInfoBaseE
}
{
   <tensorflow_full>
   Memcheck:Leak
   match-leak-kinds: reachable
   fun:_Znwm
   fun:_ZN6google8protobuf3MapINSt7__cxx1112basic_stringIcSt11char_traitsIcESaIcEEES7_E12MapAllocatorIPvE8allocateEmPKv
   fun:_ZN6google8protobuf3MapINSt7__cxx1112basic_stringIcSt11char_traitsIcESaIcEEES7_E8InnerMap5AllocIPvEEPT_m
   fun:_ZN6google8protobuf3MapINSt7__cxx1112basic_stringIcSt11char_traitsIcESaIcEEES7_E8InnerMap16CreateEmptyTableEm
   fun:_ZN6google8protobuf3MapINSt7__cxx1112basic_stringIcSt11char_traitsIcESaIcEEES7_E8InnerMapC1EmNS0_4hashIS7_EENS8_12MapAllocatorINS8_12KeyValuePairEEE
   fun:CreateInternal<google::protobuf::Map<std::__cxx11::basic_string<char>, std::__cxx11::basic_string<char> >::InnerMap, unsigned int, google::protobuf::hash<std::__cxx11::basic_string<char, std::char_traits<char>, std::allocator<char> > >, google::protobuf::Map<std::__cxx11::basic_string<char>, std::__cxx11::basic_string<char> >::MapAllocator<google::protobuf::Map<std::__cxx11::basic_string<char>, std::__cxx11::basic_string<char> >::KeyValuePair> >
   fun:DoCreateMaybeMessage<google::protobuf::Map<std::__cxx11::basic_string<char>, std::__cxx11::basic_string<char> >::InnerMap, unsigned int, google::protobuf::hash<std::__cxx11::basic_string<char, std::char_traits<char>, std::allocator<char> > >, google::protobuf::Map<std::__cxx11::basic_string<char>, std::__cxx11::basic_string<char> >::MapAllocator<google::protobuf::Map<std::__cxx11::basic_string<char>, std::__cxx11::basic_string<char> >::KeyValuePair> >
   fun:CreateMaybeMessage<google::protobuf::Map<std::__cxx11::basic_string<char>, std::__cxx11::basic_string<char> >::InnerMap, unsigned int, google::protobuf::hash<std::__cxx11::basic_string<char, std::char_traits<char>, std::allocator<char> > >, google::protobuf::Map<std::__cxx11::basic_string<char>, std::__cxx11::basic_string<char> >::MapAllocator<google::protobuf::Map<std::__cxx11::basic_string<char>, std::__cxx11::basic_string<char> >::KeyValuePair> >
   fun:CreateNoMessage<google::protobuf::Map<std::__cxx11::basic_string<char>, std::__cxx11::basic_string<char> >::InnerMap, unsigned int, google::protobuf::hash<std::__cxx11::basic_string<char, std::char_traits<char>, std::allocator<char> > >, google::protobuf::Map<std::__cxx11::basic_string<char>, std::__cxx11::basic_string<char> >::MapAllocator<google::protobuf::Map<std::__cxx11::basic_string<char>, std::__cxx11::basic_string<char> >::KeyValuePair> >
   fun:Create<google::protobuf::Map<std::__cxx11::basic_string<char>, std::__cxx11::basic_string<char> >::InnerMap, unsigned int, google::protobuf::hash<std::__cxx11::basic_string<char, std::char_traits<char>, std::allocator<char> > >, google::protobuf::Map<std::__cxx11::basic_string<char>, std::__cxx11::basic_string<char> >::MapAllocator<google::protobuf::Map<std::__cxx11::basic_string<char>, std::__cxx11::basic_string<char> >::KeyValuePair> >
   fun:_ZN6google8protobuf3MapINSt7__cxx1112basic_stringIcSt11char_traitsIcESaIcEEES7_E4InitEv
   fun:_ZN6google8protobuf3MapINSt7__cxx1112basic_stringIcSt11char_traitsIcESaIcEEES7_EC1Ev
   fun:_ZN6google8protobuf8internal12MapFieldLiteIN10tensorflow54MetaGraphDef_MetaInfoDef_FunctionAliasesEntry_DoNotUseENSt7__cxx1112basic_stringIcSt11char_traitsIcESaIcEEESA_LNS1_14WireFormatLite9FieldTypeE9ELSC_9ELi0EEC1Ev
   fun:_ZN6google8protobuf8internal8MapFieldIN10tensorflow54MetaGraphDef_MetaInfoDef_FunctionAliasesEntry_DoNotUseENSt7__cxx1112basic_stringIcSt11char_traitsIcESaIcEEESA_LNS1_14WireFormatLite9FieldTypeE9ELSC_9ELi0EEC1Ev
   fun:_ZN10tensorflow24MetaGraphDef_MetaInfoDefC1Ev
   fun:_ZL97InitDefaultsscc_info_MetaGraphDef_MetaInfoDef_tensorflow_2fcore_2fprotobuf_2fmeta_5fgraph_2eprotov
   fun:_ZN6google8protobuf8internal12_GLOBAL__N_111InitSCC_DFSEPNS1_11SCCInfoBaseE
}
{
   <tensorflow_full>
   Memcheck:Leak
   match-leak-kinds: reachable
   fun:_Znwm
   fun:_ZN6google8protobuf3MapINSt7__cxx1112basic_stringIcSt11char_traitsIcESaIcEEEN10tensorflow10TensorInfoEE12MapAllocatorIPvE8allocateEmPKv
   fun:_ZN6google8protobuf3MapINSt7__cxx1112basic_stringIcSt11char_traitsIcESaIcEEEN10tensorflow10TensorInfoEE8InnerMap5AllocIPvEEPT_m
   fun:_ZN6google8protobuf3MapINSt7__cxx1112basic_stringIcSt11char_traitsIcESaIcEEEN10tensorflow10TensorInfoEE8InnerMap16CreateEmptyTableEm
   fun:_ZN6google8protobuf3MapINSt7__cxx1112basic_stringIcSt11char_traitsIcESaIcEEEN10tensorflow10TensorInfoEE8InnerMapC1EmNS0_4hashIS7_EENSA_12MapAllocatorINSA_12KeyValuePairEEE
   fun:CreateInternal<google::protobuf::Map<std::__cxx11::basic_string<char>, tensorflow::TensorInfo>::InnerMap, unsigned int, google::protobuf::hash<std::__cxx11::basic_string<char, std::char_traits<char>, std::allocator<char> > >, google::protobuf::Map<std::__cxx11::basic_string<char>, tensorflow::TensorInfo>::MapAllocator<google::protobuf::Map<std::__cxx11::basic_string<char>, tensorflow::TensorInfo>::KeyValuePair> >
   fun:DoCreateMaybeMessage<google::protobuf::Map<std::__cxx11::basic_string<char>, tensorflow::TensorInfo>::InnerMap, unsigned int, google::protobuf::hash<std::__cxx11::basic_string<char, std::char_traits<char>, std::allocator<char> > >, google::protobuf::Map<std::__cxx11::basic_string<char>, tensorflow::TensorInfo>::MapAllocator<google::protobuf::Map<std::__cxx11::basic_string<char>, tensorflow::TensorInfo>::KeyValuePair> >
   fun:CreateMaybeMessage<google::protobuf::Map<std::__cxx11::basic_string<char>, tensorflow::TensorInfo>::InnerMap, unsigned int, google::protobuf::hash<std::__cxx11::basic_string<char, std::char_traits<char>, std::allocator<char> > >, google::protobuf::Map<std::__cxx11::basic_string<char>, tensorflow::TensorInfo>::MapAllocator<google::protobuf::Map<std::__cxx11::basic_string<char>, tensorflow::TensorInfo>::KeyValuePair> >
   fun:CreateNoMessage<google::protobuf::Map<std::__cxx11::basic_string<char>, tensorflow::TensorInfo>::InnerMap, unsigned int, google::protobuf::hash<std::__cxx11::basic_string<char, std::char_traits<char>, std::allocator<char> > >, google::protobuf::Map<std::__cxx11::basic_string<char>, tensorflow::TensorInfo>::MapAllocator<google::protobuf::Map<std::__cxx11::basic_string<char>, tensorflow::TensorInfo>::KeyValuePair> >
   fun:Create<google::protobuf::Map<std::__cxx11::basic_string<char>, tensorflow::TensorInfo>::InnerMap, unsigned int, google::protobuf::hash<std::__cxx11::basic_string<char, std::char_traits<char>, std::allocator<char> > >, google::protobuf::Map<std::__cxx11::basic_string<char>, tensorflow::TensorInfo>::MapAllocator<google::protobuf::Map<std::__cxx11::basic_string<char>, tensorflow::TensorInfo>::KeyValuePair> >
   fun:_ZN6google8protobuf3MapINSt7__cxx1112basic_stringIcSt11char_traitsIcESaIcEEEN10tensorflow10TensorInfoEE4InitEv
   fun:_ZN6google8protobuf3MapINSt7__cxx1112basic_stringIcSt11char_traitsIcESaIcEEEN10tensorflow10TensorInfoEEC1Ev
   fun:_ZN6google8protobuf8internal12MapFieldLiteIN10tensorflow33SignatureDef_InputsEntry_DoNotUseENSt7__cxx1112basic_stringIcSt11char_traitsIcESaIcEEENS3_10TensorInfoELNS1_14WireFormatLite9FieldTypeE9ELSD_11ELi0EEC1Ev
   fun:_ZN6google8protobuf8internal8MapFieldIN10tensorflow33SignatureDef_InputsEntry_DoNotUseENSt7__cxx1112basic_stringIcSt11char_traitsIcESaIcEEENS3_10TensorInfoELNS1_14WireFormatLite9FieldTypeE9ELSD_11ELi0EEC1Ev
   fun:_ZN10tensorflow12SignatureDefC1Ev
   fun:_ZL85InitDefaultsscc_info_SignatureDef_tensorflow_2fcore_2fprotobuf_2fmeta_5fgraph_2eprotov
   fun:_ZN6google8protobuf8internal12_GLOBAL__N_111InitSCC_DFSEPNS1_11SCCInfoBaseE
}
{
   <tensorflow_full>
   Memcheck:Leak
   match-leak-kinds: reachable
   fun:_Znwm
   fun:_ZN6google8protobuf3MapINSt7__cxx1112basic_stringIcSt11char_traitsIcESaIcEEEN10tensorflow10TensorInfoEE12MapAllocatorIPvE8allocateEmPKv
   fun:_ZN6google8protobuf3MapINSt7__cxx1112basic_stringIcSt11char_traitsIcESaIcEEEN10tensorflow10TensorInfoEE8InnerMap5AllocIPvEEPT_m
   fun:_ZN6google8protobuf3MapINSt7__cxx1112basic_stringIcSt11char_traitsIcESaIcEEEN10tensorflow10TensorInfoEE8InnerMap16CreateEmptyTableEm
   fun:_ZN6google8protobuf3MapINSt7__cxx1112basic_stringIcSt11char_traitsIcESaIcEEEN10tensorflow10TensorInfoEE8InnerMapC1EmNS0_4hashIS7_EENSA_12MapAllocatorINSA_12KeyValuePairEEE
   fun:CreateInternal<google::protobuf::Map<std::__cxx11::basic_string<char>, tensorflow::TensorInfo>::InnerMap, unsigned int, google::protobuf::hash<std::__cxx11::basic_string<char, std::char_traits<char>, std::allocator<char> > >, google::protobuf::Map<std::__cxx11::basic_string<char>, tensorflow::TensorInfo>::MapAllocator<google::protobuf::Map<std::__cxx11::basic_string<char>, tensorflow::TensorInfo>::KeyValuePair> >
   fun:DoCreateMaybeMessage<google::protobuf::Map<std::__cxx11::basic_string<char>, tensorflow::TensorInfo>::InnerMap, unsigned int, google::protobuf::hash<std::__cxx11::basic_string<char, std::char_traits<char>, std::allocator<char> > >, google::protobuf::Map<std::__cxx11::basic_string<char>, tensorflow::TensorInfo>::MapAllocator<google::protobuf::Map<std::__cxx11::basic_string<char>, tensorflow::TensorInfo>::KeyValuePair> >
   fun:CreateMaybeMessage<google::protobuf::Map<std::__cxx11::basic_string<char>, tensorflow::TensorInfo>::InnerMap, unsigned int, google::protobuf::hash<std::__cxx11::basic_string<char, std::char_traits<char>, std::allocator<char> > >, google::protobuf::Map<std::__cxx11::basic_string<char>, tensorflow::TensorInfo>::MapAllocator<google::protobuf::Map<std::__cxx11::basic_string<char>, tensorflow::TensorInfo>::KeyValuePair> >
   fun:CreateNoMessage<google::protobuf::Map<std::__cxx11::basic_string<char>, tensorflow::TensorInfo>::InnerMap, unsigned int, google::protobuf::hash<std::__cxx11::basic_string<char, std::char_traits<char>, std::allocator<char> > >, google::protobuf::Map<std::__cxx11::basic_string<char>, tensorflow::TensorInfo>::MapAllocator<google::protobuf::Map<std::__cxx11::basic_string<char>, tensorflow::TensorInfo>::KeyValuePair> >
   fun:Create<google::protobuf::Map<std::__cxx11::basic_string<char>, tensorflow::TensorInfo>::InnerMap, unsigned int, google::protobuf::hash<std::__cxx11::basic_string<char, std::char_traits<char>, std::allocator<char> > >, google::protobuf::Map<std::__cxx11::basic_string<char>, tensorflow::TensorInfo>::MapAllocator<google::protobuf::Map<std::__cxx11::basic_string<char>, tensorflow::TensorInfo>::KeyValuePair> >
   fun:_ZN6google8protobuf3MapINSt7__cxx1112basic_stringIcSt11char_traitsIcESaIcEEEN10tensorflow10TensorInfoEE4InitEv
   fun:_ZN6google8protobuf3MapINSt7__cxx1112basic_stringIcSt11char_traitsIcESaIcEEEN10tensorflow10TensorInfoEEC1Ev
   fun:_ZN6google8protobuf8internal12MapFieldLiteIN10tensorflow34SignatureDef_OutputsEntry_DoNotUseENSt7__cxx1112basic_stringIcSt11char_traitsIcESaIcEEENS3_10TensorInfoELNS1_14WireFormatLite9FieldTypeE9ELSD_11ELi0EEC1Ev
   fun:_ZN6google8protobuf8internal8MapFieldIN10tensorflow34SignatureDef_OutputsEntry_DoNotUseENSt7__cxx1112basic_stringIcSt11char_traitsIcESaIcEEENS3_10TensorInfoELNS1_14WireFormatLite9FieldTypeE9ELSD_11ELi0EEC1Ev
   fun:_ZN10tensorflow12SignatureDefC1Ev
   fun:_ZL85InitDefaultsscc_info_SignatureDef_tensorflow_2fcore_2fprotobuf_2fmeta_5fgraph_2eprotov
   fun:_ZN6google8protobuf8internal12_GLOBAL__N_111InitSCC_DFSEPNS1_11SCCInfoBaseE
}
{
   <tensorflow_full>
   Memcheck:Leak
   match-leak-kinds: reachable
   fun:_Znwm
   fun:_ZN6google8protobuf3MapINSt7__cxx1112basic_stringIcSt11char_traitsIcESaIcEEEN10tensorflow14SaveableObjectEE12MapAllocatorIPvE8allocateEmPKv
   fun:_ZN6google8protobuf3MapINSt7__cxx1112basic_stringIcSt11char_traitsIcESaIcEEEN10tensorflow14SaveableObjectEE8InnerMap5AllocIPvEEPT_m
   fun:_ZN6google8protobuf3MapINSt7__cxx1112basic_stringIcSt11char_traitsIcESaIcEEEN10tensorflow14SaveableObjectEE8InnerMap16CreateEmptyTableEm
   fun:_ZN6google8protobuf3MapINSt7__cxx1112basic_stringIcSt11char_traitsIcESaIcEEEN10tensorflow14SaveableObjectEE8InnerMapC1EmNS0_4hashIS7_EENSA_12MapAllocatorINSA_12KeyValuePairEEE
   fun:CreateInternal<google::protobuf::Map<std::__cxx11::basic_string<char>, tensorflow::SaveableObject>::InnerMap, unsigned int, google::protobuf::hash<std::__cxx11::basic_string<char, std::char_traits<char>, std::allocator<char> > >, google::protobuf::Map<std::__cxx11::basic_string<char>, tensorflow::SaveableObject>::MapAllocator<google::protobuf::Map<std::__cxx11::basic_string<char>, tensorflow::SaveableObject>::KeyValuePair> >
   fun:DoCreateMaybeMessage<google::protobuf::Map<std::__cxx11::basic_string<char>, tensorflow::SaveableObject>::InnerMap, unsigned int, google::protobuf::hash<std::__cxx11::basic_string<char, std::char_traits<char>, std::allocator<char> > >, google::protobuf::Map<std::__cxx11::basic_string<char>, tensorflow::SaveableObject>::MapAllocator<google::protobuf::Map<std::__cxx11::basic_string<char>, tensorflow::SaveableObject>::KeyValuePair> >
   fun:CreateMaybeMessage<google::protobuf::Map<std::__cxx11::basic_string<char>, tensorflow::SaveableObject>::InnerMap, unsigned int, google::protobuf::hash<std::__cxx11::basic_string<char, std::char_traits<char>, std::allocator<char> > >, google::protobuf::Map<std::__cxx11::basic_string<char>, tensorflow::SaveableObject>::MapAllocator<google::protobuf::Map<std::__cxx11::basic_string<char>, tensorflow::SaveableObject>::KeyValuePair> >
   fun:CreateNoMessage<google::protobuf::Map<std::__cxx11::basic_string<char>, tensorflow::SaveableObject>::InnerMap, unsigned int, google::protobuf::hash<std::__cxx11::basic_string<char, std::char_traits<char>, std::allocator<char> > >, google::protobuf::Map<std::__cxx11::basic_string<char>, tensorflow::SaveableObject>::MapAllocator<google::protobuf::Map<std::__cxx11::basic_string<char>, tensorflow::SaveableObject>::KeyValuePair> >
   fun:Create<google::protobuf::Map<std::__cxx11::basic_string<char>, tensorflow::SaveableObject>::InnerMap, unsigned int, google::protobuf::hash<std::__cxx11::basic_string<char, std::char_traits<char>, std::allocator<char> > >, google::protobuf::Map<std::__cxx11::basic_string<char>, tensorflow::SaveableObject>::MapAllocator<google::protobuf::Map<std::__cxx11::basic_string<char>, tensorflow::SaveableObject>::KeyValuePair> >
   fun:_ZN6google8protobuf3MapINSt7__cxx1112basic_stringIcSt11char_traitsIcESaIcEEEN10tensorflow14SaveableObjectEE4InitEv
   fun:_ZN6google8protobuf3MapINSt7__cxx1112basic_stringIcSt11char_traitsIcESaIcEEEN10tensorflow14SaveableObjectEEC1Ev
   fun:_ZN6google8protobuf8internal12MapFieldLiteIN10tensorflow41SavedObject_SaveableObjectsEntry_DoNotUseENSt7__cxx1112basic_stringIcSt11char_traitsIcESaIcEEENS3_14SaveableObjectELNS1_14WireFormatLite9FieldTypeE9ELSD_11ELi0EEC1Ev
   fun:_ZN6google8protobuf8internal8MapFieldIN10tensorflow41SavedObject_SaveableObjectsEntry_DoNotUseENSt7__cxx1112basic_stringIcSt11char_traitsIcESaIcEEENS3_14SaveableObjectELNS1_14WireFormatLite9FieldTypeE9ELSD_11ELi0EEC1Ev
   fun:_ZN10tensorflow11SavedObjectC1Ev
   fun:_ZL94InitDefaultsscc_info_SavedObject_tensorflow_2fcore_2fprotobuf_2fsaved_5fobject_5fgraph_2eprotov
   fun:_ZN6google8protobuf8internal12_GLOBAL__N_111InitSCC_DFSEPNS1_11SCCInfoBaseE
}
{
   <tensorflow_full>
   Memcheck:Leak
   match-leak-kinds: reachable
   fun:_Znwm
   fun:_ZN6google8protobuf3MapINSt7__cxx1112basic_stringIcSt11char_traitsIcESaIcEEEN10tensorflow21SavedConcreteFunctionEE12MapAllocatorIPvE8allocateEmPKv
   fun:_ZN6google8protobuf3MapINSt7__cxx1112basic_stringIcSt11char_traitsIcESaIcEEEN10tensorflow21SavedConcreteFunctionEE8InnerMap5AllocIPvEEPT_m
   fun:_ZN6google8protobuf3MapINSt7__cxx1112basic_stringIcSt11char_traitsIcESaIcEEEN10tensorflow21SavedConcreteFunctionEE8InnerMap16CreateEmptyTableEm
   fun:_ZN6google8protobuf3MapINSt7__cxx1112basic_stringIcSt11char_traitsIcESaIcEEEN10tensorflow21SavedConcreteFunctionEE8InnerMapC1EmNS0_4hashIS7_EENSA_12MapAllocatorINSA_12KeyValuePairEEE
   fun:CreateInternal<google::protobuf::Map<std::__cxx11::basic_string<char>, tensorflow::SavedConcreteFunction>::InnerMap, unsigned int, google::protobuf::hash<std::__cxx11::basic_string<char, std::char_traits<char>, std::allocator<char> > >, google::protobuf::Map<std::__cxx11::basic_string<char>, tensorflow::SavedConcreteFunction>::MapAllocator<google::protobuf::Map<std::__cxx11::basic_string<char>, tensorflow::SavedConcreteFunction>::KeyValuePair> >
   fun:DoCreateMaybeMessage<google::protobuf::Map<std::__cxx11::basic_string<char>, tensorflow::SavedConcreteFunction>::InnerMap, unsigned int, google::protobuf::hash<std::__cxx11::basic_string<char, std::char_traits<char>, std::allocator<char> > >, google::protobuf::Map<std::__cxx11::basic_string<char>, tensorflow::SavedConcreteFunction>::MapAllocator<google::protobuf::Map<std::__cxx11::basic_string<char>, tensorflow::SavedConcreteFunction>::KeyValuePair> >
   fun:CreateMaybeMessage<google::protobuf::Map<std::__cxx11::basic_string<char>, tensorflow::SavedConcreteFunction>::InnerMap, unsigned int, google::protobuf::hash<std::__cxx11::basic_string<char, std::char_traits<char>, std::allocator<char> > >, google::protobuf::Map<std::__cxx11::basic_string<char>, tensorflow::SavedConcreteFunction>::MapAllocator<google::protobuf::Map<std::__cxx11::basic_string<char>, tensorflow::SavedConcreteFunction>::KeyValuePair> >
   fun:CreateNoMessage<google::protobuf::Map<std::__cxx11::basic_string<char>, tensorflow::SavedConcreteFunction>::InnerMap, unsigned int, google::protobuf::hash<std::__cxx11::basic_string<char, std::char_traits<char>, std::allocator<char> > >, google::protobuf::Map<std::__cxx11::basic_string<char>, tensorflow::SavedConcreteFunction>::MapAllocator<google::protobuf::Map<std::__cxx11::basic_string<char>, tensorflow::SavedConcreteFunction>::KeyValuePair> >
   fun:Create<google::protobuf::Map<std::__cxx11::basic_string<char>, tensorflow::SavedConcreteFunction>::InnerMap, unsigned int, google::protobuf::hash<std::__cxx11::basic_string<char, std::char_traits<char>, std::allocator<char> > >, google::protobuf::Map<std::__cxx11::basic_string<char>, tensorflow::SavedConcreteFunction>::MapAllocator<google::protobuf::Map<std::__cxx11::basic_string<char>, tensorflow::SavedConcreteFunction>::KeyValuePair> >
   fun:_ZN6google8protobuf3MapINSt7__cxx1112basic_stringIcSt11char_traitsIcESaIcEEEN10tensorflow21SavedConcreteFunctionEE4InitEv
   fun:_ZN6google8protobuf3MapINSt7__cxx1112basic_stringIcSt11char_traitsIcESaIcEEEN10tensorflow21SavedConcreteFunctionEEC1Ev
   fun:_ZN6google8protobuf8internal12MapFieldLiteIN10tensorflow48SavedObjectGraph_ConcreteFunctionsEntry_DoNotUseENSt7__cxx1112basic_stringIcSt11char_traitsIcESaIcEEENS3_21SavedConcreteFunctionELNS1_14WireFormatLite9FieldTypeE9ELSD_11ELi0EEC1Ev
   fun:_ZN6google8protobuf8internal8MapFieldIN10tensorflow48SavedObjectGraph_ConcreteFunctionsEntry_DoNotUseENSt7__cxx1112basic_stringIcSt11char_traitsIcESaIcEEENS3_21SavedConcreteFunctionELNS1_14WireFormatLite9FieldTypeE9ELSD_11ELi0EEC1Ev
   fun:_ZN10tensorflow16SavedObjectGraphC1Ev
   fun:_ZL99InitDefaultsscc_info_SavedObjectGraph_tensorflow_2fcore_2fprotobuf_2fsaved_5fobject_5fgraph_2eprotov
   fun:_ZN6google8protobuf8internal12_GLOBAL__N_111InitSCC_DFSEPNS1_11SCCInfoBaseE
}
{
   <tensorflow_full>
   Memcheck:Leak
   match-leak-kinds: reachable
   fun:_Znwm
   fun:_ZN6google8protobuf3MapINSt7__cxx1112basic_stringIcSt11char_traitsIcESaIcEEEN10tensorflow13CollectionDefEE12MapAllocatorIPvE8allocateEmPKv
   fun:_ZN6google8protobuf3MapINSt7__cxx1112basic_stringIcSt11char_traitsIcESaIcEEEN10tensorflow13CollectionDefEE8InnerMap5AllocIPvEEPT_m
   fun:_ZN6google8protobuf3MapINSt7__cxx1112basic_stringIcSt11char_traitsIcESaIcEEEN10tensorflow13CollectionDefEE8InnerMap16CreateEmptyTableEm
   fun:_ZN6google8protobuf3MapINSt7__cxx1112basic_stringIcSt11char_traitsIcESaIcEEEN10tensorflow13CollectionDefEE8InnerMapC1EmNS0_4hashIS7_EENSA_12MapAllocatorINSA_12KeyValuePairEEE
   fun:CreateInternal<google::protobuf::Map<std::__cxx11::basic_string<char>, tensorflow::CollectionDef>::InnerMap, unsigned int, google::protobuf::hash<std::__cxx11::basic_string<char, std::char_traits<char>, std::allocator<char> > >, google::protobuf::Map<std::__cxx11::basic_string<char>, tensorflow::CollectionDef>::MapAllocator<google::protobuf::Map<std::__cxx11::basic_string<char>, tensorflow::CollectionDef>::KeyValuePair> >
   fun:DoCreateMaybeMessage<google::protobuf::Map<std::__cxx11::basic_string<char>, tensorflow::CollectionDef>::InnerMap, unsigned int, google::protobuf::hash<std::__cxx11::basic_string<char, std::char_traits<char>, std::allocator<char> > >, google::protobuf::Map<std::__cxx11::basic_string<char>, tensorflow::CollectionDef>::MapAllocator<google::protobuf::Map<std::__cxx11::basic_string<char>, tensorflow::CollectionDef>::KeyValuePair> >
   fun:CreateMaybeMessage<google::protobuf::Map<std::__cxx11::basic_string<char>, tensorflow::CollectionDef>::InnerMap, unsigned int, google::protobuf::hash<std::__cxx11::basic_string<char, std::char_traits<char>, std::allocator<char> > >, google::protobuf::Map<std::__cxx11::basic_string<char>, tensorflow::CollectionDef>::MapAllocator<google::protobuf::Map<std::__cxx11::basic_string<char>, tensorflow::CollectionDef>::KeyValuePair> >
   fun:CreateNoMessage<google::protobuf::Map<std::__cxx11::basic_string<char>, tensorflow::CollectionDef>::InnerMap, unsigned int, google::protobuf::hash<std::__cxx11::basic_string<char, std::char_traits<char>, std::allocator<char> > >, google::protobuf::Map<std::__cxx11::basic_string<char>, tensorflow::CollectionDef>::MapAllocator<google::protobuf::Map<std::__cxx11::basic_string<char>, tensorflow::CollectionDef>::KeyValuePair> >
   fun:Create<google::protobuf::Map<std::__cxx11::basic_string<char>, tensorflow::CollectionDef>::InnerMap, unsigned int, google::protobuf::hash<std::__cxx11::basic_string<char, std::char_traits<char>, std::allocator<char> > >, google::protobuf::Map<std::__cxx11::basic_string<char>, tensorflow::CollectionDef>::MapAllocator<google::protobuf::Map<std::__cxx11::basic_string<char>, tensorflow::CollectionDef>::KeyValuePair> >
   fun:_ZN6google8protobuf3MapINSt7__cxx1112basic_stringIcSt11char_traitsIcESaIcEEEN10tensorflow13CollectionDefEE4InitEv
   fun:_ZN6google8protobuf3MapINSt7__cxx1112basic_stringIcSt11char_traitsIcESaIcEEEN10tensorflow13CollectionDefEEC1Ev
   fun:_ZN6google8protobuf8internal12MapFieldLiteIN10tensorflow40MetaGraphDef_CollectionDefEntry_DoNotUseENSt7__cxx1112basic_stringIcSt11char_traitsIcESaIcEEENS3_13CollectionDefELNS1_14WireFormatLite9FieldTypeE9ELSD_11ELi0EEC1Ev
   fun:_ZN6google8protobuf8internal8MapFieldIN10tensorflow40MetaGraphDef_CollectionDefEntry_DoNotUseENSt7__cxx1112basic_stringIcSt11char_traitsIcESaIcEEENS3_13CollectionDefELNS1_14WireFormatLite9FieldTypeE9ELSD_11ELi0EEC1Ev
   fun:_ZN10tensorflow12MetaGraphDefC1Ev
   fun:_ZL85InitDefaultsscc_info_MetaGraphDef_tensorflow_2fcore_2fprotobuf_2fmeta_5fgraph_2eprotov
   fun:_ZN6google8protobuf8internal12_GLOBAL__N_111InitSCC_DFSEPNS1_11SCCInfoBaseE
}
{
   <tensorflow_full>
   Memcheck:Leak
   match-leak-kinds: reachable
   fun:_Znwm
   fun:_ZN6google8protobuf3MapINSt7__cxx1112basic_stringIcSt11char_traitsIcESaIcEEEN10tensorflow12SignatureDefEE12MapAllocatorIPvE8allocateEmPKv
   fun:_ZN6google8protobuf3MapINSt7__cxx1112basic_stringIcSt11char_traitsIcESaIcEEEN10tensorflow12SignatureDefEE8InnerMap5AllocIPvEEPT_m
   fun:_ZN6google8protobuf3MapINSt7__cxx1112basic_stringIcSt11char_traitsIcESaIcEEEN10tensorflow12SignatureDefEE8InnerMap16CreateEmptyTableEm
   fun:_ZN6google8protobuf3MapINSt7__cxx1112basic_stringIcSt11char_traitsIcESaIcEEEN10tensorflow12SignatureDefEE8InnerMapC1EmNS0_4hashIS7_EENSA_12MapAllocatorINSA_12KeyValuePairEEE
   fun:CreateInternal<google::protobuf::Map<std::__cxx11::basic_string<char>, tensorflow::SignatureDef>::InnerMap, unsigned int, google::protobuf::hash<std::__cxx11::basic_string<char, std::char_traits<char>, std::allocator<char> > >, google::protobuf::Map<std::__cxx11::basic_string<char>, tensorflow::SignatureDef>::MapAllocator<google::protobuf::Map<std::__cxx11::basic_string<char>, tensorflow::SignatureDef>::KeyValuePair> >
   fun:DoCreateMaybeMessage<google::protobuf::Map<std::__cxx11::basic_string<char>, tensorflow::SignatureDef>::InnerMap, unsigned int, google::protobuf::hash<std::__cxx11::basic_string<char, std::char_traits<char>, std::allocator<char> > >, google::protobuf::Map<std::__cxx11::basic_string<char>, tensorflow::SignatureDef>::MapAllocator<google::protobuf::Map<std::__cxx11::basic_string<char>, tensorflow::SignatureDef>::KeyValuePair> >
   fun:CreateMaybeMessage<google::protobuf::Map<std::__cxx11::basic_string<char>, tensorflow::SignatureDef>::InnerMap, unsigned int, google::protobuf::hash<std::__cxx11::basic_string<char, std::char_traits<char>, std::allocator<char> > >, google::protobuf::Map<std::__cxx11::basic_string<char>, tensorflow::SignatureDef>::MapAllocator<google::protobuf::Map<std::__cxx11::basic_string<char>, tensorflow::SignatureDef>::KeyValuePair> >
   fun:CreateNoMessage<google::protobuf::Map<std::__cxx11::basic_string<char>, tensorflow::SignatureDef>::InnerMap, unsigned int, google::protobuf::hash<std::__cxx11::basic_string<char, std::char_traits<char>, std::allocator<char> > >, google::protobuf::Map<std::__cxx11::basic_string<char>, tensorflow::SignatureDef>::MapAllocator<google::protobuf::Map<std::__cxx11::basic_string<char>, tensorflow::SignatureDef>::KeyValuePair> >
   fun:Create<google::protobuf::Map<std::__cxx11::basic_string<char>, tensorflow::SignatureDef>::InnerMap, unsigned int, google::protobuf::hash<std::__cxx11::basic_string<char, std::char_traits<char>, std::allocator<char> > >, google::protobuf::Map<std::__cxx11::basic_string<char>, tensorflow::SignatureDef>::MapAllocator<google::protobuf::Map<std::__cxx11::basic_string<char>, tensorflow::SignatureDef>::KeyValuePair> >
   fun:_ZN6google8protobuf3MapINSt7__cxx1112basic_stringIcSt11char_traitsIcESaIcEEEN10tensorflow12SignatureDefEE4InitEv
   fun:_ZN6google8protobuf3MapINSt7__cxx1112basic_stringIcSt11char_traitsIcESaIcEEEN10tensorflow12SignatureDefEEC1Ev
   fun:_ZN6google8protobuf8internal12MapFieldLiteIN10tensorflow39MetaGraphDef_SignatureDefEntry_DoNotUseENSt7__cxx1112basic_stringIcSt11char_traitsIcESaIcEEENS3_12SignatureDefELNS1_14WireFormatLite9FieldTypeE9ELSD_11ELi0EEC1Ev
   fun:_ZN6google8protobuf8internal8MapFieldIN10tensorflow39MetaGraphDef_SignatureDefEntry_DoNotUseENSt7__cxx1112basic_stringIcSt11char_traitsIcESaIcEEENS3_12SignatureDefELNS1_14WireFormatLite9FieldTypeE9ELSD_11ELi0EEC1Ev
   fun:_ZN10tensorflow12MetaGraphDefC1Ev
   fun:_ZL85InitDefaultsscc_info_MetaGraphDef_tensorflow_2fcore_2fprotobuf_2fmeta_5fgraph_2eprotov
   fun:_ZN6google8protobuf8internal12_GLOBAL__N_111InitSCC_DFSEPNS1_11SCCInfoBaseE
}
{
   <tensorflow_full>
   Memcheck:Leak
   match-leak-kinds: reachable
   fun:_Znwm
   fun:_ZN6google8protobuf3MapINSt7__cxx1112basic_stringIcSt11char_traitsIcESaIcEEEN10tensorflow10EntryValueEE12MapAllocatorIPvE8allocateEmPKv
   fun:_ZN6google8protobuf3MapINSt7__cxx1112basic_stringIcSt11char_traitsIcESaIcEEEN10tensorflow10EntryValueEE8InnerMap5AllocIPvEEPT_m
   fun:_ZN6google8protobuf3MapINSt7__cxx1112basic_stringIcSt11char_traitsIcESaIcEEEN10tensorflow10EntryValueEE8InnerMap16CreateEmptyTableEm
   fun:_ZN6google8protobuf3MapINSt7__cxx1112basic_stringIcSt11char_traitsIcESaIcEEEN10tensorflow10EntryValueEE8InnerMapC1EmNS0_4hashIS7_EENSA_12MapAllocatorINSA_12KeyValuePairEEE
   fun:CreateInternal<google::protobuf::Map<std::__cxx11::basic_string<char>, tensorflow::EntryValue>::InnerMap, unsigned int, google::protobuf::hash<std::__cxx11::basic_string<char, std::char_traits<char>, std::allocator<char> > >, google::protobuf::Map<std::__cxx11::basic_string<char>, tensorflow::EntryValue>::MapAllocator<google::protobuf::Map<std::__cxx11::basic_string<char>, tensorflow::EntryValue>::KeyValuePair> >
   fun:DoCreateMaybeMessage<google::protobuf::Map<std::__cxx11::basic_string<char>, tensorflow::EntryValue>::InnerMap, unsigned int, google::protobuf::hash<std::__cxx11::basic_string<char, std::char_traits<char>, std::allocator<char> > >, google::protobuf::Map<std::__cxx11::basic_string<char>, tensorflow::EntryValue>::MapAllocator<google::protobuf::Map<std::__cxx11::basic_string<char>, tensorflow::EntryValue>::KeyValuePair> >
   fun:CreateMaybeMessage<google::protobuf::Map<std::__cxx11::basic_string<char>, tensorflow::EntryValue>::InnerMap, unsigned int, google::protobuf::hash<std::__cxx11::basic_string<char, std::char_traits<char>, std::allocator<char> > >, google::protobuf::Map<std::__cxx11::basic_string<char>, tensorflow::EntryValue>::MapAllocator<google::protobuf::Map<std::__cxx11::basic_string<char>, tensorflow::EntryValue>::KeyValuePair> >
   fun:CreateNoMessage<google::protobuf::Map<std::__cxx11::basic_string<char>, tensorflow::EntryValue>::InnerMap, unsigned int, google::protobuf::hash<std::__cxx11::basic_string<char, std::char_traits<char>, std::allocator<char> > >, google::protobuf::Map<std::__cxx11::basic_string<char>, tensorflow::EntryValue>::MapAllocator<google::protobuf::Map<std::__cxx11::basic_string<char>, tensorflow::EntryValue>::KeyValuePair> >
   fun:Create<google::protobuf::Map<std::__cxx11::basic_string<char>, tensorflow::EntryValue>::InnerMap, unsigned int, google::protobuf::hash<std::__cxx11::basic_string<char, std::char_traits<char>, std::allocator<char> > >, google::protobuf::Map<std::__cxx11::basic_string<char>, tensorflow::EntryValue>::MapAllocator<google::protobuf::Map<std::__cxx11::basic_string<char>, tensorflow::EntryValue>::KeyValuePair> >
   fun:_ZN6google8protobuf3MapINSt7__cxx1112basic_stringIcSt11char_traitsIcESaIcEEEN10tensorflow10EntryValueEE4InitEv
   fun:_ZN6google8protobuf3MapINSt7__cxx1112basic_stringIcSt11char_traitsIcESaIcEEEN10tensorflow10EntryValueEEC1Ev
   fun:_ZN6google8protobuf8internal12MapFieldLiteIN10tensorflow35BenchmarkEntry_ExtrasEntry_DoNotUseENSt7__cxx1112basic_stringIcSt11char_traitsIcESaIcEEENS3_10EntryValueELNS1_14WireFormatLite9FieldTypeE9ELSD_11ELi0EEC1Ev
   fun:_ZN6google8protobuf8internal8MapFieldIN10tensorflow35BenchmarkEntry_ExtrasEntry_DoNotUseENSt7__cxx1112basic_stringIcSt11char_traitsIcESaIcEEENS3_10EntryValueELNS1_14WireFormatLite9FieldTypeE9ELSD_11ELi0EEC1Ev
   fun:_ZN10tensorflow14BenchmarkEntryC1Ev
   fun:_ZL81InitDefaultsscc_info_BenchmarkEntry_tensorflow_2fcore_2futil_2ftest_5flog_2eprotov
   fun:_ZN6google8protobuf8internal12_GLOBAL__N_111InitSCC_DFSEPNS1_11SCCInfoBaseE
}
{
   <tensorflow_full>
   Memcheck:Leak
   match-leak-kinds: reachable
   fun:_Znwm
   fun:_ZN6google8protobuf3MapINSt7__cxx1112basic_stringIcSt11char_traitsIcESaIcEEElE12MapAllocatorIPvE8allocateEmPKv
   fun:_ZN6google8protobuf3MapINSt7__cxx1112basic_stringIcSt11char_traitsIcESaIcEEElE8InnerMap5AllocIPvEEPT_m
   fun:_ZN6google8protobuf3MapINSt7__cxx1112basic_stringIcSt11char_traitsIcESaIcEEElE8InnerMap16CreateEmptyTableEm
   fun:_ZN6google8protobuf3MapINSt7__cxx1112basic_stringIcSt11char_traitsIcESaIcEEElE8InnerMapC1EmNS0_4hashIS7_EENS8_12MapAllocatorINS8_12KeyValuePairEEE
   fun:CreateInternal<google::protobuf::Map<std::__cxx11::basic_string<char>, long int>::InnerMap, unsigned int, google::protobuf::hash<std::__cxx11::basic_string<char, std::char_traits<char>, std::allocator<char> > >, google::protobuf::Map<std::__cxx11::basic_string<char>, long int>::MapAllocator<google::protobuf::Map<std::__cxx11::basic_string<char>, long int>::KeyValuePair> >
   fun:DoCreateMaybeMessage<google::protobuf::Map<std::__cxx11::basic_string<char>, long int>::InnerMap, unsigned int, google::protobuf::hash<std::__cxx11::basic_string<char, std::char_traits<char>, std::allocator<char> > >, google::protobuf::Map<std::__cxx11::basic_string<char>, long int>::MapAllocator<google::protobuf::Map<std::__cxx11::basic_string<char>, long int>::KeyValuePair> >
   fun:CreateMaybeMessage<google::protobuf::Map<std::__cxx11::basic_string<char>, long int>::InnerMap, unsigned int, google::protobuf::hash<std::__cxx11::basic_string<char, std::char_traits<char>, std::allocator<char> > >, google::protobuf::Map<std::__cxx11::basic_string<char>, long int>::MapAllocator<google::protobuf::Map<std::__cxx11::basic_string<char>, long int>::KeyValuePair> >
   fun:CreateNoMessage<google::protobuf::Map<std::__cxx11::basic_string<char>, long int>::InnerMap, unsigned int, google::protobuf::hash<std::__cxx11::basic_string<char, std::char_traits<char>, std::allocator<char> > >, google::protobuf::Map<std::__cxx11::basic_string<char>, long int>::MapAllocator<google::protobuf::Map<std::__cxx11::basic_string<char>, long int>::KeyValuePair> >
   fun:Create<google::protobuf::Map<std::__cxx11::basic_string<char>, long int>::InnerMap, unsigned int, google::protobuf::hash<std::__cxx11::basic_string<char, std::char_traits<char>, std::allocator<char> > >, google::protobuf::Map<std::__cxx11::basic_string<char>, long int>::MapAllocator<google::protobuf::Map<std::__cxx11::basic_string<char>, long int>::KeyValuePair> >
   fun:_ZN6google8protobuf3MapINSt7__cxx1112basic_stringIcSt11char_traitsIcESaIcEEElE4InitEv
   fun:_ZN6google8protobuf3MapINSt7__cxx1112basic_stringIcSt11char_traitsIcESaIcEEElEC1Ev
   fun:_ZN6google8protobuf8internal12MapFieldLiteIN10tensorflow31CPUInfo_CacheSizeEntry_DoNotUseENSt7__cxx1112basic_stringIcSt11char_traitsIcESaIcEEElLNS1_14WireFormatLite9FieldTypeE9ELSC_3ELi0EEC1Ev
   fun:_ZN6google8protobuf8internal8MapFieldIN10tensorflow31CPUInfo_CacheSizeEntry_DoNotUseENSt7__cxx1112basic_stringIcSt11char_traitsIcESaIcEEElLNS1_14WireFormatLite9FieldTypeE9ELSC_3ELi0EEC1Ev
   fun:_ZN10tensorflow7CPUInfoC1Ev
   fun:_ZL74InitDefaultsscc_info_CPUInfo_tensorflow_2fcore_2futil_2ftest_5flog_2eprotov
   fun:_ZN6google8protobuf8internal12_GLOBAL__N_111InitSCC_DFSEPNS1_11SCCInfoBaseE
}
{
   <tensorflow_full>
   Memcheck:Leak
   match-leak-kinds: reachable
   fun:_Znwm
   fun:_ZN6google8protobuf3MapINSt7__cxx1112basic_stringIcSt11char_traitsIcESaIcEEES7_E12MapAllocatorIPvE8allocateEmPKv
   fun:_ZN6google8protobuf3MapINSt7__cxx1112basic_stringIcSt11char_traitsIcESaIcEEES7_E8InnerMap5AllocIPvEEPT_m
   fun:_ZN6google8protobuf3MapINSt7__cxx1112basic_stringIcSt11char_traitsIcESaIcEEES7_E8InnerMap16CreateEmptyTableEm
   fun:_ZN6google8protobuf3MapINSt7__cxx1112basic_stringIcSt11char_traitsIcESaIcEEES7_E8InnerMapC1EmNS0_4hashIS7_EENS8_12MapAllocatorINS8_12KeyValuePairEEE
   fun:CreateInternal<google::protobuf::Map<std::__cxx11::basic_string<char>, std::__cxx11::basic_string<char> >::InnerMap, unsigned int, google::protobuf::hash<std::__cxx11::basic_string<char, std::char_traits<char>, std::allocator<char> > >, google::protobuf::Map<std::__cxx11::basic_string<char>, std::__cxx11::basic_string<char> >::MapAllocator<google::protobuf::Map<std::__cxx11::basic_string<char>, std::__cxx11::basic_string<char> >::KeyValuePair> >
   fun:DoCreateMaybeMessage<google::protobuf::Map<std::__cxx11::basic_string<char>, std::__cxx11::basic_string<char> >::InnerMap, unsigned int, google::protobuf::hash<std::__cxx11::basic_string<char, std::char_traits<char>, std::allocator<char> > >, google::protobuf::Map<std::__cxx11::basic_string<char>, std::__cxx11::basic_string<char> >::MapAllocator<google::protobuf::Map<std::__cxx11::basic_string<char>, std::__cxx11::basic_string<char> >::KeyValuePair> >
   fun:CreateMaybeMessage<google::protobuf::Map<std::__cxx11::basic_string<char>, std::__cxx11::basic_string<char> >::InnerMap, unsigned int, google::protobuf::hash<std::__cxx11::basic_string<char, std::char_traits<char>, std::allocator<char> > >, google::protobuf::Map<std::__cxx11::basic_string<char>, std::__cxx11::basic_string<char> >::MapAllocator<google::protobuf::Map<std::__cxx11::basic_string<char>, std::__cxx11::basic_string<char> >::KeyValuePair> >
   fun:CreateNoMessage<google::protobuf::Map<std::__cxx11::basic_string<char>, std::__cxx11::basic_string<char> >::InnerMap, unsigned int, google::protobuf::hash<std::__cxx11::basic_string<char, std::char_traits<char>, std::allocator<char> > >, google::protobuf::Map<std::__cxx11::basic_string<char>, std::__cxx11::basic_string<char> >::MapAllocator<google::protobuf::Map<std::__cxx11::basic_string<char>, std::__cxx11::basic_string<char> >::KeyValuePair> >
   fun:Create<google::protobuf::Map<std::__cxx11::basic_string<char>, std::__cxx11::basic_string<char> >::InnerMap, unsigned int, google::protobuf::hash<std::__cxx11::basic_string<char, std::char_traits<char>, std::allocator<char> > >, google::protobuf::Map<std::__cxx11::basic_string<char>, std::__cxx11::basic_string<char> >::MapAllocator<google::protobuf::Map<std::__cxx11::basic_string<char>, std::__cxx11::basic_string<char> >::KeyValuePair> >
   fun:_ZN6google8protobuf3MapINSt7__cxx1112basic_stringIcSt11char_traitsIcESaIcEEES7_E4InitEv
   fun:_ZN6google8protobuf3MapINSt7__cxx1112basic_stringIcSt11char_traitsIcESaIcEEES7_EC1Ev
   fun:_ZN6google8protobuf8internal12MapFieldLiteIN10tensorflow38RunConfiguration_EnvVarsEntry_DoNotUseENSt7__cxx1112basic_stringIcSt11char_traitsIcESaIcEEESA_LNS1_14WireFormatLite9FieldTypeE9ELSC_9ELi0EEC1Ev
   fun:_ZN6google8protobuf8internal8MapFieldIN10tensorflow38RunConfiguration_EnvVarsEntry_DoNotUseENSt7__cxx1112basic_stringIcSt11char_traitsIcESaIcEEESA_LNS1_14WireFormatLite9FieldTypeE9ELSC_9ELi0EEC1Ev
   fun:_ZN10tensorflow16RunConfigurationC1Ev
   fun:_ZL83InitDefaultsscc_info_RunConfiguration_tensorflow_2fcore_2futil_2ftest_5flog_2eprotov
   fun:_ZN6google8protobuf8internal12_GLOBAL__N_111InitSCC_DFSEPNS1_11SCCInfoBaseE
}
{
   <tensorflow_full>
   Memcheck:Leak
   match-leak-kinds: reachable
   fun:_Znwm
   fun:_ZN6google8protobuf3MapIlN10tensorflow8profiler14XEventMetadataEE12MapAllocatorIPvE8allocateEmPKv
   fun:_ZN6google8protobuf3MapIlN10tensorflow8profiler14XEventMetadataEE8InnerMap5AllocIPvEEPT_m
   fun:_ZN6google8protobuf3MapIlN10tensorflow8profiler14XEventMetadataEE8InnerMap16CreateEmptyTableEm
   fun:_ZN6google8protobuf3MapIlN10tensorflow8profiler14XEventMetadataEE8InnerMapC1EmNS0_4hashIlEENS5_12MapAllocatorINS5_12KeyValuePairEEE
   fun:CreateInternal<google::protobuf::Map<long int, tensorflow::profiler::XEventMetadata>::InnerMap, unsigned int, google::protobuf::hash<long int>, google::protobuf::Map<long int, tensorflow::profiler::XEventMetadata>::MapAllocator<google::protobuf::Map<long int, tensorflow::profiler::XEventMetadata>::KeyValuePair> >
   fun:DoCreateMaybeMessage<google::protobuf::Map<long int, tensorflow::profiler::XEventMetadata>::InnerMap, unsigned int, google::protobuf::hash<long int>, google::protobuf::Map<long int, tensorflow::profiler::XEventMetadata>::MapAllocator<google::protobuf::Map<long int, tensorflow::profiler::XEventMetadata>::KeyValuePair> >
   fun:CreateMaybeMessage<google::protobuf::Map<long int, tensorflow::profiler::XEventMetadata>::InnerMap, unsigned int, google::protobuf::hash<long int>, google::protobuf::Map<long int, tensorflow::profiler::XEventMetadata>::MapAllocator<google::protobuf::Map<long int, tensorflow::profiler::XEventMetadata>::KeyValuePair> >
   fun:CreateNoMessage<google::protobuf::Map<long int, tensorflow::profiler::XEventMetadata>::InnerMap, unsigned int, google::protobuf::hash<long int>, google::protobuf::Map<long int, tensorflow::profiler::XEventMetadata>::MapAllocator<google::protobuf::Map<long int, tensorflow::profiler::XEventMetadata>::KeyValuePair> >
   fun:Create<google::protobuf::Map<long int, tensorflow::profiler::XEventMetadata>::InnerMap, unsigned int, google::protobuf::hash<long int>, google::protobuf::Map<long int, tensorflow::profiler::XEventMetadata>::MapAllocator<google::protobuf::Map<long int, tensorflow::profiler::XEventMetadata>::KeyValuePair> >
   fun:_ZN6google8protobuf3MapIlN10tensorflow8profiler14XEventMetadataEE4InitEv
   fun:_ZN6google8protobuf3MapIlN10tensorflow8profiler14XEventMetadataEEC1Ev
   fun:_ZN6google8protobuf8internal12MapFieldLiteIN10tensorflow8profiler34XPlane_EventMetadataEntry_DoNotUseElNS4_14XEventMetadataELNS1_14WireFormatLite9FieldTypeE3ELS8_11ELi0EEC1Ev
   fun:_ZN6google8protobuf8internal8MapFieldIN10tensorflow8profiler34XPlane_EventMetadataEntry_DoNotUseElNS4_14XEventMetadataELNS1_14WireFormatLite9FieldTypeE3ELS8_11ELi0EEC1Ev
   fun:_ZN10tensorflow8profiler6XPlaneC1Ev
   fun:_ZL84InitDefaultsscc_info_XPlane_tensorflow_2fcore_2fprofiler_2fprotobuf_2fxplane_2eprotov
   fun:_ZN6google8protobuf8internal12_GLOBAL__N_111InitSCC_DFSEPNS1_11SCCInfoBaseE
}
{
   <tensorflow_full>
   Memcheck:Leak
   match-leak-kinds: reachable
   fun:_Znwm
   fun:_ZN6google8protobuf3MapIlN10tensorflow8profiler13XStatMetadataEE12MapAllocatorIPvE8allocateEmPKv
   fun:_ZN6google8protobuf3MapIlN10tensorflow8profiler13XStatMetadataEE8InnerMap5AllocIPvEEPT_m
   fun:_ZN6google8protobuf3MapIlN10tensorflow8profiler13XStatMetadataEE8InnerMap16CreateEmptyTableEm
   fun:_ZN6google8protobuf3MapIlN10tensorflow8profiler13XStatMetadataEE8InnerMapC1EmNS0_4hashIlEENS5_12MapAllocatorINS5_12KeyValuePairEEE
   fun:CreateInternal<google::protobuf::Map<long int, tensorflow::profiler::XStatMetadata>::InnerMap, unsigned int, google::protobuf::hash<long int>, google::protobuf::Map<long int, tensorflow::profiler::XStatMetadata>::MapAllocator<google::protobuf::Map<long int, tensorflow::profiler::XStatMetadata>::KeyValuePair> >
   fun:DoCreateMaybeMessage<google::protobuf::Map<long int, tensorflow::profiler::XStatMetadata>::InnerMap, unsigned int, google::protobuf::hash<long int>, google::protobuf::Map<long int, tensorflow::profiler::XStatMetadata>::MapAllocator<google::protobuf::Map<long int, tensorflow::profiler::XStatMetadata>::KeyValuePair> >
   fun:CreateMaybeMessage<google::protobuf::Map<long int, tensorflow::profiler::XStatMetadata>::InnerMap, unsigned int, google::protobuf::hash<long int>, google::protobuf::Map<long int, tensorflow::profiler::XStatMetadata>::MapAllocator<google::protobuf::Map<long int, tensorflow::profiler::XStatMetadata>::KeyValuePair> >
   fun:CreateNoMessage<google::protobuf::Map<long int, tensorflow::profiler::XStatMetadata>::InnerMap, unsigned int, google::protobuf::hash<long int>, google::protobuf::Map<long int, tensorflow::profiler::XStatMetadata>::MapAllocator<google::protobuf::Map<long int, tensorflow::profiler::XStatMetadata>::KeyValuePair> >
   fun:Create<google::protobuf::Map<long int, tensorflow::profiler::XStatMetadata>::InnerMap, unsigned int, google::protobuf::hash<long int>, google::protobuf::Map<long int, tensorflow::profiler::XStatMetadata>::MapAllocator<google::protobuf::Map<long int, tensorflow::profiler::XStatMetadata>::KeyValuePair> >
   fun:_ZN6google8protobuf3MapIlN10tensorflow8profiler13XStatMetadataEE4InitEv
   fun:_ZN6google8protobuf3MapIlN10tensorflow8profiler13XStatMetadataEEC1Ev
   fun:_ZN6google8protobuf8internal12MapFieldLiteIN10tensorflow8profiler33XPlane_StatMetadataEntry_DoNotUseElNS4_13XStatMetadataELNS1_14WireFormatLite9FieldTypeE3ELS8_11ELi0EEC1Ev
   fun:_ZN6google8protobuf8internal8MapFieldIN10tensorflow8profiler33XPlane_StatMetadataEntry_DoNotUseElNS4_13XStatMetadataELNS1_14WireFormatLite9FieldTypeE3ELS8_11ELi0EEC1Ev
   fun:_ZN10tensorflow8profiler6XPlaneC1Ev
   fun:_ZL84InitDefaultsscc_info_XPlane_tensorflow_2fcore_2fprofiler_2fprotobuf_2fxplane_2eprotov
   fun:_ZN6google8protobuf8internal12_GLOBAL__N_111InitSCC_DFSEPNS1_11SCCInfoBaseE
}
{
   <tensorflow_full>
   Memcheck:Leak
   match-leak-kinds: reachable
   fun:_Znwm
   fun:_ZNSt14_Function_base13_Base_managerIZN10tensorflow35variant_op_registry_fn_registration34UnaryVariantDeviceCopyRegistrationIiEC4ENS1_26VariantDeviceCopyDirectionERKNS1_9TypeIndexERKSt8functionIFNS1_6StatusERKiPiS9_IFSA_RKNS1_6TensorEPSE_EEEEEUlRKNS1_7VariantEPSO_SJ_E_E8_M_cloneERSt9_Any_dataRKSU_St17integral_constantIbLb0EE
   fun:_ZNSt14_Function_base13_Base_managerIZN10tensorflow35variant_op_registry_fn_registration34UnaryVariantDeviceCopyRegistrationIiEC4ENS1_26VariantDeviceCopyDirectionERKNS1_9TypeIndexERKSt8functionIFNS1_6StatusERKiPiS9_IFSA_RKNS1_6TensorEPSE_EEEEEUlRKNS1_7VariantEPSO_SJ_E_E10_M_managerERSt9_Any_dataRKSU_St18_Manager_operation
   fun:_ZNSt8functionIFN10tensorflow6StatusERKNS0_7VariantEPS2_S_IFS1_RKNS0_6TensorEPS6_EEEEC1ERKSD_
   fun:_ZN10tensorflow3gtl7FlatMapISt4pairINS_26VariantDeviceCopyDirectionENS_9TypeIndexEESt8functionIFNS_6StatusERKNS_7VariantEPS8_S6_IFS7_RKNS_6TensorEPSC_EEEENS_22UnaryVariantOpRegistry8PairHashESt8equal_toIS5_EE6Bucket7InitValIRKSJ_EEvjOT_
   fun:_ZN10tensorflow3gtl7FlatMapISt4pairINS_26VariantDeviceCopyDirectionENS_9TypeIndexEESt8functionIFNS_6StatusERKNS_7VariantEPS8_S6_IFS7_RKNS_6TensorEPSC_EEEENS_22UnaryVariantOpRegistry8PairHashESt8equal_toIS5_EE6InsertIRKS5_RKSJ_EES2_INSO_8iteratorEbEOT_OT0_
   fun:_ZN10tensorflow3gtl7FlatMapISt4pairINS_26VariantDeviceCopyDirectionENS_9TypeIndexEESt8functionIFNS_6StatusERKNS_7VariantEPS8_S6_IFS7_RKNS_6TensorEPSC_EEEENS_22UnaryVariantOpRegistry8PairHashESt8equal_toIS5_EE6insertIS2_IS5_SJ_EEES2_INSO_8iteratorEbERKT_
   fun:_ZN10tensorflow22UnaryVariantOpRegistry20RegisterDeviceCopyFnENS_26VariantDeviceCopyDirectionERKNS_9TypeIndexERKSt8functionIFNS_6StatusERKNS_7VariantEPS7_S5_IFS6_RKNS_6TensorEPSB_EEEE
   fun:_ZN10tensorflow35variant_op_registry_fn_registration34UnaryVariantDeviceCopyRegistrationIiEC1ENS_26VariantDeviceCopyDirectionERKNS_9TypeIndexERKSt8functionIFNS_6StatusERKiPiS7_IFS8_RKNS_6TensorEPSC_EEEE
   fun:_Z41__static_initialization_and_destruction_0ii
   fun:_GLOBAL__sub_I_variant_op_registry.cc
}
{
   <tensorflow_full>
   Memcheck:Leak
   match-leak-kinds: reachable
   fun:_Znwm
   fun:_ZNSt14_Function_base13_Base_managerIZN10tensorflow35variant_op_registry_fn_registration34UnaryVariantDeviceCopyRegistrationIfEC4ENS1_26VariantDeviceCopyDirectionERKNS1_9TypeIndexERKSt8functionIFNS1_6StatusERKfPfS9_IFSA_RKNS1_6TensorEPSE_EEEEEUlRKNS1_7VariantEPSO_SJ_E_E8_M_cloneERSt9_Any_dataRKSU_St17integral_constantIbLb0EE
   fun:_ZNSt14_Function_base13_Base_managerIZN10tensorflow35variant_op_registry_fn_registration34UnaryVariantDeviceCopyRegistrationIfEC4ENS1_26VariantDeviceCopyDirectionERKNS1_9TypeIndexERKSt8functionIFNS1_6StatusERKfPfS9_IFSA_RKNS1_6TensorEPSE_EEEEEUlRKNS1_7VariantEPSO_SJ_E_E10_M_managerERSt9_Any_dataRKSU_St18_Manager_operation
   fun:_ZNSt8functionIFN10tensorflow6StatusERKNS0_7VariantEPS2_S_IFS1_RKNS0_6TensorEPS6_EEEEC1ERKSD_
   fun:_ZN10tensorflow3gtl7FlatMapISt4pairINS_26VariantDeviceCopyDirectionENS_9TypeIndexEESt8functionIFNS_6StatusERKNS_7VariantEPS8_S6_IFS7_RKNS_6TensorEPSC_EEEENS_22UnaryVariantOpRegistry8PairHashESt8equal_toIS5_EE6Bucket7InitValIRKSJ_EEvjOT_
   fun:_ZN10tensorflow3gtl7FlatMapISt4pairINS_26VariantDeviceCopyDirectionENS_9TypeIndexEESt8functionIFNS_6StatusERKNS_7VariantEPS8_S6_IFS7_RKNS_6TensorEPSC_EEEENS_22UnaryVariantOpRegistry8PairHashESt8equal_toIS5_EE6InsertIRKS5_RKSJ_EES2_INSO_8iteratorEbEOT_OT0_
   fun:_ZN10tensorflow3gtl7FlatMapISt4pairINS_26VariantDeviceCopyDirectionENS_9TypeIndexEESt8functionIFNS_6StatusERKNS_7VariantEPS8_S6_IFS7_RKNS_6TensorEPSC_EEEENS_22UnaryVariantOpRegistry8PairHashESt8equal_toIS5_EE6insertIS2_IS5_SJ_EEES2_INSO_8iteratorEbERKT_
   fun:_ZN10tensorflow22UnaryVariantOpRegistry20RegisterDeviceCopyFnENS_26VariantDeviceCopyDirectionERKNS_9TypeIndexERKSt8functionIFNS_6StatusERKNS_7VariantEPS7_S5_IFS6_RKNS_6TensorEPSB_EEEE
   fun:_ZN10tensorflow35variant_op_registry_fn_registration34UnaryVariantDeviceCopyRegistrationIfEC1ENS_26VariantDeviceCopyDirectionERKNS_9TypeIndexERKSt8functionIFNS_6StatusERKfPfS7_IFS8_RKNS_6TensorEPSC_EEEE
   fun:_Z41__static_initialization_and_destruction_0ii
   fun:_GLOBAL__sub_I_variant_op_registry.cc
}
{
   <tensorflow_full>
   Memcheck:Leak
   match-leak-kinds: reachable
   fun:_Znwm
   fun:_ZNSt14_Function_base13_Base_managerIZN10tensorflow35variant_op_registry_fn_registration34UnaryVariantDeviceCopyRegistrationIdEC4ENS1_26VariantDeviceCopyDirectionERKNS1_9TypeIndexERKSt8functionIFNS1_6StatusERKdPdS9_IFSA_RKNS1_6TensorEPSE_EEEEEUlRKNS1_7VariantEPSO_SJ_E_E8_M_cloneERSt9_Any_dataRKSU_St17integral_constantIbLb0EE
   fun:_ZNSt14_Function_base13_Base_managerIZN10tensorflow35variant_op_registry_fn_registration34UnaryVariantDeviceCopyRegistrationIdEC4ENS1_26VariantDeviceCopyDirectionERKNS1_9TypeIndexERKSt8functionIFNS1_6StatusERKdPdS9_IFSA_RKNS1_6TensorEPSE_EEEEEUlRKNS1_7VariantEPSO_SJ_E_E10_M_managerERSt9_Any_dataRKSU_St18_Manager_operation
   fun:_ZNSt8functionIFN10tensorflow6StatusERKNS0_7VariantEPS2_S_IFS1_RKNS0_6TensorEPS6_EEEEC1ERKSD_
   fun:_ZN10tensorflow3gtl7FlatMapISt4pairINS_26VariantDeviceCopyDirectionENS_9TypeIndexEESt8functionIFNS_6StatusERKNS_7VariantEPS8_S6_IFS7_RKNS_6TensorEPSC_EEEENS_22UnaryVariantOpRegistry8PairHashESt8equal_toIS5_EE6Bucket7InitValIRKSJ_EEvjOT_
   fun:_ZN10tensorflow3gtl7FlatMapISt4pairINS_26VariantDeviceCopyDirectionENS_9TypeIndexEESt8functionIFNS_6StatusERKNS_7VariantEPS8_S6_IFS7_RKNS_6TensorEPSC_EEEENS_22UnaryVariantOpRegistry8PairHashESt8equal_toIS5_EE6InsertIRKS5_RKSJ_EES2_INSO_8iteratorEbEOT_OT0_
   fun:_ZN10tensorflow3gtl7FlatMapISt4pairINS_26VariantDeviceCopyDirectionENS_9TypeIndexEESt8functionIFNS_6StatusERKNS_7VariantEPS8_S6_IFS7_RKNS_6TensorEPSC_EEEENS_22UnaryVariantOpRegistry8PairHashESt8equal_toIS5_EE6insertIS2_IS5_SJ_EEES2_INSO_8iteratorEbERKT_
   fun:_ZN10tensorflow22UnaryVariantOpRegistry20RegisterDeviceCopyFnENS_26VariantDeviceCopyDirectionERKNS_9TypeIndexERKSt8functionIFNS_6StatusERKNS_7VariantEPS7_S5_IFS6_RKNS_6TensorEPSB_EEEE
   fun:_ZN10tensorflow35variant_op_registry_fn_registration34UnaryVariantDeviceCopyRegistrationIdEC1ENS_26VariantDeviceCopyDirectionERKNS_9TypeIndexERKSt8functionIFNS_6StatusERKdPdS7_IFS8_RKNS_6TensorEPSC_EEEE
   fun:_Z41__static_initialization_and_destruction_0ii
   fun:_GLOBAL__sub_I_variant_op_registry.cc
}
{
   <tensorflow_full>
   Memcheck:Leak
   match-leak-kinds: reachable
   fun:_Znwm
   fun:_ZNSt14_Function_base13_Base_managerIZN10tensorflow35variant_op_registry_fn_registration34UnaryVariantDeviceCopyRegistrationIbEC4ENS1_26VariantDeviceCopyDirectionERKNS1_9TypeIndexERKSt8functionIFNS1_6StatusERKbPbS9_IFSA_RKNS1_6TensorEPSE_EEEEEUlRKNS1_7VariantEPSO_SJ_E_E8_M_cloneERSt9_Any_dataRKSU_St17integral_constantIbLb0EE
   fun:_ZNSt14_Function_base13_Base_managerIZN10tensorflow35variant_op_registry_fn_registration34UnaryVariantDeviceCopyRegistrationIbEC4ENS1_26VariantDeviceCopyDirectionERKNS1_9TypeIndexERKSt8functionIFNS1_6StatusERKbPbS9_IFSA_RKNS1_6TensorEPSE_EEEEEUlRKNS1_7VariantEPSO_SJ_E_E10_M_managerERSt9_Any_dataRKSU_St18_Manager_operation
   fun:_ZNSt8functionIFN10tensorflow6StatusERKNS0_7VariantEPS2_S_IFS1_RKNS0_6TensorEPS6_EEEEC1ERKSD_
   fun:_ZN10tensorflow3gtl7FlatMapISt4pairINS_26VariantDeviceCopyDirectionENS_9TypeIndexEESt8functionIFNS_6StatusERKNS_7VariantEPS8_S6_IFS7_RKNS_6TensorEPSC_EEEENS_22UnaryVariantOpRegistry8PairHashESt8equal_toIS5_EE6Bucket7InitValIRKSJ_EEvjOT_
   fun:_ZN10tensorflow3gtl7FlatMapISt4pairINS_26VariantDeviceCopyDirectionENS_9TypeIndexEESt8functionIFNS_6StatusERKNS_7VariantEPS8_S6_IFS7_RKNS_6TensorEPSC_EEEENS_22UnaryVariantOpRegistry8PairHashESt8equal_toIS5_EE6InsertIRKS5_RKSJ_EES2_INSO_8iteratorEbEOT_OT0_
   fun:_ZN10tensorflow3gtl7FlatMapISt4pairINS_26VariantDeviceCopyDirectionENS_9TypeIndexEESt8functionIFNS_6StatusERKNS_7VariantEPS8_S6_IFS7_RKNS_6TensorEPSC_EEEENS_22UnaryVariantOpRegistry8PairHashESt8equal_toIS5_EE6insertIS2_IS5_SJ_EEES2_INSO_8iteratorEbERKT_
   fun:_ZN10tensorflow22UnaryVariantOpRegistry20RegisterDeviceCopyFnENS_26VariantDeviceCopyDirectionERKNS_9TypeIndexERKSt8functionIFNS_6StatusERKNS_7VariantEPS7_S5_IFS6_RKNS_6TensorEPSB_EEEE
   fun:_ZN10tensorflow35variant_op_registry_fn_registration34UnaryVariantDeviceCopyRegistrationIbEC1ENS_26VariantDeviceCopyDirectionERKNS_9TypeIndexERKSt8functionIFNS_6StatusERKbPbS7_IFS8_RKNS_6TensorEPSC_EEEE
   fun:_Z41__static_initialization_and_destruction_0ii
   fun:_GLOBAL__sub_I_variant_op_registry.cc
}
{
   <tensorflow_full>
   Memcheck:Leak
   match-leak-kinds: reachable
   fun:_Znwm
   fun:_ZNSt14_Function_base13_Base_managerIZN10tensorflow35variant_op_registry_fn_registration31UnaryVariantUnaryOpRegistrationIiEC4ENS1_14VariantUnaryOpERKNSt7__cxx1112basic_stringIcSt11char_traitsIcESaIcEEERKNS1_9TypeIndexERKSt8functionIFNS1_6StatusEPNS1_15OpKernelContextERKiPiEEEUlSK_RKNS1_7VariantEPSS_E_E8_M_cloneERSt9_Any_dataRKSY_St17integral_constantIbLb0EE
   fun:_ZNSt14_Function_base13_Base_managerIZN10tensorflow35variant_op_registry_fn_registration31UnaryVariantUnaryOpRegistrationIiEC4ENS1_14VariantUnaryOpERKNSt7__cxx1112basic_stringIcSt11char_traitsIcESaIcEEERKNS1_9TypeIndexERKSt8functionIFNS1_6StatusEPNS1_15OpKernelContextERKiPiEEEUlSK_RKNS1_7VariantEPSS_E_E10_M_managerERSt9_Any_dataRKSY_St18_Manager_operation
   fun:_ZNSt8functionIFN10tensorflow6StatusEPNS0_15OpKernelContextERKNS0_7VariantEPS4_EEC1ERKS9_
   fun:_ZN10tensorflow3gtl7FlatMapINS_22UnaryVariantOpRegistry9FuncTupleINS_14VariantUnaryOpEEESt8functionIFNS_6StatusEPNS_15OpKernelContextERKNS_7VariantEPSA_EENS2_9TupleHashESt8equal_toIS5_EE6Bucket7InitValIRKSF_EEvjOT_
   fun:_ZN10tensorflow3gtl7FlatMapINS_22UnaryVariantOpRegistry9FuncTupleINS_14VariantUnaryOpEEESt8functionIFNS_6StatusEPNS_15OpKernelContextERKNS_7VariantEPSA_EENS2_9TupleHashESt8equal_toIS5_EE6InsertIRKS5_RKSF_EESt4pairINSJ_8iteratorEbEOT_OT0_
   fun:_ZN10tensorflow3gtl7FlatMapINS_22UnaryVariantOpRegistry9FuncTupleINS_14VariantUnaryOpEEESt8functionIFNS_6StatusEPNS_15OpKernelContextERKNS_7VariantEPSA_EENS2_9TupleHashESt8equal_toIS5_EE6insertISt4pairIS5_SF_EEESL_INSJ_8iteratorEbERKT_
   fun:_ZN10tensorflow22UnaryVariantOpRegistry17RegisterUnaryOpFnENS_14VariantUnaryOpERKNSt7__cxx1112basic_stringIcSt11char_traitsIcESaIcEEERKNS_9TypeIndexERKSt8functionIFNS_6StatusEPNS_15OpKernelContextERKNS_7VariantEPSH_EE
   fun:_ZN10tensorflow35variant_op_registry_fn_registration31UnaryVariantUnaryOpRegistrationIiEC1ENS_14VariantUnaryOpERKNSt7__cxx1112basic_stringIcSt11char_traitsIcESaIcEEERKNS_9TypeIndexERKSt8functionIFNS_6StatusEPNS_15OpKernelContextERKiPiEE
   fun:_Z41__static_initialization_and_destruction_0ii
   fun:_GLOBAL__sub_I_variant_op_registry.cc
}
{
   <tensorflow_full>
   Memcheck:Leak
   match-leak-kinds: reachable
   fun:_Znwm
   fun:_ZNSt14_Function_base13_Base_managerIZN10tensorflow35variant_op_registry_fn_registration31UnaryVariantUnaryOpRegistrationIfEC4ENS1_14VariantUnaryOpERKNSt7__cxx1112basic_stringIcSt11char_traitsIcESaIcEEERKNS1_9TypeIndexERKSt8functionIFNS1_6StatusEPNS1_15OpKernelContextERKfPfEEEUlSK_RKNS1_7VariantEPSS_E_E8_M_cloneERSt9_Any_dataRKSY_St17integral_constantIbLb0EE
   fun:_ZNSt14_Function_base13_Base_managerIZN10tensorflow35variant_op_registry_fn_registration31UnaryVariantUnaryOpRegistrationIfEC4ENS1_14VariantUnaryOpERKNSt7__cxx1112basic_stringIcSt11char_traitsIcESaIcEEERKNS1_9TypeIndexERKSt8functionIFNS1_6StatusEPNS1_15OpKernelContextERKfPfEEEUlSK_RKNS1_7VariantEPSS_E_E10_M_managerERSt9_Any_dataRKSY_St18_Manager_operation
   fun:_ZNSt8functionIFN10tensorflow6StatusEPNS0_15OpKernelContextERKNS0_7VariantEPS4_EEC1ERKS9_
   fun:_ZN10tensorflow3gtl7FlatMapINS_22UnaryVariantOpRegistry9FuncTupleINS_14VariantUnaryOpEEESt8functionIFNS_6StatusEPNS_15OpKernelContextERKNS_7VariantEPSA_EENS2_9TupleHashESt8equal_toIS5_EE6Bucket7InitValIRKSF_EEvjOT_
   fun:_ZN10tensorflow3gtl7FlatMapINS_22UnaryVariantOpRegistry9FuncTupleINS_14VariantUnaryOpEEESt8functionIFNS_6StatusEPNS_15OpKernelContextERKNS_7VariantEPSA_EENS2_9TupleHashESt8equal_toIS5_EE6InsertIRKS5_RKSF_EESt4pairINSJ_8iteratorEbEOT_OT0_
